Component: ARM Compiler 5.06 update 6 (build 750) Tool: armlink [4d35ed]

==============================================================================

Section Cross References

    startup_stm32f407xx.o(RESET) refers to startup_stm32f407xx.o(STACK) for __initial_sp
    startup_stm32f407xx.o(RESET) refers to startup_stm32f407xx.o(.text) for Reset_Handler
    startup_stm32f407xx.o(RESET) refers to stm32f4xx_it.o(i.SysTick_Handler) for SysTick_Handler
    startup_stm32f407xx.o(RESET) refers to sys.o(i.EXTI0_IRQHandler) for EXTI0_IRQHandler
    startup_stm32f407xx.o(RESET) refers to sys.o(i.EXTI1_IRQHandler) for EXTI1_IRQHandler
    startup_stm32f407xx.o(RESET) refers to sys.o(i.EXTI2_IRQHandler) for EXTI2_IRQHandler
    startup_stm32f407xx.o(RESET) refers to sys.o(i.EXTI3_IRQHandler) for EXTI3_IRQHandler
    startup_stm32f407xx.o(RESET) refers to sys.o(i.EXTI4_IRQHandler) for EXTI4_IRQHandler
    startup_stm32f407xx.o(RESET) refers to sys.o(i.DMA1_Stream0_IRQHandler) for DMA1_Stream0_IRQHandler
    startup_stm32f407xx.o(RESET) refers to sys.o(i.DMA1_Stream1_IRQHandler) for DMA1_Stream1_IRQHandler
    startup_stm32f407xx.o(RESET) refers to sys.o(i.DMA1_Stream2_IRQHandler) for DMA1_Stream2_IRQHandler
    startup_stm32f407xx.o(RESET) refers to sys.o(i.DMA1_Stream3_IRQHandler) for DMA1_Stream3_IRQHandler
    startup_stm32f407xx.o(RESET) refers to sys.o(i.DMA1_Stream4_IRQHandler) for DMA1_Stream4_IRQHandler
    startup_stm32f407xx.o(RESET) refers to sys.o(i.DMA1_Stream5_IRQHandler) for DMA1_Stream5_IRQHandler
    startup_stm32f407xx.o(RESET) refers to sys.o(i.DMA1_Stream6_IRQHandler) for DMA1_Stream6_IRQHandler
    startup_stm32f407xx.o(RESET) refers to sys.o(i.EXTI9_5_IRQHandler) for EXTI9_5_IRQHandler
    startup_stm32f407xx.o(RESET) refers to hardwaretimer.o(i.TIM1_BRK_TIM9_IRQHandler) for TIM1_BRK_TIM9_IRQHandler
    startup_stm32f407xx.o(RESET) refers to hardwaretimer.o(i.TIM1_UP_TIM10_IRQHandler) for TIM1_UP_TIM10_IRQHandler
    startup_stm32f407xx.o(RESET) refers to hardwaretimer.o(i.TIM1_TRG_COM_TIM11_IRQHandler) for TIM1_TRG_COM_TIM11_IRQHandler
    startup_stm32f407xx.o(RESET) refers to hardwaretimer.o(i.TIM1_CC_IRQHandler) for TIM1_CC_IRQHandler
    startup_stm32f407xx.o(RESET) refers to hardwaretimer.o(i.TIM2_IRQHandler) for TIM2_IRQHandler
    startup_stm32f407xx.o(RESET) refers to hardwaretimer.o(i.TIM3_IRQHandler) for TIM3_IRQHandler
    startup_stm32f407xx.o(RESET) refers to hardwaretimer.o(i.TIM4_IRQHandler) for TIM4_IRQHandler
    startup_stm32f407xx.o(RESET) refers to sys.o(i.USART1_IRQHandler) for USART1_IRQHandler
    startup_stm32f407xx.o(RESET) refers to sys.o(i.USART2_IRQHandler) for USART2_IRQHandler
    startup_stm32f407xx.o(RESET) refers to sys.o(i.USART3_IRQHandler) for USART3_IRQHandler
    startup_stm32f407xx.o(RESET) refers to sys.o(i.EXTI15_10_IRQHandler) for EXTI15_10_IRQHandler
    startup_stm32f407xx.o(RESET) refers to hardwaretimer.o(i.TIM8_BRK_TIM12_IRQHandler) for TIM8_BRK_TIM12_IRQHandler
    startup_stm32f407xx.o(RESET) refers to hardwaretimer.o(i.TIM8_UP_TIM13_IRQHandler) for TIM8_UP_TIM13_IRQHandler
    startup_stm32f407xx.o(RESET) refers to hardwaretimer.o(i.TIM8_TRG_COM_TIM14_IRQHandler) for TIM8_TRG_COM_TIM14_IRQHandler
    startup_stm32f407xx.o(RESET) refers to hardwaretimer.o(i.TIM8_CC_IRQHandler) for TIM8_CC_IRQHandler
    startup_stm32f407xx.o(RESET) refers to sys.o(i.DMA1_Stream7_IRQHandler) for DMA1_Stream7_IRQHandler
    startup_stm32f407xx.o(RESET) refers to hardwaretimer.o(i.TIM5_IRQHandler) for TIM5_IRQHandler
    startup_stm32f407xx.o(RESET) refers to sys.o(i.UART4_IRQHandler) for UART4_IRQHandler
    startup_stm32f407xx.o(RESET) refers to sys.o(i.UART5_IRQHandler) for UART5_IRQHandler
    startup_stm32f407xx.o(RESET) refers to hardwaretimer.o(i.TIM6_DAC_IRQHandler) for TIM6_DAC_IRQHandler
    startup_stm32f407xx.o(RESET) refers to hardwaretimer.o(i.TIM7_IRQHandler) for TIM7_IRQHandler
    startup_stm32f407xx.o(RESET) refers to sys.o(i.DMA2_Stream0_IRQHandler) for DMA2_Stream0_IRQHandler
    startup_stm32f407xx.o(RESET) refers to sys.o(i.DMA2_Stream1_IRQHandler) for DMA2_Stream1_IRQHandler
    startup_stm32f407xx.o(RESET) refers to sys.o(i.DMA2_Stream2_IRQHandler) for DMA2_Stream2_IRQHandler
    startup_stm32f407xx.o(RESET) refers to sys.o(i.DMA2_Stream3_IRQHandler) for DMA2_Stream3_IRQHandler
    startup_stm32f407xx.o(RESET) refers to sys.o(i.DMA2_Stream4_IRQHandler) for DMA2_Stream4_IRQHandler
    startup_stm32f407xx.o(RESET) refers to sys.o(i.DMA2_Stream5_IRQHandler) for DMA2_Stream5_IRQHandler
    startup_stm32f407xx.o(RESET) refers to sys.o(i.DMA2_Stream6_IRQHandler) for DMA2_Stream6_IRQHandler
    startup_stm32f407xx.o(RESET) refers to sys.o(i.DMA2_Stream7_IRQHandler) for DMA2_Stream7_IRQHandler
    startup_stm32f407xx.o(RESET) refers to sys.o(i.USART6_IRQHandler) for USART6_IRQHandler
    startup_stm32f407xx.o(.text) refers to system_stm32f4xx.o(i.SystemInit) for SystemInit
    startup_stm32f407xx.o(.text) refers to entry.o(.ARM.Collect$$$$00000000) for __main
    stm32f4xx_hal_rcc.o(i.HAL_RCC_ClockConfig) refers to stm32f4xx_hal.o(i.HAL_GetTick) for HAL_GetTick
    stm32f4xx_hal_rcc.o(i.HAL_RCC_ClockConfig) refers to stm32f4xx_hal.o(i.HAL_InitTick) for HAL_InitTick
    stm32f4xx_hal_rcc.o(i.HAL_RCC_GetHCLKFreq) refers to stm32f4xx_hal_rcc.o(i.HAL_RCC_GetSysClockFreq) for HAL_RCC_GetSysClockFreq
    stm32f4xx_hal_rcc.o(i.HAL_RCC_GetHCLKFreq) refers to stm32f4xx_hal_rcc.o(.constdata) for APBAHBPrescTable
    stm32f4xx_hal_rcc.o(i.HAL_RCC_GetHCLKFreq) refers to system_stm32f4xx.o(.data) for SystemCoreClock
    stm32f4xx_hal_rcc.o(i.HAL_RCC_GetPCLK1Freq) refers to stm32f4xx_hal_rcc.o(i.HAL_RCC_GetHCLKFreq) for HAL_RCC_GetHCLKFreq
    stm32f4xx_hal_rcc.o(i.HAL_RCC_GetPCLK1Freq) refers to stm32f4xx_hal_rcc.o(.constdata) for APBAHBPrescTable
    stm32f4xx_hal_rcc.o(i.HAL_RCC_GetPCLK2Freq) refers to stm32f4xx_hal_rcc.o(i.HAL_RCC_GetHCLKFreq) for HAL_RCC_GetHCLKFreq
    stm32f4xx_hal_rcc.o(i.HAL_RCC_GetPCLK2Freq) refers to stm32f4xx_hal_rcc.o(.constdata) for APBAHBPrescTable
    stm32f4xx_hal_rcc.o(i.HAL_RCC_MCOConfig) refers to stm32f4xx_hal_gpio.o(i.HAL_GPIO_Init) for HAL_GPIO_Init
    stm32f4xx_hal_rcc.o(i.HAL_RCC_NMI_IRQHandler) refers to stm32f4xx_hal_rcc.o(i.HAL_RCC_CSSCallback) for HAL_RCC_CSSCallback
    stm32f4xx_hal_rcc.o(i.HAL_RCC_OscConfig) refers to stm32f4xx_hal.o(i.HAL_GetTick) for HAL_GetTick
    stm32f4xx_hal_rcc.o(.ARM.exidx) refers to stm32f4xx_hal_rcc.o(i.HAL_RCC_DeInit) for i.HAL_RCC_DeInit
    stm32f4xx_hal_rcc.o(.ARM.exidx) refers to stm32f4xx_hal_rcc.o(i.HAL_RCC_OscConfig) for i.HAL_RCC_OscConfig
    stm32f4xx_hal_rcc.o(.ARM.exidx) refers to stm32f4xx_hal_rcc.o(i.HAL_RCC_ClockConfig) for i.HAL_RCC_ClockConfig
    stm32f4xx_hal_rcc.o(.ARM.exidx) refers to stm32f4xx_hal_rcc.o(i.HAL_RCC_MCOConfig) for i.HAL_RCC_MCOConfig
    stm32f4xx_hal_rcc.o(.ARM.exidx) refers to stm32f4xx_hal_rcc.o(i.HAL_RCC_EnableCSS) for i.HAL_RCC_EnableCSS
    stm32f4xx_hal_rcc.o(.ARM.exidx) refers to stm32f4xx_hal_rcc.o(i.HAL_RCC_DisableCSS) for i.HAL_RCC_DisableCSS
    stm32f4xx_hal_rcc.o(.ARM.exidx) refers to stm32f4xx_hal_rcc.o(i.HAL_RCC_GetSysClockFreq) for i.HAL_RCC_GetSysClockFreq
    stm32f4xx_hal_rcc.o(.ARM.exidx) refers to stm32f4xx_hal_rcc.o(i.HAL_RCC_GetHCLKFreq) for i.HAL_RCC_GetHCLKFreq
    stm32f4xx_hal_rcc.o(.ARM.exidx) refers to stm32f4xx_hal_rcc.o(i.HAL_RCC_GetPCLK1Freq) for i.HAL_RCC_GetPCLK1Freq
    stm32f4xx_hal_rcc.o(.ARM.exidx) refers to stm32f4xx_hal_rcc.o(i.HAL_RCC_GetPCLK2Freq) for i.HAL_RCC_GetPCLK2Freq
    stm32f4xx_hal_rcc.o(.ARM.exidx) refers to stm32f4xx_hal_rcc.o(i.HAL_RCC_GetOscConfig) for i.HAL_RCC_GetOscConfig
    stm32f4xx_hal_rcc.o(.ARM.exidx) refers to stm32f4xx_hal_rcc.o(i.HAL_RCC_GetClockConfig) for i.HAL_RCC_GetClockConfig
    stm32f4xx_hal_rcc.o(.ARM.exidx) refers to stm32f4xx_hal_rcc.o(i.HAL_RCC_CSSCallback) for i.HAL_RCC_CSSCallback
    stm32f4xx_hal_rcc.o(.ARM.exidx) refers to stm32f4xx_hal_rcc.o(i.HAL_RCC_NMI_IRQHandler) for i.HAL_RCC_NMI_IRQHandler
    dht11.o(i._ZN5dht114readEi) refers to sys.o(i.pinMode) for pinMode
    dht11.o(i._ZN5dht114readEi) refers to sys.o(i.digitalWrite) for digitalWrite
    dht11.o(i._ZN5dht114readEi) refers to sys.o(i.delay) for delay
    dht11.o(i._ZN5dht114readEi) refers to sys.o(i.delayMicroseconds) for delayMicroseconds
    dht11.o(i._ZN5dht114readEi) refers to sys.o(i.digitalRead) for digitalRead
    dht11.o(i._ZN5dht114readEi) refers to sys.o(i.micros) for micros
    dht11.o(.ARM.exidx) refers to dht11.o(i._ZN5dht114readEi) for i._ZN5dht114readEi
    tm1637display.o(i._ZN13TM1637Display11display_allEh) refers to tm1637display.o(i._ZN13TM1637Display11setSegmentsEPKhhh) for TM1637Display::setSegments(const unsigned char*, unsigned char, unsigned char)
    tm1637display.o(i._ZN13TM1637Display11encodeDigitEh) refers to tm1637display.o(.constdata) for digitToSegment
    tm1637display.o(i._ZN13TM1637Display11setSegmentsEPKhhh) refers to tm1637display.o(i._ZN13TM1637Display5startEv) for TM1637Display::start()
    tm1637display.o(i._ZN13TM1637Display11setSegmentsEPKhhh) refers to tm1637display.o(i._ZN13TM1637Display9writeByteEh) for TM1637Display::writeByte(unsigned char)
    tm1637display.o(i._ZN13TM1637Display11setSegmentsEPKhhh) refers to tm1637display.o(i._ZN13TM1637Display4stopEv) for TM1637Display::stop()
    tm1637display.o(i._ZN13TM1637Display13showNumberDecEibhh) refers to tm1637display.o(i._ZN13TM1637Display15showNumberDecExEihbhh) for TM1637Display::showNumberDecEx(int, unsigned char, bool, unsigned char, unsigned char)
    tm1637display.o(i._ZN13TM1637Display14display_numberEdi) refers to tm1637display.o(i._ZSt3powdi) for std::pow(double, int)
    tm1637display.o(i._ZN13TM1637Display14display_numberEdi) refers to cdrcmple.o(.text) for __aeabi_cdrcmple
    tm1637display.o(i._ZN13TM1637Display14display_numberEdi) refers to cdcmple.o(.text) for __aeabi_cdcmple
    tm1637display.o(i._ZN13TM1637Display14display_numberEdi) refers to tm1637display.o(i._ZSt3absd) for std::abs(double)
    tm1637display.o(i._ZN13TM1637Display14display_numberEdi) refers to log10.o(i.__hardfp_log10) for __hardfp_log10
    tm1637display.o(i._ZN13TM1637Display14display_numberEdi) refers to dfixi.o(.text) for __aeabi_d2iz
    tm1637display.o(i._ZN13TM1637Display14display_numberEdi) refers to tm1637display.o(i._ZN13TM1637Display15display_messageEPKhi) for TM1637Display::display_message(const unsigned char*, int)
    tm1637display.o(i._ZN13TM1637Display14display_numberEdi) refers to ddiv.o(.text) for __aeabi_ddiv
    tm1637display.o(i._ZN13TM1637Display14display_numberEdi) refers to sys.o(i._ZN6StringC1EPKc) for String::String(const char*)
    tm1637display.o(i._ZN13TM1637Display14display_numberEdi) refers to sys.o(i._ZN6String6concatEc) for String::concat(char)
    tm1637display.o(i._ZN13TM1637Display14display_numberEdi) refers to sys.o(i.itoa) for itoa
    tm1637display.o(i._ZN13TM1637Display14display_numberEdi) refers to tm1637display.o(i._ZN6StringpLERKS_) for String::operator +=(const String&)
    tm1637display.o(i._ZN13TM1637Display14display_numberEdi) refers to sys.o(i._ZN6StringD1Ev) for String::~String()
    tm1637display.o(i._ZN13TM1637Display14display_numberEdi) refers to sys.o(i._ZN6StringC1Ec) for String::String(char)
    tm1637display.o(i._ZN13TM1637Display14display_numberEdi) refers to tm1637display.o(i._ZN13TM1637Display7chiffreEc) for TM1637Display::chiffre(char)
    tm1637display.o(i._ZN13TM1637Display14display_numberEdi) refers to sys.o(i._ZNK6String6charAtEj) for String::charAt(unsigned) const
    tm1637display.o(i._ZN13TM1637Display14display_numberEdi) refers to tm1637display.o(i._ZN13TM1637Display11setSegmentsEPKhhh) for TM1637Display::setSegments(const unsigned char*, unsigned char, unsigned char)
    tm1637display.o(i._ZN13TM1637Display14display_numberEdi) refers to modf.o(i.__hardfp_modf) for __hardfp_modf
    tm1637display.o(i._ZN13TM1637Display14display_numberEdi) refers to dmul.o(.text) for __aeabi_dmul
    tm1637display.o(i._ZN13TM1637Display14display_numberEdi) refers to sys.o(i.dtostrf) for dtostrf
    tm1637display.o(i._ZN13TM1637Display14display_numberEdi) refers to tm1637display.o(.constdata) for SEG_Err
    tm1637display.o(i._ZN13TM1637Display15display_messageEPKhi) refers to tm1637display.o(i._ZN13TM1637Display11setSegmentsEPKhhh) for TM1637Display::setSegments(const unsigned char*, unsigned char, unsigned char)
    tm1637display.o(i._ZN13TM1637Display15showNumberDecExEihbhh) refers to tm1637display.o(i._ZN13TM1637Display16showNumberBaseExEathbhh) for TM1637Display::showNumberBaseEx(signed char, unsigned short, unsigned char, bool, unsigned char, unsigned char)
    tm1637display.o(i._ZN13TM1637Display15showNumberHexExEthbhh) refers to tm1637display.o(i._ZN13TM1637Display16showNumberBaseExEathbhh) for TM1637Display::showNumberBaseEx(signed char, unsigned short, unsigned char, bool, unsigned char, unsigned char)
    tm1637display.o(i._ZN13TM1637Display16showNumberBaseExEathbhh) refers to tm1637display.o(i._ZN13TM1637Display11encodeDigitEh) for TM1637Display::encodeDigit(unsigned char)
    tm1637display.o(i._ZN13TM1637Display16showNumberBaseExEathbhh) refers to tm1637display.o(i._ZN13TM1637Display8showDotsEhPh) for TM1637Display::showDots(unsigned char, unsigned char*)
    tm1637display.o(i._ZN13TM1637Display16showNumberBaseExEathbhh) refers to tm1637display.o(i._ZN13TM1637Display11setSegmentsEPKhhh) for TM1637Display::setSegments(const unsigned char*, unsigned char, unsigned char)
    tm1637display.o(i._ZN13TM1637Display4stopEv) refers to sys.o(i.pinMode) for pinMode
    tm1637display.o(i._ZN13TM1637Display4stopEv) refers to tm1637display.o(i._ZN13TM1637Display8bitDelayEv) for TM1637Display::bitDelay()
    tm1637display.o(i._ZN13TM1637Display5clearEv) refers to tm1637display.o(i._ZN13TM1637Display11setSegmentsEPKhhh) for TM1637Display::setSegments(const unsigned char*, unsigned char, unsigned char)
    tm1637display.o(i._ZN13TM1637Display5startEv) refers to sys.o(i.pinMode) for pinMode
    tm1637display.o(i._ZN13TM1637Display5startEv) refers to tm1637display.o(i._ZN13TM1637Display8bitDelayEv) for TM1637Display::bitDelay()
    tm1637display.o(i._ZN13TM1637Display8bitDelayEv) refers to sys.o(i.delayMicroseconds) for delayMicroseconds
    tm1637display.o(i._ZN13TM1637Display9writeByteEh) refers to sys.o(i.pinMode) for pinMode
    tm1637display.o(i._ZN13TM1637Display9writeByteEh) refers to tm1637display.o(i._ZN13TM1637Display8bitDelayEv) for TM1637Display::bitDelay()
    tm1637display.o(i._ZN13TM1637Display9writeByteEh) refers to sys.o(i.digitalRead) for digitalRead
    tm1637display.o(i._ZN13TM1637DisplayC1Ehhj) refers to sys.o(i.pinMode) for pinMode
    tm1637display.o(i._ZN13TM1637DisplayC1Ehhj) refers to sys.o(i.digitalWrite) for digitalWrite
    tm1637display.o(.ARM.exidx) refers to tm1637display.o(i._ZN13TM1637DisplayC1Ehhj) for i._ZN13TM1637DisplayC1Ehhj
    tm1637display.o(.ARM.exidx) refers to tm1637display.o(i._ZN13TM1637Display13setBrightnessEhb) for i._ZN13TM1637Display13setBrightnessEhb
    tm1637display.o(.ARM.exidx) refers to tm1637display.o(i._ZN13TM1637Display8bitDelayEv) for i._ZN13TM1637Display8bitDelayEv
    tm1637display.o(.ARM.exidx) refers to tm1637display.o(i._ZN13TM1637Display4stopEv) for i._ZN13TM1637Display4stopEv
    tm1637display.o(.ARM.exidx) refers to tm1637display.o(i._ZN13TM1637Display9writeByteEh) for i._ZN13TM1637Display9writeByteEh
    tm1637display.o(.ARM.exidx) refers to tm1637display.o(i._ZN13TM1637Display5startEv) for i._ZN13TM1637Display5startEv
    tm1637display.o(.ARM.exidx) refers to tm1637display.o(i._ZN13TM1637Display11setSegmentsEPKhhh) for i._ZN13TM1637Display11setSegmentsEPKhhh
    tm1637display.o(.ARM.exidx) refers to tm1637display.o(i._ZN13TM1637Display5clearEv) for i._ZN13TM1637Display5clearEv
    tm1637display.o(.ARM.exidx) refers to tm1637display.o(i._ZN13TM1637Display8showDotsEhPh) for i._ZN13TM1637Display8showDotsEhPh
    tm1637display.o(.ARM.exidx) refers to tm1637display.o(i._ZN13TM1637Display11encodeDigitEh) for i._ZN13TM1637Display11encodeDigitEh
    tm1637display.o(.ARM.exidx) refers to tm1637display.o(i._ZN13TM1637Display16showNumberBaseExEathbhh) for i._ZN13TM1637Display16showNumberBaseExEathbhh
    tm1637display.o(.ARM.exidx) refers to tm1637display.o(i._ZN13TM1637Display15showNumberDecExEihbhh) for i._ZN13TM1637Display15showNumberDecExEihbhh
    tm1637display.o(.ARM.exidx) refers to tm1637display.o(i._ZN13TM1637Display13showNumberDecEibhh) for i._ZN13TM1637Display13showNumberDecEibhh
    tm1637display.o(.ARM.exidx) refers to tm1637display.o(i._ZN13TM1637Display15showNumberHexExEthbhh) for i._ZN13TM1637Display15showNumberHexExEthbhh
    tm1637display.o(.ARM.exidx) refers to tm1637display.o(i._ZN13TM1637Display7chiffreEc) for i._ZN13TM1637Display7chiffreEc
    tm1637display.o(.ARM.exidx) refers to tm1637display.o(i._ZN13TM1637Display15display_messageEPKhi) for i._ZN13TM1637Display15display_messageEPKhi
    tm1637display.o(.ARM.exidx) refers to tm1637display.o(i._ZN13TM1637Display11display_allEh) for i._ZN13TM1637Display11display_allEh
    tm1637display.o(.ARM.exidx) refers to tm1637display.o(i._ZN13TM1637Display14display_numberEdi) for i._ZN13TM1637Display14display_numberEdi
    file.o(i._ZN4File4peekEv) refers to file.o(i._ZN6SdFile4readEv) for SdFile::read()
    file.o(i._ZN4File4peekEv) refers to sdfile.o(i._ZN6SdFile7seekSetEj) for SdFile::seekSet(unsigned)
    file.o(i._ZN4File4readEPvt) refers to sdfile.o(i._ZN6SdFile4readEPvt) for SdFile::read(void*, unsigned short)
    file.o(i._ZN4File4readEv) refers to file.o(i._ZN6SdFile4readEv) for SdFile::read()
    file.o(i._ZN4File4seekEj) refers to sdfile.o(i._ZN6SdFile7seekSetEj) for SdFile::seekSet(unsigned)
    file.o(i._ZN4File5closeEv) refers to sdfile.o(i._ZN6SdFile5closeEv) for SdFile::close()
    file.o(i._ZN4File5closeEv) refers to mallocr.o(i.__free$realloc) for free
    file.o(i._ZN4File5flushEv) refers to sdfile.o(i._ZN6SdFile4syncEv) for SdFile::sync()
    file.o(i._ZN4File5writeEPKhj) refers to file.o(i._ZN5Print13setWriteErrorEi) for Print::setWriteError(int)
    file.o(i._ZN4File5writeEPKhj) refers to sdfile.o(i._ZN6SdFile5writeEPKvt) for SdFile::write(const void*, unsigned short)
    file.o(i._ZN4File9availableEv) refers to file.o(i._ZN4File4sizeEv) for File::size()
    file.o(i._ZN4File9availableEv) refers to file.o(i._ZN4File8positionEv) for File::position()
    file.o(i._ZN4FileC1E6SdFilePKc) refers to file.o(i._ZN6StreamC2Ev) for Stream::Stream__sub_object()
    file.o(i._ZN4FileC1E6SdFilePKc) refers to mallocr.o(i.__malloc$realloc) for malloc
    file.o(i._ZN4FileC1E6SdFilePKc) refers to memmovea.o(.text) for __aeabi_memcpy4
    file.o(i._ZN4FileC1E6SdFilePKc) refers to strncpy.o(.text) for strncpy
    file.o(i._ZN4FileC1E6SdFilePKc) refers to file.o(.constdata__ZTV4File) for vtable for File
    file.o(i._ZN4FileC1Ev) refers to file.o(i._ZN6StreamC2Ev) for Stream::Stream__sub_object()
    file.o(i._ZN4FileC1Ev) refers to file.o(.constdata__ZTV4File) for vtable for File
    file.o(.ARM.exidx) refers to file.o(i._Z7FreeRamv) for i._Z7FreeRamv
    file.o(.ARM.exidx) refers to file.o(i._ZN4FileC1E6SdFilePKc) for i._ZN4FileC1E6SdFilePKc
    file.o(.ARM.exidx) refers to file.o(i._ZN4FileC1Ev) for i._ZN4FileC1Ev
    file.o(.ARM.exidx) refers to file.o(i._ZN4File5writeEh) for i._ZN4File5writeEh
    file.o(.ARM.exidx) refers to file.o(i._ZN4File5writeEPKhj) for i._ZN4File5writeEPKhj
    file.o(.ARM.exidx) refers to file.o(i._ZN4File4readEv) for i._ZN4File4readEv
    file.o(.ARM.exidx) refers to file.o(i._ZN4File4peekEv) for i._ZN4File4peekEv
    file.o(.ARM.exidx) refers to file.o(i._ZN4File8positionEv) for i._ZN4File8positionEv
    file.o(.ARM.exidx) refers to file.o(i._ZN4File4sizeEv) for i._ZN4File4sizeEv
    file.o(.ARM.exidx) refers to file.o(i._ZN4File9availableEv) for i._ZN4File9availableEv
    file.o(.ARM.exidx) refers to file.o(i._ZN4File5flushEv) for i._ZN4File5flushEv
    file.o(.ARM.exidx) refers to file.o(i._ZN4File4readEPvt) for i._ZN4File4readEPvt
    file.o(.ARM.exidx) refers to file.o(i._ZN4File4seekEj) for i._ZN4File4seekEj
    file.o(.ARM.exidx) refers to file.o(i._ZN4File5closeEv) for i._ZN4File5closeEv
    file.o(.ARM.exidx) refers to file.o(i._ZN4FilecvbEv) for i._ZN4FilecvbEv
    file.o(.ARM.exidx) refers to file.o(i._ZN4File4nameEv) for i._ZN4File4nameEv
    file.o(.ARM.exidx) refers to file.o(i._ZN4File11isDirectoryEv) for i._ZN4File11isDirectoryEv
    sd.o(i._Z14callback_rmdirR6SdFilePchPv) refers to sd.o(i._ZN6SdFileC1Ev) for SdFile::SdFile()
    sd.o(i._Z14callback_rmdirR6SdFilePchPv) refers to sd.o(i._ZN6SdFile4openERS_PKch) for SdFile::open(SdFile&, const char*, unsigned char)
    sd.o(i._Z14callback_rmdirR6SdFilePchPv) refers to sdfile.o(i._ZN6SdFile5rmDirEv) for SdFile::rmDir()
    sd.o(i._Z15callback_removeR6SdFilePchPv) refers to sdfile.o(i._ZN6SdFile6removeEPS_PKc) for SdFile::remove(SdFile*, const char*)
    sd.o(i._Z19callback_pathExistsR6SdFilePchPv) refers to sd.o(i._ZN6SdFileC1Ev) for SdFile::SdFile()
    sd.o(i._Z19callback_pathExistsR6SdFilePchPv) refers to sd.o(i._ZN6SdFile4openERS_PKch) for SdFile::open(SdFile&, const char*, unsigned char)
    sd.o(i._Z19callback_pathExistsR6SdFilePchPv) refers to sdfile.o(i._ZN6SdFile5closeEv) for SdFile::close()
    sd.o(i._Z20callback_makeDirPathR6SdFilePchPv) refers to sd.o(i._ZN6SdFileC1Ev) for SdFile::SdFile()
    sd.o(i._Z20callback_makeDirPathR6SdFilePchPv) refers to sd.o(i._Z19callback_pathExistsR6SdFilePchPv) for callback_pathExists(SdFile&, char*, unsigned char, void*)
    sd.o(i._Z20callback_makeDirPathR6SdFilePchPv) refers to sdfile.o(i._ZN6SdFile7makeDirEPS_PKc) for SdFile::makeDir(SdFile*, const char*)
    sd.o(i._Z8walkPathPcR6SdFilePFhS1_S_hPvES2_) refers to sd.o(i._ZN6SdFileC1Ev) for SdFile::SdFile()
    sd.o(i._Z8walkPathPcR6SdFilePFhS1_S_hPvES2_) refers to sd.o(i._Z20getNextPathComponentPcPjS_) for getNextPathComponent(char*, unsigned*, char*)
    sd.o(i._Z8walkPathPcR6SdFilePFhS1_S_hPvES2_) refers to sdfile.o(i._ZN6SdFile5closeEv) for SdFile::close()
    sd.o(i._Z8walkPathPcR6SdFilePFhS1_S_hPvES2_) refers to sd.o(i._ZN6SdFile4openERS_PKch) for SdFile::open(SdFile&, const char*, unsigned char)
    sd.o(i._ZN4File12openNextFileEh) refers to file.o(i._ZN4FileC1Ev) for File::File()
    sd.o(i._ZN4File12openNextFileEh) refers to sd.o(i._ZN6SdFileC1Ev) for SdFile::SdFile()
    sd.o(i._ZN4File12openNextFileEh) refers to sdfile.o(i._ZN6SdFile7dirNameERK14directoryEntryPc) for SdFile::dirName(const directoryEntry&, char*)
    sd.o(i._ZN4File12openNextFileEh) refers to sdfile.o(i._ZN6SdFile4openEPS_PKch) for SdFile::open(SdFile*, const char*, unsigned char)
    sd.o(i._ZN4File12openNextFileEh) refers to sd.o(i._ZN6SdFileC1ERKS_) for SdFile::SdFile(const SdFile&)
    sd.o(i._ZN4File12openNextFileEh) refers to file.o(i._ZN4FileC1E6SdFilePKc) for File::File(SdFile, const char*)
    sd.o(i._ZN4File12openNextFileEh) refers to sdfile.o(i._ZN6SdFile7readDirEP14directoryEntry) for SdFile::readDir(directoryEntry*)
    sd.o(i._ZN4File15rewindDirectoryEv) refers to file.o(i._ZN4File11isDirectoryEv) for File::isDirectory()
    sd.o(i._ZN7SDClass12getParentDirEPKcPi) refers to sd.o(i._ZN6SdFileC1ERKS_) for SdFile::SdFile(const SdFile&)
    sd.o(i._ZN7SDClass12getParentDirEPKcPi) refers to sd.o(i._ZN6SdFileC1Ev) for SdFile::SdFile()
    sd.o(i._ZN7SDClass12getParentDirEPKcPi) refers to strchr.o(.text) for strchr
    sd.o(i._ZN7SDClass12getParentDirEPKcPi) refers to strncpy.o(.text) for strncpy
    sd.o(i._ZN7SDClass12getParentDirEPKcPi) refers to sdfile.o(i._ZN6SdFile5closeEv) for SdFile::close()
    sd.o(i._ZN7SDClass12getParentDirEPKcPi) refers to sdfile.o(i._ZN6SdFile4openEPS_PKch) for SdFile::open(SdFile*, const char*, unsigned char)
    sd.o(i._ZN7SDClass4openEPKch) refers to sd.o(i._ZN7SDClass12getParentDirEPKcPi) for SDClass::getParentDir(const char*, int*)
    sd.o(i._ZN7SDClass4openEPKch) refers to sd.o(i._ZN6SdFileC1ERKS_) for SdFile::SdFile(const SdFile&)
    sd.o(i._ZN7SDClass4openEPKch) refers to file.o(i._ZN4FileC1E6SdFilePKc) for File::File(SdFile, const char*)
    sd.o(i._ZN7SDClass4openEPKch) refers to sd.o(i._ZN6SdFileC1Ev) for SdFile::SdFile()
    sd.o(i._ZN7SDClass4openEPKch) refers to sd.o(i._ZNK6SdFile6isOpenEv) for SdFile::isOpen() const
    sd.o(i._ZN7SDClass4openEPKch) refers to file.o(i._ZN4FileC1Ev) for File::File()
    sd.o(i._ZN7SDClass4openEPKch) refers to sd.o(i._ZN6SdFile4openERS_PKch) for SdFile::open(SdFile&, const char*, unsigned char)
    sd.o(i._ZN7SDClass4openEPKch) refers to sdfile.o(i._ZN6SdFile5closeEv) for SdFile::close()
    sd.o(i._ZN7SDClass4openEPKch) refers to sdfile.o(i._ZN6SdFile7seekSetEj) for SdFile::seekSet(unsigned)
    sd.o(i._ZN7SDClass4openEPKch) refers to sd.o(.bss) for SD
    sd.o(i._ZN7SDClass5beginEh) refers to sd.o(i._ZNK6SdFile6isOpenEv) for SdFile::isOpen() const
    sd.o(i._ZN7SDClass5beginEh) refers to sdfile.o(i._ZN6SdFile5closeEv) for SdFile::close()
    sd.o(i._ZN7SDClass5beginEh) refers to sd2card.o(i._ZN7Sd2Card4initEhh) for Sd2Card::init(unsigned char, unsigned char)
    sd.o(i._ZN7SDClass5beginEh) refers to sdvolume.o(i._ZN8SdVolume4initEP7Sd2Cardh) for SdVolume::init(Sd2Card*, unsigned char)
    sd.o(i._ZN7SDClass5beginEh) refers to sdfile.o(i._ZN6SdFile8openRootEP8SdVolume) for SdFile::openRoot(SdVolume*)
    sd.o(i._ZN7SDClass5mkdirEPc) refers to sd.o(i._Z8walkPathPcR6SdFilePFhS1_S_hPvES2_) for walkPath(char*, SdFile&, unsigned char(*)(SdFile&, char*, unsigned char, void*), void*)
    sd.o(i._ZN7SDClass5mkdirEPc) refers to sd.o(i._Z20callback_makeDirPathR6SdFilePchPv) for callback_makeDirPath(SdFile&, char*, unsigned char, void*)
    sd.o(i._ZN7SDClass5rmdirEPc) refers to sd.o(i._Z8walkPathPcR6SdFilePFhS1_S_hPvES2_) for walkPath(char*, SdFile&, unsigned char(*)(SdFile&, char*, unsigned char, void*), void*)
    sd.o(i._ZN7SDClass5rmdirEPc) refers to sd.o(i._Z14callback_rmdirR6SdFilePchPv) for callback_rmdir(SdFile&, char*, unsigned char, void*)
    sd.o(i._ZN7SDClass6existsEPc) refers to sd.o(i._Z8walkPathPcR6SdFilePFhS1_S_hPvES2_) for walkPath(char*, SdFile&, unsigned char(*)(SdFile&, char*, unsigned char, void*), void*)
    sd.o(i._ZN7SDClass6existsEPc) refers to sd.o(i._Z19callback_pathExistsR6SdFilePchPv) for callback_pathExists(SdFile&, char*, unsigned char, void*)
    sd.o(i._ZN7SDClass6removeEPc) refers to sd.o(i._Z8walkPathPcR6SdFilePFhS1_S_hPvES2_) for walkPath(char*, SdFile&, unsigned char(*)(SdFile&, char*, unsigned char, void*), void*)
    sd.o(i._ZN7SDClass6removeEPc) refers to sd.o(i._Z15callback_removeR6SdFilePchPv) for callback_remove(SdFile&, char*, unsigned char, void*)
    sd.o(i.__sti___6_SD_cpp_426a88ba) refers to sd.o(i._ZN6SdFileC1Ev) for SdFile::SdFile()
    sd.o(i.__sti___6_SD_cpp_426a88ba) refers to sd.o(.bss) for SD
    sd.o(.ARM.exidx) refers to sd.o(i._Z7FreeRamv) for i._Z7FreeRamv
    sd.o(.ARM.exidx) refers to sd.o(i._Z20getNextPathComponentPcPjS_) for i._Z20getNextPathComponentPcPjS_
    sd.o(.ARM.exidx) refers to sd.o(i._Z8walkPathPcR6SdFilePFhS1_S_hPvES2_) for i._Z8walkPathPcR6SdFilePFhS1_S_hPvES2_
    sd.o(.ARM.exidx) refers to sd.o(i._Z19callback_pathExistsR6SdFilePchPv) for i._Z19callback_pathExistsR6SdFilePchPv
    sd.o(.ARM.exidx) refers to sd.o(i._Z20callback_makeDirPathR6SdFilePchPv) for i._Z20callback_makeDirPathR6SdFilePchPv
    sd.o(.ARM.exidx) refers to sd.o(i._Z15callback_removeR6SdFilePchPv) for i._Z15callback_removeR6SdFilePchPv
    sd.o(.ARM.exidx) refers to sd.o(i._Z14callback_rmdirR6SdFilePchPv) for i._Z14callback_rmdirR6SdFilePchPv
    sd.o(.ARM.exidx) refers to sd.o(i._ZN4File12openNextFileEh) for i._ZN4File12openNextFileEh
    sd.o(.ARM.exidx) refers to sd.o(i._ZN4File15rewindDirectoryEv) for i._ZN4File15rewindDirectoryEv
    sd.o(.ARM.exidx) refers to sd.o(i._ZN7SDClass12getParentDirEPKcPi) for i._ZN7SDClass12getParentDirEPKcPi
    sd.o(.ARM.exidx) refers to sd.o(i._ZN7SDClass5beginEh) for i._ZN7SDClass5beginEh
    sd.o(.ARM.exidx) refers to sd.o(i._ZN7SDClass4openEPKch) for i._ZN7SDClass4openEPKch
    sd.o(.ARM.exidx) refers to sd.o(i._ZN7SDClass6existsEPc) for i._ZN7SDClass6existsEPc
    sd.o(.ARM.exidx) refers to sd.o(i._ZN7SDClass5mkdirEPc) for i._ZN7SDClass5mkdirEPc
    sd.o(.ARM.exidx) refers to sd.o(i._ZN7SDClass6removeEPc) for i._ZN7SDClass6removeEPc
    sd.o(.ARM.exidx) refers to sd.o(i._ZN7SDClass5rmdirEPc) for i._ZN7SDClass5rmdirEPc
    sd.o(.ARM.exidx) refers to sd.o(i.__sti___6_SD_cpp_426a88ba) for i.__sti___6_SD_cpp_426a88ba
    sd.o(.init_array) refers to sd.o(i.__sti___6_SD_cpp_426a88ba) for __sti___6_SD_cpp_426a88ba
    sd.o(.init_array) refers to cpp_init.o(.text) for __cpp_initialize__aeabi_
    sd2card.o(i._Z6spiRecv) refers to sys.o(i._ZN8SPIClass8transferEh) for SPIClass::transfer(unsigned char)
    sd2card.o(i._Z6spiRecv) refers to sys.o(.bss) for SPI
    sd2card.o(i._Z7spiSendh) refers to sys.o(i._ZN8SPIClass8transferEh) for SPIClass::transfer(unsigned char)
    sd2card.o(i._Z7spiSendh) refers to sys.o(.bss) for SPI
    sd2card.o(i._ZN7Sd2Card10setSckRateEh) refers to sd2card.o(i._ZN7Sd2Card5errorEh) for Sd2Card::error(unsigned char)
    sd2card.o(i._ZN7Sd2Card10setSckRateEh) refers to sys.o(i._ZN8SPIClass15setClockDividerEh) for SPIClass::setClockDivider(unsigned char)
    sd2card.o(i._ZN7Sd2Card10setSckRateEh) refers to sys.o(.bss) for SPI
    sd2card.o(i._ZN7Sd2Card10writeBlockEjPKh) refers to sd2card.o(i._ZN7Sd2Card5errorEh) for Sd2Card::error(unsigned char)
    sd2card.o(i._ZN7Sd2Card10writeBlockEjPKh) refers to sd2card.o(i._ZNK7Sd2Card4typeEv) for Sd2Card::type() const
    sd2card.o(i._ZN7Sd2Card10writeBlockEjPKh) refers to sd2card.o(i._ZN7Sd2Card11cardCommandEhj) for Sd2Card::cardCommand(unsigned char, unsigned)
    sd2card.o(i._ZN7Sd2Card10writeBlockEjPKh) refers to sd2card.o(i._ZN7Sd2Card9writeDataEhPKh) for Sd2Card::writeData(unsigned char, const unsigned char*)
    sd2card.o(i._ZN7Sd2Card10writeBlockEjPKh) refers to sd2card.o(i._ZN7Sd2Card11waitNotBusyEt) for Sd2Card::waitNotBusy(unsigned short)
    sd2card.o(i._ZN7Sd2Card10writeBlockEjPKh) refers to sd2card.o(i._Z6spiRecv) for spiRec()
    sd2card.o(i._ZN7Sd2Card10writeBlockEjPKh) refers to sd2card.o(i._ZN7Sd2Card14chipSelectHighEv) for Sd2Card::chipSelectHigh()
    sd2card.o(i._ZN7Sd2Card10writeStartEjj) refers to sd2card.o(i._ZN7Sd2Card5errorEh) for Sd2Card::error(unsigned char)
    sd2card.o(i._ZN7Sd2Card10writeStartEjj) refers to sd2card.o(i._ZN7Sd2Card8cardAcmdEhj) for Sd2Card::cardAcmd(unsigned char, unsigned)
    sd2card.o(i._ZN7Sd2Card10writeStartEjj) refers to sd2card.o(i._ZNK7Sd2Card4typeEv) for Sd2Card::type() const
    sd2card.o(i._ZN7Sd2Card10writeStartEjj) refers to sd2card.o(i._ZN7Sd2Card11cardCommandEhj) for Sd2Card::cardCommand(unsigned char, unsigned)
    sd2card.o(i._ZN7Sd2Card10writeStartEjj) refers to sd2card.o(i._ZN7Sd2Card14chipSelectHighEv) for Sd2Card::chipSelectHigh()
    sd2card.o(i._ZN7Sd2Card11cardCommandEhj) refers to sd2card.o(i._ZN7Sd2Card7readEndEv) for Sd2Card::readEnd()
    sd2card.o(i._ZN7Sd2Card11cardCommandEhj) refers to sd2card.o(i._ZN7Sd2Card13chipSelectLowEv) for Sd2Card::chipSelectLow()
    sd2card.o(i._ZN7Sd2Card11cardCommandEhj) refers to sd2card.o(i._ZN7Sd2Card11waitNotBusyEt) for Sd2Card::waitNotBusy(unsigned short)
    sd2card.o(i._ZN7Sd2Card11cardCommandEhj) refers to sd2card.o(i._Z7spiSendh) for spiSend(unsigned char)
    sd2card.o(i._ZN7Sd2Card11cardCommandEhj) refers to sd2card.o(i._Z6spiRecv) for spiRec()
    sd2card.o(i._ZN7Sd2Card11waitNotBusyEt) refers to sys.o(i.millis) for millis
    sd2card.o(i._ZN7Sd2Card11waitNotBusyEt) refers to sd2card.o(i._Z6spiRecv) for spiRec()
    sd2card.o(i._ZN7Sd2Card12readRegisterEhPv) refers to sd2card.o(i._ZN7Sd2Card11cardCommandEhj) for Sd2Card::cardCommand(unsigned char, unsigned)
    sd2card.o(i._ZN7Sd2Card12readRegisterEhPv) refers to sd2card.o(i._ZN7Sd2Card5errorEh) for Sd2Card::error(unsigned char)
    sd2card.o(i._ZN7Sd2Card12readRegisterEhPv) refers to sd2card.o(i._ZN7Sd2Card14waitStartBlockEv) for Sd2Card::waitStartBlock()
    sd2card.o(i._ZN7Sd2Card12readRegisterEhPv) refers to sd2card.o(i._Z6spiRecv) for spiRec()
    sd2card.o(i._ZN7Sd2Card12readRegisterEhPv) refers to sd2card.o(i._ZN7Sd2Card14chipSelectHighEv) for Sd2Card::chipSelectHigh()
    sd2card.o(i._ZN7Sd2Card13chipSelectLowEv) refers to sys.o(i.digitalWrite) for digitalWrite
    sd2card.o(i._ZN7Sd2Card14chipSelectHighEv) refers to sys.o(i.digitalWrite) for digitalWrite
    sd2card.o(i._ZN7Sd2Card14waitStartBlockEv) refers to sys.o(i.millis) for millis
    sd2card.o(i._ZN7Sd2Card14waitStartBlockEv) refers to sd2card.o(i._ZN7Sd2Card5errorEh) for Sd2Card::error(unsigned char)
    sd2card.o(i._ZN7Sd2Card14waitStartBlockEv) refers to sd2card.o(i._Z6spiRecv) for spiRec()
    sd2card.o(i._ZN7Sd2Card14waitStartBlockEv) refers to sd2card.o(i._ZN7Sd2Card14chipSelectHighEv) for Sd2Card::chipSelectHigh()
    sd2card.o(i._ZN7Sd2Card16partialBlockReadEh) refers to sd2card.o(i._ZN7Sd2Card7readEndEv) for Sd2Card::readEnd()
    sd2card.o(i._ZN7Sd2Card22eraseSingleBlockEnableEv) refers to sd2card.o(i._ZN7Sd2Card7readCSDEP5csd_t) for Sd2Card::readCSD(csd_t*)
    sd2card.o(i._ZN7Sd2Card4initEhh) refers to sys.o(i.millis) for millis
    sd2card.o(i._ZN7Sd2Card4initEhh) refers to sys.o(i.pinMode) for pinMode
    sd2card.o(i._ZN7Sd2Card4initEhh) refers to sd2card.o(i._ZN7Sd2Card14chipSelectHighEv) for Sd2Card::chipSelectHigh()
    sd2card.o(i._ZN7Sd2Card4initEhh) refers to sys.o(i._ZN8SPIClass5beginEv) for SPIClass::begin()
    sd2card.o(i._ZN7Sd2Card4initEhh) refers to sys.o(i._ZN8SPIClass8setClockEj) for SPIClass::setClock(unsigned)
    sd2card.o(i._ZN7Sd2Card4initEhh) refers to sd2card.o(i._Z7spiSendh) for spiSend(unsigned char)
    sd2card.o(i._ZN7Sd2Card4initEhh) refers to sd2card.o(i._ZN7Sd2Card13chipSelectLowEv) for Sd2Card::chipSelectLow()
    sd2card.o(i._ZN7Sd2Card4initEhh) refers to sd2card.o(i._ZN7Sd2Card5errorEh) for Sd2Card::error(unsigned char)
    sd2card.o(i._ZN7Sd2Card4initEhh) refers to sd2card.o(i._ZN7Sd2Card11cardCommandEhj) for Sd2Card::cardCommand(unsigned char, unsigned)
    sd2card.o(i._ZN7Sd2Card4initEhh) refers to sd2card.o(i._ZN7Sd2Card4typeEh) for Sd2Card::type(unsigned char)
    sd2card.o(i._ZN7Sd2Card4initEhh) refers to sd2card.o(i._Z6spiRecv) for spiRec()
    sd2card.o(i._ZN7Sd2Card4initEhh) refers to sd2card.o(i._ZNK7Sd2Card4typeEv) for Sd2Card::type() const
    sd2card.o(i._ZN7Sd2Card4initEhh) refers to sd2card.o(i._ZN7Sd2Card8cardAcmdEhj) for Sd2Card::cardAcmd(unsigned char, unsigned)
    sd2card.o(i._ZN7Sd2Card4initEhh) refers to sys.o(.bss) for SPI
    sd2card.o(i._ZN7Sd2Card5eraseEjj) refers to sd2card.o(i._ZN7Sd2Card22eraseSingleBlockEnableEv) for Sd2Card::eraseSingleBlockEnable()
    sd2card.o(i._ZN7Sd2Card5eraseEjj) refers to sd2card.o(i._ZN7Sd2Card5errorEh) for Sd2Card::error(unsigned char)
    sd2card.o(i._ZN7Sd2Card5eraseEjj) refers to sd2card.o(i._ZN7Sd2Card11cardCommandEhj) for Sd2Card::cardCommand(unsigned char, unsigned)
    sd2card.o(i._ZN7Sd2Card5eraseEjj) refers to sd2card.o(i._ZN7Sd2Card11waitNotBusyEt) for Sd2Card::waitNotBusy(unsigned short)
    sd2card.o(i._ZN7Sd2Card5eraseEjj) refers to sd2card.o(i._ZN7Sd2Card14chipSelectHighEv) for Sd2Card::chipSelectHigh()
    sd2card.o(i._ZN7Sd2Card7readEndEv) refers to sd2card.o(i._Z6spiRecv) for spiRec()
    sd2card.o(i._ZN7Sd2Card7readEndEv) refers to sd2card.o(i._ZN7Sd2Card14chipSelectHighEv) for Sd2Card::chipSelectHigh()
    sd2card.o(i._ZN7Sd2Card8cardSizeEv) refers to sd2card.o(i._ZN7Sd2Card7readCSDEP5csd_t) for Sd2Card::readCSD(csd_t*)
    sd2card.o(i._ZN7Sd2Card8cardSizeEv) refers to sd2card.o(i._ZN7Sd2Card5errorEh) for Sd2Card::error(unsigned char)
    sd2card.o(i._ZN7Sd2Card8readDataEjttPh) refers to sd2card.o(i._ZNK7Sd2Card4typeEv) for Sd2Card::type() const
    sd2card.o(i._ZN7Sd2Card8readDataEjttPh) refers to sd2card.o(i._ZN7Sd2Card11cardCommandEhj) for Sd2Card::cardCommand(unsigned char, unsigned)
    sd2card.o(i._ZN7Sd2Card8readDataEjttPh) refers to sd2card.o(i._ZN7Sd2Card5errorEh) for Sd2Card::error(unsigned char)
    sd2card.o(i._ZN7Sd2Card8readDataEjttPh) refers to sd2card.o(i._ZN7Sd2Card14waitStartBlockEv) for Sd2Card::waitStartBlock()
    sd2card.o(i._ZN7Sd2Card8readDataEjttPh) refers to sd2card.o(i._Z6spiRecv) for spiRec()
    sd2card.o(i._ZN7Sd2Card8readDataEjttPh) refers to sd2card.o(i._ZN7Sd2Card7readEndEv) for Sd2Card::readEnd()
    sd2card.o(i._ZN7Sd2Card8readDataEjttPh) refers to sd2card.o(i._ZN7Sd2Card14chipSelectHighEv) for Sd2Card::chipSelectHigh()
    sd2card.o(i._ZN7Sd2Card9readBlockEjPh) refers to sd2card.o(i._ZN7Sd2Card8readDataEjttPh) for Sd2Card::readData(unsigned, unsigned short, unsigned short, unsigned char*)
    sd2card.o(i._ZN7Sd2Card9writeDataEPKh) refers to sd2card.o(i._ZN7Sd2Card11waitNotBusyEt) for Sd2Card::waitNotBusy(unsigned short)
    sd2card.o(i._ZN7Sd2Card9writeDataEPKh) refers to sd2card.o(i._ZN7Sd2Card5errorEh) for Sd2Card::error(unsigned char)
    sd2card.o(i._ZN7Sd2Card9writeDataEPKh) refers to sd2card.o(i._ZN7Sd2Card14chipSelectHighEv) for Sd2Card::chipSelectHigh()
    sd2card.o(i._ZN7Sd2Card9writeDataEPKh) refers to sd2card.o(i._ZN7Sd2Card9writeDataEhPKh) for Sd2Card::writeData(unsigned char, const unsigned char*)
    sd2card.o(i._ZN7Sd2Card9writeDataEhPKh) refers to sd2card.o(i._Z7spiSendh) for spiSend(unsigned char)
    sd2card.o(i._ZN7Sd2Card9writeDataEhPKh) refers to sd2card.o(i._Z6spiRecv) for spiRec()
    sd2card.o(i._ZN7Sd2Card9writeDataEhPKh) refers to sd2card.o(i._ZN7Sd2Card5errorEh) for Sd2Card::error(unsigned char)
    sd2card.o(i._ZN7Sd2Card9writeDataEhPKh) refers to sd2card.o(i._ZN7Sd2Card14chipSelectHighEv) for Sd2Card::chipSelectHigh()
    sd2card.o(i._ZN7Sd2Card9writeStopEv) refers to sd2card.o(i._ZN7Sd2Card11waitNotBusyEt) for Sd2Card::waitNotBusy(unsigned short)
    sd2card.o(i._ZN7Sd2Card9writeStopEv) refers to sd2card.o(i._Z7spiSendh) for spiSend(unsigned char)
    sd2card.o(i._ZN7Sd2Card9writeStopEv) refers to sd2card.o(i._ZN7Sd2Card14chipSelectHighEv) for Sd2Card::chipSelectHigh()
    sd2card.o(i._ZN7Sd2Card9writeStopEv) refers to sd2card.o(i._ZN7Sd2Card5errorEh) for Sd2Card::error(unsigned char)
    sd2card.o(.ARM.exidx) refers to sd2card.o(i._Z7spiSendh) for i._Z7spiSendh
    sd2card.o(.ARM.exidx) refers to sd2card.o(i._Z6spiRecv) for i._Z6spiRecv
    sd2card.o(.ARM.exidx) refers to sd2card.o(i._ZN7Sd2Card14chipSelectHighEv) for i._ZN7Sd2Card14chipSelectHighEv
    sd2card.o(.ARM.exidx) refers to sd2card.o(i._ZN7Sd2Card14waitStartBlockEv) for i._ZN7Sd2Card14waitStartBlockEv
    sd2card.o(.ARM.exidx) refers to sd2card.o(i._ZN7Sd2Card11waitNotBusyEt) for i._ZN7Sd2Card11waitNotBusyEt
    sd2card.o(.ARM.exidx) refers to sd2card.o(i._ZN7Sd2Card13chipSelectLowEv) for i._ZN7Sd2Card13chipSelectLowEv
    sd2card.o(.ARM.exidx) refers to sd2card.o(i._ZN7Sd2Card7readEndEv) for i._ZN7Sd2Card7readEndEv
    sd2card.o(.ARM.exidx) refers to sd2card.o(i._ZN7Sd2Card11cardCommandEhj) for i._ZN7Sd2Card11cardCommandEhj
    sd2card.o(.ARM.exidx) refers to sd2card.o(i._ZN7Sd2Card12readRegisterEhPv) for i._ZN7Sd2Card12readRegisterEhPv
    sd2card.o(.ARM.exidx) refers to sd2card.o(i._ZN7Sd2Card8cardSizeEv) for i._ZN7Sd2Card8cardSizeEv
    sd2card.o(.ARM.exidx) refers to sd2card.o(i._ZN7Sd2Card22eraseSingleBlockEnableEv) for i._ZN7Sd2Card22eraseSingleBlockEnableEv
    sd2card.o(.ARM.exidx) refers to sd2card.o(i._ZN7Sd2Card5eraseEjj) for i._ZN7Sd2Card5eraseEjj
    sd2card.o(.ARM.exidx) refers to sd2card.o(i._ZN7Sd2Card4initEhh) for i._ZN7Sd2Card4initEhh
    sd2card.o(.ARM.exidx) refers to sd2card.o(i._ZN7Sd2Card16partialBlockReadEh) for i._ZN7Sd2Card16partialBlockReadEh
    sd2card.o(.ARM.exidx) refers to sd2card.o(i._ZN7Sd2Card8readDataEjttPh) for i._ZN7Sd2Card8readDataEjttPh
    sd2card.o(.ARM.exidx) refers to sd2card.o(i._ZN7Sd2Card9readBlockEjPh) for i._ZN7Sd2Card9readBlockEjPh
    sd2card.o(.ARM.exidx) refers to sd2card.o(i._ZN7Sd2Card10setSckRateEh) for i._ZN7Sd2Card10setSckRateEh
    sd2card.o(.ARM.exidx) refers to sd2card.o(i._ZN7Sd2Card9writeDataEhPKh) for i._ZN7Sd2Card9writeDataEhPKh
    sd2card.o(.ARM.exidx) refers to sd2card.o(i._ZN7Sd2Card10writeBlockEjPKh) for i._ZN7Sd2Card10writeBlockEjPKh
    sd2card.o(.ARM.exidx) refers to sd2card.o(i._ZN7Sd2Card9writeDataEPKh) for i._ZN7Sd2Card9writeDataEPKh
    sd2card.o(.ARM.exidx) refers to sd2card.o(i._ZN7Sd2Card10writeStartEjj) for i._ZN7Sd2Card10writeStartEjj
    sd2card.o(.ARM.exidx) refers to sd2card.o(i._ZN7Sd2Card9writeStopEv) for i._ZN7Sd2Card9writeStopEv
    sdfile.o(i._ZN6SdFile10addClusterEv) refers to sdvolume.o(i._ZN8SdVolume15allocContiguousEjPj) for SdVolume::allocContiguous(unsigned, unsigned*)
    sdfile.o(i._ZN6SdFile12printDirNameERK14directoryEntryh) refers to print.o(i._ZN5Print5printEc) for Print::print(char)
    sdfile.o(i._ZN6SdFile12printDirNameERK14directoryEntryh) refers to usartclass.o(i._ZN10USARTClass5writeEh) for USARTClass::write(unsigned char)
    sdfile.o(i._ZN6SdFile12printDirNameERK14directoryEntryh) refers to sdfile.o(i._Z13DIR_IS_SUBDIRPK14directoryEntry) for DIR_IS_SUBDIR(const directoryEntry*)
    sdfile.o(i._ZN6SdFile12printDirNameERK14directoryEntryh) refers to sys.o(.bss) for Serial
    sdfile.o(i._ZN6SdFile12printFatDateEt) refers to print.o(i._ZN5Print5printEii) for Print::print(int, int)
    sdfile.o(i._ZN6SdFile12printFatDateEt) refers to print.o(i._ZN5Print5printEc) for Print::print(char)
    sdfile.o(i._ZN6SdFile12printFatDateEt) refers to sdfile.o(i._ZN6SdFile14printTwoDigitsEh) for SdFile::printTwoDigits(unsigned char)
    sdfile.o(i._ZN6SdFile12printFatDateEt) refers to sys.o(.bss) for Serial
    sdfile.o(i._ZN6SdFile12printFatTimeEt) refers to sdfile.o(i._ZN6SdFile14printTwoDigitsEh) for SdFile::printTwoDigits(unsigned char)
    sdfile.o(i._ZN6SdFile12printFatTimeEt) refers to print.o(i._ZN5Print5printEc) for Print::print(char)
    sdfile.o(i._ZN6SdFile12printFatTimeEt) refers to sys.o(.bss) for Serial
    sdfile.o(i._ZN6SdFile12readDirCacheEv) refers to sdfile.o(i._ZNK6SdFile5isDirEv) for SdFile::isDir() const
    sdfile.o(i._ZN6SdFile12readDirCacheEv) refers to sdfile.o(i._ZN6SdFile4readEPvt) for SdFile::read(void*, unsigned short)
    sdfile.o(i._ZN6SdFile12readDirCacheEv) refers to sdvolume.o(.bss) for SdVolume::cacheBuffer_
    sdfile.o(i._ZN6SdFile13addDirClusterEv) refers to sdfile.o(i._ZN6SdFile10addClusterEv) for SdFile::addCluster()
    sdfile.o(i._ZN6SdFile13addDirClusterEv) refers to sdfile.o(i._ZNK8SdVolume17clusterStartBlockEj) for SdVolume::clusterStartBlock(unsigned) const
    sdfile.o(i._ZN6SdFile13addDirClusterEv) refers to sdvolume.o(i._ZN8SdVolume14cacheZeroBlockEj) for SdVolume::cacheZeroBlock(unsigned)
    sdfile.o(i._ZN6SdFile13cacheDirEntryEh) refers to sdvolume.o(i._ZN8SdVolume13cacheRawBlockEjh) for SdVolume::cacheRawBlock(unsigned, unsigned char)
    sdfile.o(i._ZN6SdFile13cacheDirEntryEh) refers to sdvolume.o(.bss) for SdVolume::cacheBuffer_
    sdfile.o(i._ZN6SdFile14printTwoDigitsEh) refers to print.o(i._ZN5Print5printEPKc) for Print::print(const char*)
    sdfile.o(i._ZN6SdFile14printTwoDigitsEh) refers to sys.o(.bss) for Serial
    sdfile.o(i._ZN6SdFile15contiguousRangeEPjS0_) refers to sdvolume.o(i._ZNK8SdVolume6fatGetEjPj) for SdVolume::fatGet(unsigned, unsigned*) const
    sdfile.o(i._ZN6SdFile15contiguousRangeEPjS0_) refers to sdfile.o(i._ZNK8SdVolume5isEOCEj) for SdVolume::isEOC(unsigned) const
    sdfile.o(i._ZN6SdFile15contiguousRangeEPjS0_) refers to sdfile.o(i._ZNK8SdVolume17clusterStartBlockEj) for SdVolume::clusterStartBlock(unsigned) const
    sdfile.o(i._ZN6SdFile15openCachedEntryEhh) refers to sdfile.o(i._Z13DIR_IS_SUBDIRPK14directoryEntry) for DIR_IS_SUBDIR(const directoryEntry*)
    sdfile.o(i._ZN6SdFile15openCachedEntryEhh) refers to sdvolume.o(i._ZNK8SdVolume9chainSizeEjPj) for SdVolume::chainSize(unsigned, unsigned*) const
    sdfile.o(i._ZN6SdFile15openCachedEntryEhh) refers to sdfile.o(i._ZN6SdFile8truncateEj) for SdFile::truncate(unsigned)
    sdfile.o(i._ZN6SdFile15openCachedEntryEhh) refers to sdvolume.o(.bss) for SdVolume::cacheBuffer_
    sdfile.o(i._ZN6SdFile15openCachedEntryEhh) refers to sdvolume.o(.data) for SdVolume::cacheBlockNumber_
    sdfile.o(i._ZN6SdFile16createContiguousEPS_PKcj) refers to sdfile.o(i._ZN6SdFile4openEPS_PKch) for SdFile::open(SdFile*, const char*, unsigned char)
    sdfile.o(i._ZN6SdFile16createContiguousEPS_PKcj) refers to sdvolume.o(i._ZN8SdVolume15allocContiguousEjPj) for SdVolume::allocContiguous(unsigned, unsigned*)
    sdfile.o(i._ZN6SdFile16createContiguousEPS_PKcj) refers to sdfile.o(i._ZN6SdFile6removeEv) for SdFile::remove()
    sdfile.o(i._ZN6SdFile16createContiguousEPS_PKcj) refers to sdfile.o(i._ZN6SdFile4syncEv) for SdFile::sync()
    sdfile.o(i._ZN6SdFile2lsEhh) refers to sdfile.o(i._ZN6SdFile6rewindEv) for SdFile::rewind()
    sdfile.o(i._ZN6SdFile2lsEhh) refers to sdfile.o(i._Z21DIR_IS_FILE_OR_SUBDIRPK14directoryEntry) for DIR_IS_FILE_OR_SUBDIR(const directoryEntry*)
    sdfile.o(i._ZN6SdFile2lsEhh) refers to print.o(i._ZN5Print5printEc) for Print::print(char)
    sdfile.o(i._ZN6SdFile2lsEhh) refers to sdfile.o(i._ZN6SdFile12printDirNameERK14directoryEntryh) for SdFile::printDirName(const directoryEntry&, unsigned char)
    sdfile.o(i._ZN6SdFile2lsEhh) refers to sdfile.o(i._ZN6SdFile12printFatDateEt) for SdFile::printFatDate(unsigned short)
    sdfile.o(i._ZN6SdFile2lsEhh) refers to sdfile.o(i._ZN6SdFile12printFatTimeEt) for SdFile::printFatTime(unsigned short)
    sdfile.o(i._ZN6SdFile2lsEhh) refers to sdfile.o(i._Z13DIR_IS_SUBDIRPK14directoryEntry) for DIR_IS_SUBDIR(const directoryEntry*)
    sdfile.o(i._ZN6SdFile2lsEhh) refers to print.o(i._ZN5Print5printEji) for Print::print(unsigned, int)
    sdfile.o(i._ZN6SdFile2lsEhh) refers to print.o(i._ZN5Print7printlnEv) for Print::println()
    sdfile.o(i._ZN6SdFile2lsEhh) refers to sd.o(i._ZN6SdFileC1Ev) for SdFile::SdFile()
    sdfile.o(i._ZN6SdFile2lsEhh) refers to sdfile.o(i._ZN6SdFile4openEPS_th) for SdFile::open(SdFile*, unsigned short, unsigned char)
    sdfile.o(i._ZN6SdFile2lsEhh) refers to sdfile.o(i._ZN6SdFile7seekSetEj) for SdFile::seekSet(unsigned)
    sdfile.o(i._ZN6SdFile2lsEhh) refers to sdfile.o(i._ZN6SdFile12readDirCacheEv) for SdFile::readDirCache()
    sdfile.o(i._ZN6SdFile2lsEhh) refers to sys.o(.bss) for Serial
    sdfile.o(i._ZN6SdFile4openEPS_PKch) refers to sd.o(i._ZNK6SdFile6isOpenEv) for SdFile::isOpen() const
    sdfile.o(i._ZN6SdFile4openEPS_PKch) refers to sdfile.o(i._ZN6SdFile10make83NameEPKcPh) for SdFile::make83Name(const char*, unsigned char*)
    sdfile.o(i._ZN6SdFile4openEPS_PKch) refers to sdfile.o(i._ZN6SdFile6rewindEv) for SdFile::rewind()
    sdfile.o(i._ZN6SdFile4openEPS_PKch) refers to sdfile.o(i._ZN6SdFile12readDirCacheEv) for SdFile::readDirCache()
    sdfile.o(i._ZN6SdFile4openEPS_PKch) refers to memcmp.o(.text) for memcmp
    sdfile.o(i._ZN6SdFile4openEPS_PKch) refers to sdfile.o(i._ZN6SdFile15openCachedEntryEhh) for SdFile::openCachedEntry(unsigned char, unsigned char)
    sdfile.o(i._ZN6SdFile4openEPS_PKch) refers to sdfile.o(i._ZN6SdFile13cacheDirEntryEh) for SdFile::cacheDirEntry(unsigned char)
    sdfile.o(i._ZN6SdFile4openEPS_PKch) refers to sdfile.o(i._ZN6SdFile13addDirClusterEv) for SdFile::addDirCluster()
    sdfile.o(i._ZN6SdFile4openEPS_PKch) refers to memseta.o(.text) for __aeabi_memclr
    sdfile.o(i._ZN6SdFile4openEPS_PKch) refers to sdvolume.o(i._ZN8SdVolume10cacheFlushEv) for SdVolume::cacheFlush()
    sdfile.o(i._ZN6SdFile4openEPS_PKch) refers to sdvolume.o(.data) for SdVolume::cacheBlockNumber_
    sdfile.o(i._ZN6SdFile4openEPS_PKch) refers to sdvolume.o(.bss) for SdVolume::cacheBuffer_
    sdfile.o(i._ZN6SdFile4openEPS_PKch) refers to sdfile.o(.data) for SdFile::dateTime_
    sdfile.o(i._ZN6SdFile4openEPS_th) refers to sd.o(i._ZNK6SdFile6isOpenEv) for SdFile::isOpen() const
    sdfile.o(i._ZN6SdFile4openEPS_th) refers to sdfile.o(i._ZN6SdFile7seekSetEj) for SdFile::seekSet(unsigned)
    sdfile.o(i._ZN6SdFile4openEPS_th) refers to sdfile.o(i._ZN6SdFile12readDirCacheEv) for SdFile::readDirCache()
    sdfile.o(i._ZN6SdFile4openEPS_th) refers to sdfile.o(i._ZN6SdFile15openCachedEntryEhh) for SdFile::openCachedEntry(unsigned char, unsigned char)
    sdfile.o(i._ZN6SdFile4readEPvt) refers to sd.o(i._ZNK6SdFile6isOpenEv) for SdFile::isOpen() const
    sdfile.o(i._ZN6SdFile4readEPvt) refers to sdfile.o(i._ZNK8SdVolume14blockOfClusterEj) for SdVolume::blockOfCluster(unsigned) const
    sdfile.o(i._ZN6SdFile4readEPvt) refers to sdvolume.o(i._ZNK8SdVolume6fatGetEjPj) for SdVolume::fatGet(unsigned, unsigned*) const
    sdfile.o(i._ZN6SdFile4readEPvt) refers to sdfile.o(i._ZNK8SdVolume17clusterStartBlockEj) for SdVolume::clusterStartBlock(unsigned) const
    sdfile.o(i._ZN6SdFile4readEPvt) refers to sd2card.o(i._ZN7Sd2Card8readDataEjttPh) for Sd2Card::readData(unsigned, unsigned short, unsigned short, unsigned char*)
    sdfile.o(i._ZN6SdFile4readEPvt) refers to sdvolume.o(i._ZN8SdVolume13cacheRawBlockEjh) for SdVolume::cacheRawBlock(unsigned, unsigned char)
    sdfile.o(i._ZN6SdFile4readEPvt) refers to sdvolume.o(.data) for SdVolume::cacheBlockNumber_
    sdfile.o(i._ZN6SdFile4readEPvt) refers to sdvolume.o(.bss) for SdVolume::cacheBuffer_
    sdfile.o(i._ZN6SdFile4syncEv) refers to sd.o(i._ZNK6SdFile6isOpenEv) for SdFile::isOpen() const
    sdfile.o(i._ZN6SdFile4syncEv) refers to sdfile.o(i._ZN6SdFile13cacheDirEntryEh) for SdFile::cacheDirEntry(unsigned char)
    sdfile.o(i._ZN6SdFile4syncEv) refers to sdfile.o(i._ZNK6SdFile5isDirEv) for SdFile::isDir() const
    sdfile.o(i._ZN6SdFile4syncEv) refers to sdvolume.o(i._ZN8SdVolume10cacheFlushEv) for SdVolume::cacheFlush()
    sdfile.o(i._ZN6SdFile4syncEv) refers to sdfile.o(.data) for SdFile::dateTime_
    sdfile.o(i._ZN6SdFile5closeEv) refers to sdfile.o(i._ZN6SdFile4syncEv) for SdFile::sync()
    sdfile.o(i._ZN6SdFile5rmDirEv) refers to sdfile.o(i._ZNK6SdFile8isSubDirEv) for SdFile::isSubDir() const
    sdfile.o(i._ZN6SdFile5rmDirEv) refers to sdfile.o(i._ZN6SdFile6rewindEv) for SdFile::rewind()
    sdfile.o(i._ZN6SdFile5rmDirEv) refers to sdfile.o(i._ZN6SdFile12readDirCacheEv) for SdFile::readDirCache()
    sdfile.o(i._ZN6SdFile5rmDirEv) refers to sdfile.o(i._Z21DIR_IS_FILE_OR_SUBDIRPK14directoryEntry) for DIR_IS_FILE_OR_SUBDIR(const directoryEntry*)
    sdfile.o(i._ZN6SdFile5rmDirEv) refers to sdfile.o(i._ZN6SdFile6removeEv) for SdFile::remove()
    sdfile.o(i._ZN6SdFile5writeEPKc) refers to strlen.o(.text) for strlen
    sdfile.o(i._ZN6SdFile5writeEPKc) refers to sdfile.o(i._ZN6SdFile5writeEPKvt) for SdFile::write(const void*, unsigned short)
    sdfile.o(i._ZN6SdFile5writeEPKvt) refers to sdfile.o(i._ZNK6SdFile6isFileEv) for SdFile::isFile() const
    sdfile.o(i._ZN6SdFile5writeEPKvt) refers to sdfile.o(i._ZN6SdFile7seekSetEj) for SdFile::seekSet(unsigned)
    sdfile.o(i._ZN6SdFile5writeEPKvt) refers to sdfile.o(i._ZNK8SdVolume14blockOfClusterEj) for SdVolume::blockOfCluster(unsigned) const
    sdfile.o(i._ZN6SdFile5writeEPKvt) refers to sdfile.o(i._ZN6SdFile10addClusterEv) for SdFile::addCluster()
    sdfile.o(i._ZN6SdFile5writeEPKvt) refers to sdvolume.o(i._ZNK8SdVolume6fatGetEjPj) for SdVolume::fatGet(unsigned, unsigned*) const
    sdfile.o(i._ZN6SdFile5writeEPKvt) refers to sdfile.o(i._ZNK8SdVolume5isEOCEj) for SdVolume::isEOC(unsigned) const
    sdfile.o(i._ZN6SdFile5writeEPKvt) refers to sdfile.o(i._ZNK8SdVolume17clusterStartBlockEj) for SdVolume::clusterStartBlock(unsigned) const
    sdfile.o(i._ZN6SdFile5writeEPKvt) refers to sd2card.o(i._ZN7Sd2Card10writeBlockEjPKh) for Sd2Card::writeBlock(unsigned, const unsigned char*)
    sdfile.o(i._ZN6SdFile5writeEPKvt) refers to sdvolume.o(i._ZN8SdVolume10cacheFlushEv) for SdVolume::cacheFlush()
    sdfile.o(i._ZN6SdFile5writeEPKvt) refers to sdfile.o(i._ZN8SdVolume13cacheSetDirtyEv) for SdVolume::cacheSetDirty()
    sdfile.o(i._ZN6SdFile5writeEPKvt) refers to sdvolume.o(i._ZN8SdVolume13cacheRawBlockEjh) for SdVolume::cacheRawBlock(unsigned, unsigned char)
    sdfile.o(i._ZN6SdFile5writeEPKvt) refers to sdfile.o(i._ZN6SdFile4syncEv) for SdFile::sync()
    sdfile.o(i._ZN6SdFile5writeEPKvt) refers to sdvolume.o(.data) for SdVolume::cacheBlockNumber_
    sdfile.o(i._ZN6SdFile5writeEPKvt) refers to sdvolume.o(.bss) for SdVolume::cacheBuffer_
    sdfile.o(i._ZN6SdFile5writeEPKvt) refers to sdfile.o(.data) for SdFile::dateTime_
    sdfile.o(i._ZN6SdFile5writeEh) refers to sdfile.o(i._ZN6SdFile5writeEPKvt) for SdFile::write(const void*, unsigned short)
    sdfile.o(i._ZN6SdFile6removeEPS_PKc) refers to sd.o(i._ZN6SdFileC1Ev) for SdFile::SdFile()
    sdfile.o(i._ZN6SdFile6removeEPS_PKc) refers to sdfile.o(i._ZN6SdFile4openEPS_PKch) for SdFile::open(SdFile*, const char*, unsigned char)
    sdfile.o(i._ZN6SdFile6removeEPS_PKc) refers to sdfile.o(i._ZN6SdFile6removeEv) for SdFile::remove()
    sdfile.o(i._ZN6SdFile6removeEv) refers to sdfile.o(i._ZN6SdFile8truncateEj) for SdFile::truncate(unsigned)
    sdfile.o(i._ZN6SdFile6removeEv) refers to sdfile.o(i._ZN6SdFile13cacheDirEntryEh) for SdFile::cacheDirEntry(unsigned char)
    sdfile.o(i._ZN6SdFile6removeEv) refers to sdvolume.o(i._ZN8SdVolume10cacheFlushEv) for SdVolume::cacheFlush()
    sdfile.o(i._ZN6SdFile7makeDirEPS_PKc) refers to sdfile.o(i._ZN6SdFile4openEPS_PKch) for SdFile::open(SdFile*, const char*, unsigned char)
    sdfile.o(i._ZN6SdFile7makeDirEPS_PKc) refers to sdfile.o(i._ZN6SdFile13addDirClusterEv) for SdFile::addDirCluster()
    sdfile.o(i._ZN6SdFile7makeDirEPS_PKc) refers to sdfile.o(i._ZN6SdFile4syncEv) for SdFile::sync()
    sdfile.o(i._ZN6SdFile7makeDirEPS_PKc) refers to sdfile.o(i._ZN6SdFile13cacheDirEntryEh) for SdFile::cacheDirEntry(unsigned char)
    sdfile.o(i._ZN6SdFile7makeDirEPS_PKc) refers to memmovea.o(.text) for __aeabi_memcpy
    sdfile.o(i._ZN6SdFile7makeDirEPS_PKc) refers to sdfile.o(i._ZNK8SdVolume17clusterStartBlockEj) for SdVolume::clusterStartBlock(unsigned) const
    sdfile.o(i._ZN6SdFile7makeDirEPS_PKc) refers to sdvolume.o(i._ZN8SdVolume13cacheRawBlockEjh) for SdVolume::cacheRawBlock(unsigned, unsigned char)
    sdfile.o(i._ZN6SdFile7makeDirEPS_PKc) refers to sdfile.o(i._ZNK6SdFile6isRootEv) for SdFile::isRoot() const
    sdfile.o(i._ZN6SdFile7makeDirEPS_PKc) refers to sdvolume.o(i._ZN8SdVolume10cacheFlushEv) for SdVolume::cacheFlush()
    sdfile.o(i._ZN6SdFile7makeDirEPS_PKc) refers to sdvolume.o(.bss) for SdVolume::cacheBuffer_
    sdfile.o(i._ZN6SdFile7readDirEP14directoryEntry) refers to sdfile.o(i._ZNK6SdFile5isDirEv) for SdFile::isDir() const
    sdfile.o(i._ZN6SdFile7readDirEP14directoryEntry) refers to sdfile.o(i._Z21DIR_IS_FILE_OR_SUBDIRPK14directoryEntry) for DIR_IS_FILE_OR_SUBDIR(const directoryEntry*)
    sdfile.o(i._ZN6SdFile7readDirEP14directoryEntry) refers to sdfile.o(i._ZN6SdFile4readEPvt) for SdFile::read(void*, unsigned short)
    sdfile.o(i._ZN6SdFile7seekSetEj) refers to sd.o(i._ZNK6SdFile6isOpenEv) for SdFile::isOpen() const
    sdfile.o(i._ZN6SdFile7seekSetEj) refers to sdvolume.o(i._ZNK8SdVolume6fatGetEjPj) for SdVolume::fatGet(unsigned, unsigned*) const
    sdfile.o(i._ZN6SdFile8dirEntryEP14directoryEntry) refers to sdfile.o(i._ZN6SdFile4syncEv) for SdFile::sync()
    sdfile.o(i._ZN6SdFile8dirEntryEP14directoryEntry) refers to sdfile.o(i._ZN6SdFile13cacheDirEntryEh) for SdFile::cacheDirEntry(unsigned char)
    sdfile.o(i._ZN6SdFile8dirEntryEP14directoryEntry) refers to memmovea.o(.text) for __aeabi_memcpy
    sdfile.o(i._ZN6SdFile8openRootEP8SdVolume) refers to sd.o(i._ZNK6SdFile6isOpenEv) for SdFile::isOpen() const
    sdfile.o(i._ZN6SdFile8openRootEP8SdVolume) refers to sdvolume.o(i._ZNK8SdVolume9chainSizeEjPj) for SdVolume::chainSize(unsigned, unsigned*) const
    sdfile.o(i._ZN6SdFile8rmRfStarEv) refers to sdfile.o(i._ZN6SdFile6rewindEv) for SdFile::rewind()
    sdfile.o(i._ZN6SdFile8rmRfStarEv) refers to sd.o(i._ZN6SdFileC1Ev) for SdFile::SdFile()
    sdfile.o(i._ZN6SdFile8rmRfStarEv) refers to sdfile.o(i._ZN6SdFile12readDirCacheEv) for SdFile::readDirCache()
    sdfile.o(i._ZN6SdFile8rmRfStarEv) refers to sdfile.o(i._Z21DIR_IS_FILE_OR_SUBDIRPK14directoryEntry) for DIR_IS_FILE_OR_SUBDIR(const directoryEntry*)
    sdfile.o(i._ZN6SdFile8rmRfStarEv) refers to sdfile.o(i._ZN6SdFile4openEPS_th) for SdFile::open(SdFile*, unsigned short, unsigned char)
    sdfile.o(i._ZN6SdFile8rmRfStarEv) refers to sdfile.o(i._ZNK6SdFile8isSubDirEv) for SdFile::isSubDir() const
    sdfile.o(i._ZN6SdFile8rmRfStarEv) refers to sdfile.o(i._ZN6SdFile6removeEv) for SdFile::remove()
    sdfile.o(i._ZN6SdFile8rmRfStarEv) refers to sdfile.o(i._ZN6SdFile7seekSetEj) for SdFile::seekSet(unsigned)
    sdfile.o(i._ZN6SdFile8rmRfStarEv) refers to sdfile.o(i._ZNK6SdFile6isRootEv) for SdFile::isRoot() const
    sdfile.o(i._ZN6SdFile8rmRfStarEv) refers to sdfile.o(i._ZN6SdFile5rmDirEv) for SdFile::rmDir()
    sdfile.o(i._ZN6SdFile8truncateEj) refers to sdfile.o(i._ZNK6SdFile6isFileEv) for SdFile::isFile() const
    sdfile.o(i._ZN6SdFile8truncateEj) refers to sdfile.o(i._ZN6SdFile7seekSetEj) for SdFile::seekSet(unsigned)
    sdfile.o(i._ZN6SdFile8truncateEj) refers to sdvolume.o(i._ZN8SdVolume9freeChainEj) for SdVolume::freeChain(unsigned)
    sdfile.o(i._ZN6SdFile8truncateEj) refers to sdvolume.o(i._ZNK8SdVolume6fatGetEjPj) for SdVolume::fatGet(unsigned, unsigned*) const
    sdfile.o(i._ZN6SdFile8truncateEj) refers to sdfile.o(i._ZNK8SdVolume5isEOCEj) for SdVolume::isEOC(unsigned) const
    sdfile.o(i._ZN6SdFile8truncateEj) refers to sdvolume.o(i._ZN8SdVolume6fatPutEjj) for SdVolume::fatPut(unsigned, unsigned)
    sdfile.o(i._ZN6SdFile8truncateEj) refers to sdfile.o(i._ZN6SdFile4syncEv) for SdFile::sync()
    sdfile.o(i._ZN6SdFile9timestampEhthhhhh) refers to sd.o(i._ZNK6SdFile6isOpenEv) for SdFile::isOpen() const
    sdfile.o(i._ZN6SdFile9timestampEhthhhhh) refers to sdfile.o(i._ZN6SdFile13cacheDirEntryEh) for SdFile::cacheDirEntry(unsigned char)
    sdfile.o(i._ZN6SdFile9timestampEhthhhhh) refers to sdfile.o(i._ZN8SdVolume13cacheSetDirtyEv) for SdVolume::cacheSetDirty()
    sdfile.o(i._ZN6SdFile9timestampEhthhhhh) refers to sdfile.o(i._ZN6SdFile4syncEv) for SdFile::sync()
    sdfile.o(.ARM.exidx) refers to sdfile.o(i._ZN6SdFile13cacheDirEntryEh) for i._ZN6SdFile13cacheDirEntryEh
    sdfile.o(.ARM.exidx) refers to sdfile.o(i._ZN6SdFile4syncEv) for i._ZN6SdFile4syncEv
    sdfile.o(.ARM.exidx) refers to sdfile.o(i._ZN6SdFile5closeEv) for i._ZN6SdFile5closeEv
    sdfile.o(.ARM.exidx) refers to sdfile.o(i._ZN6SdFile15contiguousRangeEPjS0_) for i._ZN6SdFile15contiguousRangeEPjS0_
    sdfile.o(.ARM.exidx) refers to sdfile.o(i._ZN6SdFile7seekSetEj) for i._ZN6SdFile7seekSetEj
    sdfile.o(.ARM.exidx) refers to sdfile.o(i._ZN6SdFile8truncateEj) for i._ZN6SdFile8truncateEj
    sdfile.o(.ARM.exidx) refers to sdfile.o(i._ZN6SdFile6removeEv) for i._ZN6SdFile6removeEv
    sdfile.o(.ARM.exidx) refers to sdfile.o(i._ZN6SdFile15openCachedEntryEhh) for i._ZN6SdFile15openCachedEntryEhh
    sdfile.o(.ARM.exidx) refers to sdfile.o(i._ZN6SdFile10addClusterEv) for i._ZN6SdFile10addClusterEv
    sdfile.o(.ARM.exidx) refers to sdfile.o(i._ZN6SdFile13addDirClusterEv) for i._ZN6SdFile13addDirClusterEv
    sdfile.o(.ARM.exidx) refers to sdfile.o(i._ZN6SdFile4readEPvt) for i._ZN6SdFile4readEPvt
    sdfile.o(.ARM.exidx) refers to sdfile.o(i._ZN6SdFile12readDirCacheEv) for i._ZN6SdFile12readDirCacheEv
    sdfile.o(.ARM.exidx) refers to sdfile.o(i._ZN6SdFile10make83NameEPKcPh) for i._ZN6SdFile10make83NameEPKcPh
    sdfile.o(.ARM.exidx) refers to sdfile.o(i._ZN6SdFile4openEPS_PKch) for i._ZN6SdFile4openEPS_PKch
    sdfile.o(.ARM.exidx) refers to sdfile.o(i._ZN6SdFile16createContiguousEPS_PKcj) for i._ZN6SdFile16createContiguousEPS_PKcj
    sdfile.o(.ARM.exidx) refers to sdfile.o(i._ZN6SdFile8dirEntryEP14directoryEntry) for i._ZN6SdFile8dirEntryEP14directoryEntry
    sdfile.o(.ARM.exidx) refers to sdfile.o(i._ZN6SdFile7dirNameERK14directoryEntryPc) for i._ZN6SdFile7dirNameERK14directoryEntryPc
    sdfile.o(.ARM.exidx) refers to sdfile.o(i._ZN6SdFile4openEPS_th) for i._ZN6SdFile4openEPS_th
    sdfile.o(.ARM.exidx) refers to sdfile.o(i._ZN6SdFile14printTwoDigitsEh) for i._ZN6SdFile14printTwoDigitsEh
    sdfile.o(.ARM.exidx) refers to sdfile.o(i._ZN6SdFile12printFatTimeEt) for i._ZN6SdFile12printFatTimeEt
    sdfile.o(.ARM.exidx) refers to sdfile.o(i._ZN6SdFile12printFatDateEt) for i._ZN6SdFile12printFatDateEt
    sdfile.o(.ARM.exidx) refers to sdfile.o(i._ZN6SdFile12printDirNameERK14directoryEntryh) for i._ZN6SdFile12printDirNameERK14directoryEntryh
    sdfile.o(.ARM.exidx) refers to sdfile.o(i._ZN6SdFile2lsEhh) for i._ZN6SdFile2lsEhh
    sdfile.o(.ARM.exidx) refers to sdfile.o(i._ZN6SdFile7makeDirEPS_PKc) for i._ZN6SdFile7makeDirEPS_PKc
    sdfile.o(.ARM.exidx) refers to sdfile.o(i._ZN6SdFile8openRootEP8SdVolume) for i._ZN6SdFile8openRootEP8SdVolume
    sdfile.o(.ARM.exidx) refers to sdfile.o(i._ZN6SdFile7readDirEP14directoryEntry) for i._ZN6SdFile7readDirEP14directoryEntry
    sdfile.o(.ARM.exidx) refers to sdfile.o(i._ZN6SdFile6removeEPS_PKc) for i._ZN6SdFile6removeEPS_PKc
    sdfile.o(.ARM.exidx) refers to sdfile.o(i._ZN6SdFile5rmDirEv) for i._ZN6SdFile5rmDirEv
    sdfile.o(.ARM.exidx) refers to sdfile.o(i._ZN6SdFile8rmRfStarEv) for i._ZN6SdFile8rmRfStarEv
    sdfile.o(.ARM.exidx) refers to sdfile.o(i._ZN6SdFile9timestampEhthhhhh) for i._ZN6SdFile9timestampEhthhhhh
    sdfile.o(.ARM.exidx) refers to sdfile.o(i._ZN6SdFile5writeEPKvt) for i._ZN6SdFile5writeEPKvt
    sdfile.o(.ARM.exidx) refers to sdfile.o(i._ZN6SdFile5writeEh) for i._ZN6SdFile5writeEh
    sdfile.o(.ARM.exidx) refers to sdfile.o(i._ZN6SdFile5writeEPKc) for i._ZN6SdFile5writeEPKc
    sdfile.o(.ARM.exidx) refers to sdfile.o(i._Z13DIR_IS_SUBDIRPK14directoryEntry) for i._Z13DIR_IS_SUBDIRPK14directoryEntry
    sdfile.o(.ARM.exidx) refers to sdfile.o(i._Z21DIR_IS_FILE_OR_SUBDIRPK14directoryEntry) for i._Z21DIR_IS_FILE_OR_SUBDIRPK14directoryEntry
    sdvolume.o(i._ZN8SdVolume10cacheFlushEv) refers to sd2card.o(i._ZN7Sd2Card10writeBlockEjPKh) for Sd2Card::writeBlock(unsigned, const unsigned char*)
    sdvolume.o(i._ZN8SdVolume10cacheFlushEv) refers to sdvolume.o(.data) for SdVolume::cacheDirty_
    sdvolume.o(i._ZN8SdVolume10cacheFlushEv) refers to sdvolume.o(.bss) for SdVolume::cacheBuffer_
    sdvolume.o(i._ZN8SdVolume13cacheRawBlockEjh) refers to sdvolume.o(i._ZN8SdVolume10cacheFlushEv) for SdVolume::cacheFlush()
    sdvolume.o(i._ZN8SdVolume13cacheRawBlockEjh) refers to sd2card.o(i._ZN7Sd2Card9readBlockEjPh) for Sd2Card::readBlock(unsigned, unsigned char*)
    sdvolume.o(i._ZN8SdVolume13cacheRawBlockEjh) refers to sdvolume.o(.data) for SdVolume::cacheBlockNumber_
    sdvolume.o(i._ZN8SdVolume13cacheRawBlockEjh) refers to sdvolume.o(.bss) for SdVolume::cacheBuffer_
    sdvolume.o(i._ZN8SdVolume14cacheZeroBlockEj) refers to sdvolume.o(i._ZN8SdVolume10cacheFlushEv) for SdVolume::cacheFlush()
    sdvolume.o(i._ZN8SdVolume14cacheZeroBlockEj) refers to sdfile.o(i._ZN8SdVolume13cacheSetDirtyEv) for SdVolume::cacheSetDirty()
    sdvolume.o(i._ZN8SdVolume14cacheZeroBlockEj) refers to sdvolume.o(.bss) for SdVolume::cacheBuffer_
    sdvolume.o(i._ZN8SdVolume14cacheZeroBlockEj) refers to sdvolume.o(.data) for SdVolume::cacheBlockNumber_
    sdvolume.o(i._ZN8SdVolume15allocContiguousEjPj) refers to sdvolume.o(i._ZNK8SdVolume6fatGetEjPj) for SdVolume::fatGet(unsigned, unsigned*) const
    sdvolume.o(i._ZN8SdVolume15allocContiguousEjPj) refers to sdvolume.o(i._ZN8SdVolume6fatPutEjj) for SdVolume::fatPut(unsigned, unsigned)
    sdvolume.o(i._ZN8SdVolume4initEP7Sd2Cardh) refers to sdvolume.o(i._ZN8SdVolume13cacheRawBlockEjh) for SdVolume::cacheRawBlock(unsigned, unsigned char)
    sdvolume.o(i._ZN8SdVolume4initEP7Sd2Cardh) refers to sdvolume.o(.data) for SdVolume::sdCard_
    sdvolume.o(i._ZN8SdVolume4initEP7Sd2Cardh) refers to sdvolume.o(.bss) for SdVolume::cacheBuffer_
    sdvolume.o(i._ZN8SdVolume6fatPutEjj) refers to sdvolume.o(i._ZN8SdVolume13cacheRawBlockEjh) for SdVolume::cacheRawBlock(unsigned, unsigned char)
    sdvolume.o(i._ZN8SdVolume6fatPutEjj) refers to sdfile.o(i._ZN8SdVolume13cacheSetDirtyEv) for SdVolume::cacheSetDirty()
    sdvolume.o(i._ZN8SdVolume6fatPutEjj) refers to sdvolume.o(.data) for SdVolume::cacheBlockNumber_
    sdvolume.o(i._ZN8SdVolume6fatPutEjj) refers to sdvolume.o(.bss) for SdVolume::cacheBuffer_
    sdvolume.o(i._ZN8SdVolume9freeChainEj) refers to sdvolume.o(i._ZNK8SdVolume6fatGetEjPj) for SdVolume::fatGet(unsigned, unsigned*) const
    sdvolume.o(i._ZN8SdVolume9freeChainEj) refers to sdvolume.o(i._ZN8SdVolume6fatPutEjj) for SdVolume::fatPut(unsigned, unsigned)
    sdvolume.o(i._ZN8SdVolume9freeChainEj) refers to sdfile.o(i._ZNK8SdVolume5isEOCEj) for SdVolume::isEOC(unsigned) const
    sdvolume.o(i._ZNK8SdVolume6fatGetEjPj) refers to sdvolume.o(i._ZN8SdVolume13cacheRawBlockEjh) for SdVolume::cacheRawBlock(unsigned, unsigned char)
    sdvolume.o(i._ZNK8SdVolume6fatGetEjPj) refers to sdvolume.o(.data) for SdVolume::cacheBlockNumber_
    sdvolume.o(i._ZNK8SdVolume6fatGetEjPj) refers to sdvolume.o(.bss) for SdVolume::cacheBuffer_
    sdvolume.o(i._ZNK8SdVolume9chainSizeEjPj) refers to sdvolume.o(i._ZNK8SdVolume6fatGetEjPj) for SdVolume::fatGet(unsigned, unsigned*) const
    sdvolume.o(i._ZNK8SdVolume9chainSizeEjPj) refers to sdfile.o(i._ZNK8SdVolume5isEOCEj) for SdVolume::isEOC(unsigned) const
    sdvolume.o(.ARM.exidx) refers to sdvolume.o(i._ZN8SdVolume10cacheFlushEv) for i._ZN8SdVolume10cacheFlushEv
    sdvolume.o(.ARM.exidx) refers to sdvolume.o(i._ZN8SdVolume13cacheRawBlockEjh) for i._ZN8SdVolume13cacheRawBlockEjh
    sdvolume.o(.ARM.exidx) refers to sdvolume.o(i._ZN8SdVolume4initEP7Sd2Cardh) for i._ZN8SdVolume4initEP7Sd2Cardh
    sdvolume.o(.ARM.exidx) refers to sdvolume.o(i._ZN8SdVolume6fatPutEjj) for i._ZN8SdVolume6fatPutEjj
    sdvolume.o(.ARM.exidx) refers to sdvolume.o(i._ZNK8SdVolume6fatGetEjPj) for i._ZNK8SdVolume6fatGetEjPj
    sdvolume.o(.ARM.exidx) refers to sdvolume.o(i._ZN8SdVolume15allocContiguousEjPj) for i._ZN8SdVolume15allocContiguousEjPj
    sdvolume.o(.ARM.exidx) refers to sdvolume.o(i._ZN8SdVolume14cacheZeroBlockEj) for i._ZN8SdVolume14cacheZeroBlockEj
    sdvolume.o(.ARM.exidx) refers to sdvolume.o(i._ZNK8SdVolume9chainSizeEjPj) for i._ZNK8SdVolume9chainSizeEjPj
    sdvolume.o(.ARM.exidx) refers to sdvolume.o(i._ZN8SdVolume9freeChainEj) for i._ZN8SdVolume9freeChainEj
    nexbutton.o(i._ZN9NexButton14Get_place_xcenEPj) refers to sys.o(i._ZN6StringC1EPKc) for String::String(const char*)
    nexbutton.o(i._ZN9NexButton14Get_place_xcenEPj) refers to nexbutton.o(i._ZN6StringpLEPKc) for String::operator +=(const char*)
    nexbutton.o(i._ZN9NexButton14Get_place_xcenEPj) refers to nexobject.o(i._ZN9NexObject10getObjNameEv) for NexObject::getObjName()
    nexbutton.o(i._ZN9NexButton14Get_place_xcenEPj) refers to nexbutton.o(i._ZNK6String5c_strEv) for String::c_str() const
    nexbutton.o(i._ZN9NexButton14Get_place_xcenEPj) refers to nexhardware.o(i._Z11sendCommandPKc) for sendCommand(const char*)
    nexbutton.o(i._ZN9NexButton14Get_place_xcenEPj) refers to nexhardware.o(i._Z13recvRetNumberPjj) for recvRetNumber(unsigned*, unsigned)
    nexbutton.o(i._ZN9NexButton14Get_place_xcenEPj) refers to sys.o(i._ZN6StringD1Ev) for String::~String()
    nexbutton.o(i._ZN9NexButton14Get_place_ycenEPj) refers to sys.o(i._ZN6StringC1EPKc) for String::String(const char*)
    nexbutton.o(i._ZN9NexButton14Get_place_ycenEPj) refers to nexbutton.o(i._ZN6StringpLEPKc) for String::operator +=(const char*)
    nexbutton.o(i._ZN9NexButton14Get_place_ycenEPj) refers to nexobject.o(i._ZN9NexObject10getObjNameEv) for NexObject::getObjName()
    nexbutton.o(i._ZN9NexButton14Get_place_ycenEPj) refers to nexbutton.o(i._ZNK6String5c_strEv) for String::c_str() const
    nexbutton.o(i._ZN9NexButton14Get_place_ycenEPj) refers to nexhardware.o(i._Z11sendCommandPKc) for sendCommand(const char*)
    nexbutton.o(i._ZN9NexButton14Get_place_ycenEPj) refers to nexhardware.o(i._Z13recvRetNumberPjj) for recvRetNumber(unsigned*, unsigned)
    nexbutton.o(i._ZN9NexButton14Get_place_ycenEPj) refers to sys.o(i._ZN6StringD1Ev) for String::~String()
    nexbutton.o(i._ZN9NexButton14Set_place_xcenEj) refers to sys.o(i._ZN6StringC1EPKc) for String::String(const char*)
    nexbutton.o(i._ZN9NexButton14Set_place_xcenEj) refers to sys.o(i.utoa) for utoa
    nexbutton.o(i._ZN9NexButton14Set_place_xcenEj) refers to nexobject.o(i._ZN9NexObject10getObjNameEv) for NexObject::getObjName()
    nexbutton.o(i._ZN9NexButton14Set_place_xcenEj) refers to nexbutton.o(i._ZN6StringpLEPKc) for String::operator +=(const char*)
    nexbutton.o(i._ZN9NexButton14Set_place_xcenEj) refers to nexbutton.o(i._ZNK6String5c_strEv) for String::c_str() const
    nexbutton.o(i._ZN9NexButton14Set_place_xcenEj) refers to nexhardware.o(i._Z11sendCommandPKc) for sendCommand(const char*)
    nexbutton.o(i._ZN9NexButton14Set_place_xcenEj) refers to sys.o(i._ZN6StringaSEPKc) for String::operator =(const char*)
    nexbutton.o(i._ZN9NexButton14Set_place_xcenEj) refers to nexhardware.o(i._Z22recvRetCommandFinishedj) for recvRetCommandFinished(unsigned)
    nexbutton.o(i._ZN9NexButton14Set_place_xcenEj) refers to sys.o(i._ZN6StringD1Ev) for String::~String()
    nexbutton.o(i._ZN9NexButton14Set_place_ycenEj) refers to sys.o(i._ZN6StringC1EPKc) for String::String(const char*)
    nexbutton.o(i._ZN9NexButton14Set_place_ycenEj) refers to sys.o(i.utoa) for utoa
    nexbutton.o(i._ZN9NexButton14Set_place_ycenEj) refers to nexobject.o(i._ZN9NexObject10getObjNameEv) for NexObject::getObjName()
    nexbutton.o(i._ZN9NexButton14Set_place_ycenEj) refers to nexbutton.o(i._ZN6StringpLEPKc) for String::operator +=(const char*)
    nexbutton.o(i._ZN9NexButton14Set_place_ycenEj) refers to nexbutton.o(i._ZNK6String5c_strEv) for String::c_str() const
    nexbutton.o(i._ZN9NexButton14Set_place_ycenEj) refers to nexhardware.o(i._Z11sendCommandPKc) for sendCommand(const char*)
    nexbutton.o(i._ZN9NexButton14Set_place_ycenEj) refers to sys.o(i._ZN6StringaSEPKc) for String::operator =(const char*)
    nexbutton.o(i._ZN9NexButton14Set_place_ycenEj) refers to nexhardware.o(i._Z22recvRetCommandFinishedj) for recvRetCommandFinished(unsigned)
    nexbutton.o(i._ZN9NexButton14Set_place_ycenEj) refers to sys.o(i._ZN6StringD1Ev) for String::~String()
    nexbutton.o(i._ZN9NexButton18Get_font_color_pcoEPj) refers to sys.o(i._ZN6StringC1EPKc) for String::String(const char*)
    nexbutton.o(i._ZN9NexButton18Get_font_color_pcoEPj) refers to nexbutton.o(i._ZN6StringpLEPKc) for String::operator +=(const char*)
    nexbutton.o(i._ZN9NexButton18Get_font_color_pcoEPj) refers to nexobject.o(i._ZN9NexObject10getObjNameEv) for NexObject::getObjName()
    nexbutton.o(i._ZN9NexButton18Get_font_color_pcoEPj) refers to nexbutton.o(i._ZNK6String5c_strEv) for String::c_str() const
    nexbutton.o(i._ZN9NexButton18Get_font_color_pcoEPj) refers to nexhardware.o(i._Z11sendCommandPKc) for sendCommand(const char*)
    nexbutton.o(i._ZN9NexButton18Get_font_color_pcoEPj) refers to nexhardware.o(i._Z13recvRetNumberPjj) for recvRetNumber(unsigned*, unsigned)
    nexbutton.o(i._ZN9NexButton18Get_font_color_pcoEPj) refers to sys.o(i._ZN6StringD1Ev) for String::~String()
    nexbutton.o(i._ZN9NexButton18Set_font_color_pcoEj) refers to sys.o(i._ZN6StringC1EPKc) for String::String(const char*)
    nexbutton.o(i._ZN9NexButton18Set_font_color_pcoEj) refers to sys.o(i.utoa) for utoa
    nexbutton.o(i._ZN9NexButton18Set_font_color_pcoEj) refers to nexobject.o(i._ZN9NexObject10getObjNameEv) for NexObject::getObjName()
    nexbutton.o(i._ZN9NexButton18Set_font_color_pcoEj) refers to nexbutton.o(i._ZN6StringpLEPKc) for String::operator +=(const char*)
    nexbutton.o(i._ZN9NexButton18Set_font_color_pcoEj) refers to nexbutton.o(i._ZNK6String5c_strEv) for String::c_str() const
    nexbutton.o(i._ZN9NexButton18Set_font_color_pcoEj) refers to nexhardware.o(i._Z11sendCommandPKc) for sendCommand(const char*)
    nexbutton.o(i._ZN9NexButton18Set_font_color_pcoEj) refers to sys.o(i._ZN6StringaSEPKc) for String::operator =(const char*)
    nexbutton.o(i._ZN9NexButton18Set_font_color_pcoEj) refers to nexhardware.o(i._Z22recvRetCommandFinishedj) for recvRetCommandFinished(unsigned)
    nexbutton.o(i._ZN9NexButton18Set_font_color_pcoEj) refers to sys.o(i._ZN6StringD1Ev) for String::~String()
    nexbutton.o(i._ZN9NexButton24Get_background_color_bcoEPj) refers to sys.o(i._ZN6StringC1EPKc) for String::String(const char*)
    nexbutton.o(i._ZN9NexButton24Get_background_color_bcoEPj) refers to nexbutton.o(i._ZN6StringpLEPKc) for String::operator +=(const char*)
    nexbutton.o(i._ZN9NexButton24Get_background_color_bcoEPj) refers to nexobject.o(i._ZN9NexObject10getObjNameEv) for NexObject::getObjName()
    nexbutton.o(i._ZN9NexButton24Get_background_color_bcoEPj) refers to nexbutton.o(i._ZNK6String5c_strEv) for String::c_str() const
    nexbutton.o(i._ZN9NexButton24Get_background_color_bcoEPj) refers to nexhardware.o(i._Z11sendCommandPKc) for sendCommand(const char*)
    nexbutton.o(i._ZN9NexButton24Get_background_color_bcoEPj) refers to nexhardware.o(i._Z13recvRetNumberPjj) for recvRetNumber(unsigned*, unsigned)
    nexbutton.o(i._ZN9NexButton24Get_background_color_bcoEPj) refers to sys.o(i._ZN6StringD1Ev) for String::~String()
    nexbutton.o(i._ZN9NexButton24Get_background_image_picEPj) refers to sys.o(i._ZN6StringC1EPKc) for String::String(const char*)
    nexbutton.o(i._ZN9NexButton24Get_background_image_picEPj) refers to nexbutton.o(i._ZN6StringpLEPKc) for String::operator +=(const char*)
    nexbutton.o(i._ZN9NexButton24Get_background_image_picEPj) refers to nexobject.o(i._ZN9NexObject10getObjNameEv) for NexObject::getObjName()
    nexbutton.o(i._ZN9NexButton24Get_background_image_picEPj) refers to nexbutton.o(i._ZNK6String5c_strEv) for String::c_str() const
    nexbutton.o(i._ZN9NexButton24Get_background_image_picEPj) refers to nexhardware.o(i._Z11sendCommandPKc) for sendCommand(const char*)
    nexbutton.o(i._ZN9NexButton24Get_background_image_picEPj) refers to nexhardware.o(i._Z13recvRetNumberPjj) for recvRetNumber(unsigned*, unsigned)
    nexbutton.o(i._ZN9NexButton24Get_background_image_picEPj) refers to sys.o(i._ZN6StringD1Ev) for String::~String()
    nexbutton.o(i._ZN9NexButton24Set_background_color_bcoEj) refers to sys.o(i._ZN6StringC1EPKc) for String::String(const char*)
    nexbutton.o(i._ZN9NexButton24Set_background_color_bcoEj) refers to sys.o(i.utoa) for utoa
    nexbutton.o(i._ZN9NexButton24Set_background_color_bcoEj) refers to nexobject.o(i._ZN9NexObject10getObjNameEv) for NexObject::getObjName()
    nexbutton.o(i._ZN9NexButton24Set_background_color_bcoEj) refers to nexbutton.o(i._ZN6StringpLEPKc) for String::operator +=(const char*)
    nexbutton.o(i._ZN9NexButton24Set_background_color_bcoEj) refers to nexbutton.o(i._ZNK6String5c_strEv) for String::c_str() const
    nexbutton.o(i._ZN9NexButton24Set_background_color_bcoEj) refers to nexhardware.o(i._Z11sendCommandPKc) for sendCommand(const char*)
    nexbutton.o(i._ZN9NexButton24Set_background_color_bcoEj) refers to sys.o(i._ZN6StringaSEPKc) for String::operator =(const char*)
    nexbutton.o(i._ZN9NexButton24Set_background_color_bcoEj) refers to nexhardware.o(i._Z22recvRetCommandFinishedj) for recvRetCommandFinished(unsigned)
    nexbutton.o(i._ZN9NexButton24Set_background_color_bcoEj) refers to sys.o(i._ZN6StringD1Ev) for String::~String()
    nexbutton.o(i._ZN9NexButton24Set_background_crop_piccEj) refers to sys.o(i._ZN6StringC1EPKc) for String::String(const char*)
    nexbutton.o(i._ZN9NexButton24Set_background_crop_piccEj) refers to sys.o(i.utoa) for utoa
    nexbutton.o(i._ZN9NexButton24Set_background_crop_piccEj) refers to nexobject.o(i._ZN9NexObject10getObjNameEv) for NexObject::getObjName()
    nexbutton.o(i._ZN9NexButton24Set_background_crop_piccEj) refers to nexbutton.o(i._ZN6StringpLEPKc) for String::operator +=(const char*)
    nexbutton.o(i._ZN9NexButton24Set_background_crop_piccEj) refers to nexbutton.o(i._ZNK6String5c_strEv) for String::c_str() const
    nexbutton.o(i._ZN9NexButton24Set_background_crop_piccEj) refers to nexhardware.o(i._Z11sendCommandPKc) for sendCommand(const char*)
    nexbutton.o(i._ZN9NexButton24Set_background_crop_piccEj) refers to sys.o(i._ZN6StringaSEPKc) for String::operator =(const char*)
    nexbutton.o(i._ZN9NexButton24Set_background_crop_piccEj) refers to nexhardware.o(i._Z22recvRetCommandFinishedj) for recvRetCommandFinished(unsigned)
    nexbutton.o(i._ZN9NexButton24Set_background_crop_piccEj) refers to sys.o(i._ZN6StringD1Ev) for String::~String()
    nexbutton.o(i._ZN9NexButton24Set_background_image_picEj) refers to sys.o(i._ZN6StringC1EPKc) for String::String(const char*)
    nexbutton.o(i._ZN9NexButton24Set_background_image_picEj) refers to sys.o(i.utoa) for utoa
    nexbutton.o(i._ZN9NexButton24Set_background_image_picEj) refers to nexobject.o(i._ZN9NexObject10getObjNameEv) for NexObject::getObjName()
    nexbutton.o(i._ZN9NexButton24Set_background_image_picEj) refers to nexbutton.o(i._ZN6StringpLEPKc) for String::operator +=(const char*)
    nexbutton.o(i._ZN9NexButton24Set_background_image_picEj) refers to nexbutton.o(i._ZNK6String5c_strEv) for String::c_str() const
    nexbutton.o(i._ZN9NexButton24Set_background_image_picEj) refers to nexhardware.o(i._Z11sendCommandPKc) for sendCommand(const char*)
    nexbutton.o(i._ZN9NexButton24Set_background_image_picEj) refers to sys.o(i._ZN6StringaSEPKc) for String::operator =(const char*)
    nexbutton.o(i._ZN9NexButton24Set_background_image_picEj) refers to nexhardware.o(i._Z22recvRetCommandFinishedj) for recvRetCommandFinished(unsigned)
    nexbutton.o(i._ZN9NexButton24Set_background_image_picEj) refers to sys.o(i._ZN6StringD1Ev) for String::~String()
    nexbutton.o(i._ZN9NexButton25Get_background_cropi_piccEPj) refers to sys.o(i._ZN6StringC1EPKc) for String::String(const char*)
    nexbutton.o(i._ZN9NexButton25Get_background_cropi_piccEPj) refers to nexbutton.o(i._ZN6StringpLEPKc) for String::operator +=(const char*)
    nexbutton.o(i._ZN9NexButton25Get_background_cropi_piccEPj) refers to nexobject.o(i._ZN9NexObject10getObjNameEv) for NexObject::getObjName()
    nexbutton.o(i._ZN9NexButton25Get_background_cropi_piccEPj) refers to nexbutton.o(i._ZNK6String5c_strEv) for String::c_str() const
    nexbutton.o(i._ZN9NexButton25Get_background_cropi_piccEPj) refers to nexhardware.o(i._Z11sendCommandPKc) for sendCommand(const char*)
    nexbutton.o(i._ZN9NexButton25Get_background_cropi_piccEPj) refers to nexhardware.o(i._Z13recvRetNumberPjj) for recvRetNumber(unsigned*, unsigned)
    nexbutton.o(i._ZN9NexButton25Get_background_cropi_piccEPj) refers to sys.o(i._ZN6StringD1Ev) for String::~String()
    nexbutton.o(i._ZN9NexButton25Get_press_font_color_pco2EPj) refers to sys.o(i._ZN6StringC1EPKc) for String::String(const char*)
    nexbutton.o(i._ZN9NexButton25Get_press_font_color_pco2EPj) refers to nexbutton.o(i._ZN6StringpLEPKc) for String::operator +=(const char*)
    nexbutton.o(i._ZN9NexButton25Get_press_font_color_pco2EPj) refers to nexobject.o(i._ZN9NexObject10getObjNameEv) for NexObject::getObjName()
    nexbutton.o(i._ZN9NexButton25Get_press_font_color_pco2EPj) refers to nexbutton.o(i._ZNK6String5c_strEv) for String::c_str() const
    nexbutton.o(i._ZN9NexButton25Get_press_font_color_pco2EPj) refers to nexhardware.o(i._Z11sendCommandPKc) for sendCommand(const char*)
    nexbutton.o(i._ZN9NexButton25Get_press_font_color_pco2EPj) refers to nexhardware.o(i._Z13recvRetNumberPjj) for recvRetNumber(unsigned*, unsigned)
    nexbutton.o(i._ZN9NexButton25Get_press_font_color_pco2EPj) refers to sys.o(i._ZN6StringD1Ev) for String::~String()
    nexbutton.o(i._ZN9NexButton25Set_press_font_color_pco2Ej) refers to sys.o(i._ZN6StringC1EPKc) for String::String(const char*)
    nexbutton.o(i._ZN9NexButton25Set_press_font_color_pco2Ej) refers to sys.o(i.utoa) for utoa
    nexbutton.o(i._ZN9NexButton25Set_press_font_color_pco2Ej) refers to nexobject.o(i._ZN9NexObject10getObjNameEv) for NexObject::getObjName()
    nexbutton.o(i._ZN9NexButton25Set_press_font_color_pco2Ej) refers to nexbutton.o(i._ZN6StringpLEPKc) for String::operator +=(const char*)
    nexbutton.o(i._ZN9NexButton25Set_press_font_color_pco2Ej) refers to nexbutton.o(i._ZNK6String5c_strEv) for String::c_str() const
    nexbutton.o(i._ZN9NexButton25Set_press_font_color_pco2Ej) refers to nexhardware.o(i._Z11sendCommandPKc) for sendCommand(const char*)
    nexbutton.o(i._ZN9NexButton25Set_press_font_color_pco2Ej) refers to sys.o(i._ZN6StringaSEPKc) for String::operator =(const char*)
    nexbutton.o(i._ZN9NexButton25Set_press_font_color_pco2Ej) refers to nexhardware.o(i._Z22recvRetCommandFinishedj) for recvRetCommandFinished(unsigned)
    nexbutton.o(i._ZN9NexButton25Set_press_font_color_pco2Ej) refers to sys.o(i._ZN6StringD1Ev) for String::~String()
    nexbutton.o(i._ZN9NexButton31Get_press_background_color_bco2EPj) refers to sys.o(i._ZN6StringC1EPKc) for String::String(const char*)
    nexbutton.o(i._ZN9NexButton31Get_press_background_color_bco2EPj) refers to nexbutton.o(i._ZN6StringpLEPKc) for String::operator +=(const char*)
    nexbutton.o(i._ZN9NexButton31Get_press_background_color_bco2EPj) refers to nexobject.o(i._ZN9NexObject10getObjNameEv) for NexObject::getObjName()
    nexbutton.o(i._ZN9NexButton31Get_press_background_color_bco2EPj) refers to nexbutton.o(i._ZNK6String5c_strEv) for String::c_str() const
    nexbutton.o(i._ZN9NexButton31Get_press_background_color_bco2EPj) refers to nexhardware.o(i._Z11sendCommandPKc) for sendCommand(const char*)
    nexbutton.o(i._ZN9NexButton31Get_press_background_color_bco2EPj) refers to nexhardware.o(i._Z13recvRetNumberPjj) for recvRetNumber(unsigned*, unsigned)
    nexbutton.o(i._ZN9NexButton31Get_press_background_color_bco2EPj) refers to sys.o(i._ZN6StringD1Ev) for String::~String()
    nexbutton.o(i._ZN9NexButton31Get_press_background_crop_picc2EPj) refers to sys.o(i._ZN6StringC1EPKc) for String::String(const char*)
    nexbutton.o(i._ZN9NexButton31Get_press_background_crop_picc2EPj) refers to nexbutton.o(i._ZN6StringpLEPKc) for String::operator +=(const char*)
    nexbutton.o(i._ZN9NexButton31Get_press_background_crop_picc2EPj) refers to nexobject.o(i._ZN9NexObject10getObjNameEv) for NexObject::getObjName()
    nexbutton.o(i._ZN9NexButton31Get_press_background_crop_picc2EPj) refers to nexbutton.o(i._ZNK6String5c_strEv) for String::c_str() const
    nexbutton.o(i._ZN9NexButton31Get_press_background_crop_picc2EPj) refers to nexhardware.o(i._Z11sendCommandPKc) for sendCommand(const char*)
    nexbutton.o(i._ZN9NexButton31Get_press_background_crop_picc2EPj) refers to nexhardware.o(i._Z13recvRetNumberPjj) for recvRetNumber(unsigned*, unsigned)
    nexbutton.o(i._ZN9NexButton31Get_press_background_crop_picc2EPj) refers to sys.o(i._ZN6StringD1Ev) for String::~String()
    nexbutton.o(i._ZN9NexButton31Get_press_background_image_pic2EPj) refers to sys.o(i._ZN6StringC1EPKc) for String::String(const char*)
    nexbutton.o(i._ZN9NexButton31Get_press_background_image_pic2EPj) refers to nexbutton.o(i._ZN6StringpLEPKc) for String::operator +=(const char*)
    nexbutton.o(i._ZN9NexButton31Get_press_background_image_pic2EPj) refers to nexobject.o(i._ZN9NexObject10getObjNameEv) for NexObject::getObjName()
    nexbutton.o(i._ZN9NexButton31Get_press_background_image_pic2EPj) refers to nexbutton.o(i._ZNK6String5c_strEv) for String::c_str() const
    nexbutton.o(i._ZN9NexButton31Get_press_background_image_pic2EPj) refers to nexhardware.o(i._Z11sendCommandPKc) for sendCommand(const char*)
    nexbutton.o(i._ZN9NexButton31Get_press_background_image_pic2EPj) refers to nexhardware.o(i._Z13recvRetNumberPjj) for recvRetNumber(unsigned*, unsigned)
    nexbutton.o(i._ZN9NexButton31Get_press_background_image_pic2EPj) refers to sys.o(i._ZN6StringD1Ev) for String::~String()
    nexbutton.o(i._ZN9NexButton31Set_press_background_color_bco2Ej) refers to sys.o(i._ZN6StringC1EPKc) for String::String(const char*)
    nexbutton.o(i._ZN9NexButton31Set_press_background_color_bco2Ej) refers to sys.o(i.utoa) for utoa
    nexbutton.o(i._ZN9NexButton31Set_press_background_color_bco2Ej) refers to nexobject.o(i._ZN9NexObject10getObjNameEv) for NexObject::getObjName()
    nexbutton.o(i._ZN9NexButton31Set_press_background_color_bco2Ej) refers to nexbutton.o(i._ZN6StringpLEPKc) for String::operator +=(const char*)
    nexbutton.o(i._ZN9NexButton31Set_press_background_color_bco2Ej) refers to nexbutton.o(i._ZNK6String5c_strEv) for String::c_str() const
    nexbutton.o(i._ZN9NexButton31Set_press_background_color_bco2Ej) refers to nexhardware.o(i._Z11sendCommandPKc) for sendCommand(const char*)
    nexbutton.o(i._ZN9NexButton31Set_press_background_color_bco2Ej) refers to sys.o(i._ZN6StringaSEPKc) for String::operator =(const char*)
    nexbutton.o(i._ZN9NexButton31Set_press_background_color_bco2Ej) refers to nexhardware.o(i._Z22recvRetCommandFinishedj) for recvRetCommandFinished(unsigned)
    nexbutton.o(i._ZN9NexButton31Set_press_background_color_bco2Ej) refers to sys.o(i._ZN6StringD1Ev) for String::~String()
    nexbutton.o(i._ZN9NexButton31Set_press_background_crop_picc2Ej) refers to sys.o(i._ZN6StringC1EPKc) for String::String(const char*)
    nexbutton.o(i._ZN9NexButton31Set_press_background_crop_picc2Ej) refers to sys.o(i.utoa) for utoa
    nexbutton.o(i._ZN9NexButton31Set_press_background_crop_picc2Ej) refers to nexobject.o(i._ZN9NexObject10getObjNameEv) for NexObject::getObjName()
    nexbutton.o(i._ZN9NexButton31Set_press_background_crop_picc2Ej) refers to nexbutton.o(i._ZN6StringpLEPKc) for String::operator +=(const char*)
    nexbutton.o(i._ZN9NexButton31Set_press_background_crop_picc2Ej) refers to nexbutton.o(i._ZNK6String5c_strEv) for String::c_str() const
    nexbutton.o(i._ZN9NexButton31Set_press_background_crop_picc2Ej) refers to nexhardware.o(i._Z11sendCommandPKc) for sendCommand(const char*)
    nexbutton.o(i._ZN9NexButton31Set_press_background_crop_picc2Ej) refers to sys.o(i._ZN6StringaSEPKc) for String::operator =(const char*)
    nexbutton.o(i._ZN9NexButton31Set_press_background_crop_picc2Ej) refers to nexhardware.o(i._Z22recvRetCommandFinishedj) for recvRetCommandFinished(unsigned)
    nexbutton.o(i._ZN9NexButton31Set_press_background_crop_picc2Ej) refers to sys.o(i._ZN6StringD1Ev) for String::~String()
    nexbutton.o(i._ZN9NexButton31Set_press_background_image_pic2Ej) refers to sys.o(i._ZN6StringC1EPKc) for String::String(const char*)
    nexbutton.o(i._ZN9NexButton31Set_press_background_image_pic2Ej) refers to sys.o(i.utoa) for utoa
    nexbutton.o(i._ZN9NexButton31Set_press_background_image_pic2Ej) refers to nexobject.o(i._ZN9NexObject10getObjNameEv) for NexObject::getObjName()
    nexbutton.o(i._ZN9NexButton31Set_press_background_image_pic2Ej) refers to nexbutton.o(i._ZN6StringpLEPKc) for String::operator +=(const char*)
    nexbutton.o(i._ZN9NexButton31Set_press_background_image_pic2Ej) refers to nexbutton.o(i._ZNK6String5c_strEv) for String::c_str() const
    nexbutton.o(i._ZN9NexButton31Set_press_background_image_pic2Ej) refers to nexhardware.o(i._Z11sendCommandPKc) for sendCommand(const char*)
    nexbutton.o(i._ZN9NexButton31Set_press_background_image_pic2Ej) refers to sys.o(i._ZN6StringaSEPKc) for String::operator =(const char*)
    nexbutton.o(i._ZN9NexButton31Set_press_background_image_pic2Ej) refers to nexhardware.o(i._Z22recvRetCommandFinishedj) for recvRetCommandFinished(unsigned)
    nexbutton.o(i._ZN9NexButton31Set_press_background_image_pic2Ej) refers to sys.o(i._ZN6StringD1Ev) for String::~String()
    nexbutton.o(i._ZN9NexButton7getFontEPj) refers to sys.o(i._ZN6StringC1EPKc) for String::String(const char*)
    nexbutton.o(i._ZN9NexButton7getFontEPj) refers to nexbutton.o(i._ZN6StringpLEPKc) for String::operator +=(const char*)
    nexbutton.o(i._ZN9NexButton7getFontEPj) refers to nexobject.o(i._ZN9NexObject10getObjNameEv) for NexObject::getObjName()
    nexbutton.o(i._ZN9NexButton7getFontEPj) refers to nexbutton.o(i._ZNK6String5c_strEv) for String::c_str() const
    nexbutton.o(i._ZN9NexButton7getFontEPj) refers to nexhardware.o(i._Z11sendCommandPKc) for sendCommand(const char*)
    nexbutton.o(i._ZN9NexButton7getFontEPj) refers to nexhardware.o(i._Z13recvRetNumberPjj) for recvRetNumber(unsigned*, unsigned)
    nexbutton.o(i._ZN9NexButton7getFontEPj) refers to sys.o(i._ZN6StringD1Ev) for String::~String()
    nexbutton.o(i._ZN9NexButton7getTextEPct) refers to sys.o(i._ZN6StringC1EPKc) for String::String(const char*)
    nexbutton.o(i._ZN9NexButton7getTextEPct) refers to nexbutton.o(i._ZN6StringpLEPKc) for String::operator +=(const char*)
    nexbutton.o(i._ZN9NexButton7getTextEPct) refers to nexobject.o(i._ZN9NexObject10getObjNameEv) for NexObject::getObjName()
    nexbutton.o(i._ZN9NexButton7getTextEPct) refers to nexbutton.o(i._ZNK6String5c_strEv) for String::c_str() const
    nexbutton.o(i._ZN9NexButton7getTextEPct) refers to nexhardware.o(i._Z11sendCommandPKc) for sendCommand(const char*)
    nexbutton.o(i._ZN9NexButton7getTextEPct) refers to nexhardware.o(i._Z13recvRetStringPctj) for recvRetString(char*, unsigned short, unsigned)
    nexbutton.o(i._ZN9NexButton7getTextEPct) refers to sys.o(i._ZN6StringD1Ev) for String::~String()
    nexbutton.o(i._ZN9NexButton7setFontEj) refers to sys.o(i._ZN6StringC1EPKc) for String::String(const char*)
    nexbutton.o(i._ZN9NexButton7setFontEj) refers to sys.o(i.utoa) for utoa
    nexbutton.o(i._ZN9NexButton7setFontEj) refers to nexobject.o(i._ZN9NexObject10getObjNameEv) for NexObject::getObjName()
    nexbutton.o(i._ZN9NexButton7setFontEj) refers to nexbutton.o(i._ZN6StringpLEPKc) for String::operator +=(const char*)
    nexbutton.o(i._ZN9NexButton7setFontEj) refers to nexbutton.o(i._ZNK6String5c_strEv) for String::c_str() const
    nexbutton.o(i._ZN9NexButton7setFontEj) refers to nexhardware.o(i._Z11sendCommandPKc) for sendCommand(const char*)
    nexbutton.o(i._ZN9NexButton7setFontEj) refers to sys.o(i._ZN6StringaSEPKc) for String::operator =(const char*)
    nexbutton.o(i._ZN9NexButton7setFontEj) refers to nexhardware.o(i._Z22recvRetCommandFinishedj) for recvRetCommandFinished(unsigned)
    nexbutton.o(i._ZN9NexButton7setFontEj) refers to sys.o(i._ZN6StringD1Ev) for String::~String()
    nexbutton.o(i._ZN9NexButton7setTextEPKc) refers to sys.o(i._ZN6StringC1EPKc) for String::String(const char*)
    nexbutton.o(i._ZN9NexButton7setTextEPKc) refers to nexobject.o(i._ZN9NexObject10getObjNameEv) for NexObject::getObjName()
    nexbutton.o(i._ZN9NexButton7setTextEPKc) refers to nexbutton.o(i._ZN6StringpLEPKc) for String::operator +=(const char*)
    nexbutton.o(i._ZN9NexButton7setTextEPKc) refers to nexbutton.o(i._ZNK6String5c_strEv) for String::c_str() const
    nexbutton.o(i._ZN9NexButton7setTextEPKc) refers to nexhardware.o(i._Z11sendCommandPKc) for sendCommand(const char*)
    nexbutton.o(i._ZN9NexButton7setTextEPKc) refers to nexhardware.o(i._Z22recvRetCommandFinishedj) for recvRetCommandFinished(unsigned)
    nexbutton.o(i._ZN9NexButton7setTextEPKc) refers to sys.o(i._ZN6StringD1Ev) for String::~String()
    nexbutton.o(i._ZN9NexButtonC1EhhPKc) refers to nextouch.o(i._ZN8NexTouchC1EhhPKc) for NexTouch::NexTouch(unsigned char, unsigned char, const char*)
    nexbutton.o(.ARM.exidx) refers to nexbutton.o(i._ZN9NexButtonC1EhhPKc) for i._ZN9NexButtonC1EhhPKc
    nexbutton.o(.ARM.exidx) refers to nexbutton.o(i._ZN9NexButton7getTextEPct) for i._ZN9NexButton7getTextEPct
    nexbutton.o(.ARM.exidx) refers to nexbutton.o(i._ZN9NexButton7setTextEPKc) for i._ZN9NexButton7setTextEPKc
    nexbutton.o(.ARM.exidx) refers to nexbutton.o(i._ZN9NexButton24Get_background_color_bcoEPj) for i._ZN9NexButton24Get_background_color_bcoEPj
    nexbutton.o(.ARM.exidx) refers to nexbutton.o(i._ZN9NexButton24Set_background_color_bcoEj) for i._ZN9NexButton24Set_background_color_bcoEj
    nexbutton.o(.ARM.exidx) refers to nexbutton.o(i._ZN9NexButton31Get_press_background_color_bco2EPj) for i._ZN9NexButton31Get_press_background_color_bco2EPj
    nexbutton.o(.ARM.exidx) refers to nexbutton.o(i._ZN9NexButton31Set_press_background_color_bco2Ej) for i._ZN9NexButton31Set_press_background_color_bco2Ej
    nexbutton.o(.ARM.exidx) refers to nexbutton.o(i._ZN9NexButton18Get_font_color_pcoEPj) for i._ZN9NexButton18Get_font_color_pcoEPj
    nexbutton.o(.ARM.exidx) refers to nexbutton.o(i._ZN9NexButton18Set_font_color_pcoEj) for i._ZN9NexButton18Set_font_color_pcoEj
    nexbutton.o(.ARM.exidx) refers to nexbutton.o(i._ZN9NexButton25Get_press_font_color_pco2EPj) for i._ZN9NexButton25Get_press_font_color_pco2EPj
    nexbutton.o(.ARM.exidx) refers to nexbutton.o(i._ZN9NexButton25Set_press_font_color_pco2Ej) for i._ZN9NexButton25Set_press_font_color_pco2Ej
    nexbutton.o(.ARM.exidx) refers to nexbutton.o(i._ZN9NexButton14Get_place_xcenEPj) for i._ZN9NexButton14Get_place_xcenEPj
    nexbutton.o(.ARM.exidx) refers to nexbutton.o(i._ZN9NexButton14Set_place_xcenEj) for i._ZN9NexButton14Set_place_xcenEj
    nexbutton.o(.ARM.exidx) refers to nexbutton.o(i._ZN9NexButton14Get_place_ycenEPj) for i._ZN9NexButton14Get_place_ycenEPj
    nexbutton.o(.ARM.exidx) refers to nexbutton.o(i._ZN9NexButton14Set_place_ycenEj) for i._ZN9NexButton14Set_place_ycenEj
    nexbutton.o(.ARM.exidx) refers to nexbutton.o(i._ZN9NexButton7getFontEPj) for i._ZN9NexButton7getFontEPj
    nexbutton.o(.ARM.exidx) refers to nexbutton.o(i._ZN9NexButton7setFontEj) for i._ZN9NexButton7setFontEj
    nexbutton.o(.ARM.exidx) refers to nexbutton.o(i._ZN9NexButton25Get_background_cropi_piccEPj) for i._ZN9NexButton25Get_background_cropi_piccEPj
    nexbutton.o(.ARM.exidx) refers to nexbutton.o(i._ZN9NexButton24Set_background_crop_piccEj) for i._ZN9NexButton24Set_background_crop_piccEj
    nexbutton.o(.ARM.exidx) refers to nexbutton.o(i._ZN9NexButton31Get_press_background_crop_picc2EPj) for i._ZN9NexButton31Get_press_background_crop_picc2EPj
    nexbutton.o(.ARM.exidx) refers to nexbutton.o(i._ZN9NexButton31Set_press_background_crop_picc2Ej) for i._ZN9NexButton31Set_press_background_crop_picc2Ej
    nexbutton.o(.ARM.exidx) refers to nexbutton.o(i._ZN9NexButton24Get_background_image_picEPj) for i._ZN9NexButton24Get_background_image_picEPj
    nexbutton.o(.ARM.exidx) refers to nexbutton.o(i._ZN9NexButton24Set_background_image_picEj) for i._ZN9NexButton24Set_background_image_picEj
    nexbutton.o(.ARM.exidx) refers to nexbutton.o(i._ZN9NexButton31Get_press_background_image_pic2EPj) for i._ZN9NexButton31Get_press_background_image_pic2EPj
    nexbutton.o(.ARM.exidx) refers to nexbutton.o(i._ZN9NexButton31Set_press_background_image_pic2Ej) for i._ZN9NexButton31Set_press_background_image_pic2Ej
    nexcheckbox.o(i._ZN11NexCheckbox18Get_font_color_pcoEPj) refers to sys.o(i._ZN6StringC1EPKc) for String::String(const char*)
    nexcheckbox.o(i._ZN11NexCheckbox18Get_font_color_pcoEPj) refers to nexbutton.o(i._ZN6StringpLEPKc) for String::operator +=(const char*)
    nexcheckbox.o(i._ZN11NexCheckbox18Get_font_color_pcoEPj) refers to nexobject.o(i._ZN9NexObject10getObjNameEv) for NexObject::getObjName()
    nexcheckbox.o(i._ZN11NexCheckbox18Get_font_color_pcoEPj) refers to nexbutton.o(i._ZNK6String5c_strEv) for String::c_str() const
    nexcheckbox.o(i._ZN11NexCheckbox18Get_font_color_pcoEPj) refers to nexhardware.o(i._Z11sendCommandPKc) for sendCommand(const char*)
    nexcheckbox.o(i._ZN11NexCheckbox18Get_font_color_pcoEPj) refers to nexhardware.o(i._Z13recvRetNumberPjj) for recvRetNumber(unsigned*, unsigned)
    nexcheckbox.o(i._ZN11NexCheckbox18Get_font_color_pcoEPj) refers to sys.o(i._ZN6StringD1Ev) for String::~String()
    nexcheckbox.o(i._ZN11NexCheckbox18Set_font_color_pcoEj) refers to sys.o(i._ZN6StringC1EPKc) for String::String(const char*)
    nexcheckbox.o(i._ZN11NexCheckbox18Set_font_color_pcoEj) refers to sys.o(i.utoa) for utoa
    nexcheckbox.o(i._ZN11NexCheckbox18Set_font_color_pcoEj) refers to nexobject.o(i._ZN9NexObject10getObjNameEv) for NexObject::getObjName()
    nexcheckbox.o(i._ZN11NexCheckbox18Set_font_color_pcoEj) refers to nexbutton.o(i._ZN6StringpLEPKc) for String::operator +=(const char*)
    nexcheckbox.o(i._ZN11NexCheckbox18Set_font_color_pcoEj) refers to nexbutton.o(i._ZNK6String5c_strEv) for String::c_str() const
    nexcheckbox.o(i._ZN11NexCheckbox18Set_font_color_pcoEj) refers to nexhardware.o(i._Z11sendCommandPKc) for sendCommand(const char*)
    nexcheckbox.o(i._ZN11NexCheckbox18Set_font_color_pcoEj) refers to sys.o(i._ZN6StringaSEPKc) for String::operator =(const char*)
    nexcheckbox.o(i._ZN11NexCheckbox18Set_font_color_pcoEj) refers to nexhardware.o(i._Z22recvRetCommandFinishedj) for recvRetCommandFinished(unsigned)
    nexcheckbox.o(i._ZN11NexCheckbox18Set_font_color_pcoEj) refers to sys.o(i._ZN6StringD1Ev) for String::~String()
    nexcheckbox.o(i._ZN11NexCheckbox24Get_background_color_bcoEPj) refers to sys.o(i._ZN6StringC1EPKc) for String::String(const char*)
    nexcheckbox.o(i._ZN11NexCheckbox24Get_background_color_bcoEPj) refers to nexbutton.o(i._ZN6StringpLEPKc) for String::operator +=(const char*)
    nexcheckbox.o(i._ZN11NexCheckbox24Get_background_color_bcoEPj) refers to nexobject.o(i._ZN9NexObject10getObjNameEv) for NexObject::getObjName()
    nexcheckbox.o(i._ZN11NexCheckbox24Get_background_color_bcoEPj) refers to nexbutton.o(i._ZNK6String5c_strEv) for String::c_str() const
    nexcheckbox.o(i._ZN11NexCheckbox24Get_background_color_bcoEPj) refers to nexhardware.o(i._Z11sendCommandPKc) for sendCommand(const char*)
    nexcheckbox.o(i._ZN11NexCheckbox24Get_background_color_bcoEPj) refers to nexhardware.o(i._Z13recvRetNumberPjj) for recvRetNumber(unsigned*, unsigned)
    nexcheckbox.o(i._ZN11NexCheckbox24Get_background_color_bcoEPj) refers to sys.o(i._ZN6StringD1Ev) for String::~String()
    nexcheckbox.o(i._ZN11NexCheckbox24Set_background_color_bcoEj) refers to sys.o(i._ZN6StringC1EPKc) for String::String(const char*)
    nexcheckbox.o(i._ZN11NexCheckbox24Set_background_color_bcoEj) refers to sys.o(i.utoa) for utoa
    nexcheckbox.o(i._ZN11NexCheckbox24Set_background_color_bcoEj) refers to nexobject.o(i._ZN9NexObject10getObjNameEv) for NexObject::getObjName()
    nexcheckbox.o(i._ZN11NexCheckbox24Set_background_color_bcoEj) refers to nexbutton.o(i._ZN6StringpLEPKc) for String::operator +=(const char*)
    nexcheckbox.o(i._ZN11NexCheckbox24Set_background_color_bcoEj) refers to nexbutton.o(i._ZNK6String5c_strEv) for String::c_str() const
    nexcheckbox.o(i._ZN11NexCheckbox24Set_background_color_bcoEj) refers to nexhardware.o(i._Z11sendCommandPKc) for sendCommand(const char*)
    nexcheckbox.o(i._ZN11NexCheckbox24Set_background_color_bcoEj) refers to sys.o(i._ZN6StringaSEPKc) for String::operator =(const char*)
    nexcheckbox.o(i._ZN11NexCheckbox24Set_background_color_bcoEj) refers to nexhardware.o(i._Z22recvRetCommandFinishedj) for recvRetCommandFinished(unsigned)
    nexcheckbox.o(i._ZN11NexCheckbox24Set_background_color_bcoEj) refers to sys.o(i._ZN6StringD1Ev) for String::~String()
    nexcheckbox.o(i._ZN11NexCheckbox8getValueEPj) refers to sys.o(i._ZN6StringC1EPKc) for String::String(const char*)
    nexcheckbox.o(i._ZN11NexCheckbox8getValueEPj) refers to nexobject.o(i._ZN9NexObject10getObjNameEv) for NexObject::getObjName()
    nexcheckbox.o(i._ZN11NexCheckbox8getValueEPj) refers to nexbutton.o(i._ZN6StringpLEPKc) for String::operator +=(const char*)
    nexcheckbox.o(i._ZN11NexCheckbox8getValueEPj) refers to nexbutton.o(i._ZNK6String5c_strEv) for String::c_str() const
    nexcheckbox.o(i._ZN11NexCheckbox8getValueEPj) refers to nexhardware.o(i._Z11sendCommandPKc) for sendCommand(const char*)
    nexcheckbox.o(i._ZN11NexCheckbox8getValueEPj) refers to nexhardware.o(i._Z13recvRetNumberPjj) for recvRetNumber(unsigned*, unsigned)
    nexcheckbox.o(i._ZN11NexCheckbox8getValueEPj) refers to sys.o(i._ZN6StringD1Ev) for String::~String()
    nexcheckbox.o(i._ZN11NexCheckbox8setValueEj) refers to sys.o(i._ZN6StringC1EPKc) for String::String(const char*)
    nexcheckbox.o(i._ZN11NexCheckbox8setValueEj) refers to sys.o(i.utoa) for utoa
    nexcheckbox.o(i._ZN11NexCheckbox8setValueEj) refers to nexobject.o(i._ZN9NexObject10getObjNameEv) for NexObject::getObjName()
    nexcheckbox.o(i._ZN11NexCheckbox8setValueEj) refers to nexbutton.o(i._ZN6StringpLEPKc) for String::operator +=(const char*)
    nexcheckbox.o(i._ZN11NexCheckbox8setValueEj) refers to nexbutton.o(i._ZNK6String5c_strEv) for String::c_str() const
    nexcheckbox.o(i._ZN11NexCheckbox8setValueEj) refers to nexhardware.o(i._Z11sendCommandPKc) for sendCommand(const char*)
    nexcheckbox.o(i._ZN11NexCheckbox8setValueEj) refers to nexhardware.o(i._Z22recvRetCommandFinishedj) for recvRetCommandFinished(unsigned)
    nexcheckbox.o(i._ZN11NexCheckbox8setValueEj) refers to sys.o(i._ZN6StringD1Ev) for String::~String()
    nexcheckbox.o(i._ZN11NexCheckboxC1EhhPKc) refers to nextouch.o(i._ZN8NexTouchC1EhhPKc) for NexTouch::NexTouch(unsigned char, unsigned char, const char*)
    nexcheckbox.o(.ARM.exidx) refers to nexcheckbox.o(i._ZN11NexCheckboxC1EhhPKc) for i._ZN11NexCheckboxC1EhhPKc
    nexcheckbox.o(.ARM.exidx) refers to nexcheckbox.o(i._ZN11NexCheckbox8getValueEPj) for i._ZN11NexCheckbox8getValueEPj
    nexcheckbox.o(.ARM.exidx) refers to nexcheckbox.o(i._ZN11NexCheckbox8setValueEj) for i._ZN11NexCheckbox8setValueEj
    nexcheckbox.o(.ARM.exidx) refers to nexcheckbox.o(i._ZN11NexCheckbox24Get_background_color_bcoEPj) for i._ZN11NexCheckbox24Get_background_color_bcoEPj
    nexcheckbox.o(.ARM.exidx) refers to nexcheckbox.o(i._ZN11NexCheckbox24Set_background_color_bcoEj) for i._ZN11NexCheckbox24Set_background_color_bcoEj
    nexcheckbox.o(.ARM.exidx) refers to nexcheckbox.o(i._ZN11NexCheckbox18Get_font_color_pcoEPj) for i._ZN11NexCheckbox18Get_font_color_pcoEPj
    nexcheckbox.o(.ARM.exidx) refers to nexcheckbox.o(i._ZN11NexCheckbox18Set_font_color_pcoEj) for i._ZN11NexCheckbox18Set_font_color_pcoEj
    nexcrop.o(i._ZN7NexCrop24Get_background_crop_piccEPj) refers to sys.o(i._ZN6StringC1EPKc) for String::String(const char*)
    nexcrop.o(i._ZN7NexCrop24Get_background_crop_piccEPj) refers to nexobject.o(i._ZN9NexObject10getObjNameEv) for NexObject::getObjName()
    nexcrop.o(i._ZN7NexCrop24Get_background_crop_piccEPj) refers to nexbutton.o(i._ZN6StringpLEPKc) for String::operator +=(const char*)
    nexcrop.o(i._ZN7NexCrop24Get_background_crop_piccEPj) refers to nexbutton.o(i._ZNK6String5c_strEv) for String::c_str() const
    nexcrop.o(i._ZN7NexCrop24Get_background_crop_piccEPj) refers to nexhardware.o(i._Z11sendCommandPKc) for sendCommand(const char*)
    nexcrop.o(i._ZN7NexCrop24Get_background_crop_piccEPj) refers to nexhardware.o(i._Z13recvRetNumberPjj) for recvRetNumber(unsigned*, unsigned)
    nexcrop.o(i._ZN7NexCrop24Get_background_crop_piccEPj) refers to sys.o(i._ZN6StringD1Ev) for String::~String()
    nexcrop.o(i._ZN7NexCrop24Set_background_crop_piccEj) refers to sys.o(i._ZN6StringC1EPKc) for String::String(const char*)
    nexcrop.o(i._ZN7NexCrop24Set_background_crop_piccEj) refers to sys.o(i.utoa) for utoa
    nexcrop.o(i._ZN7NexCrop24Set_background_crop_piccEj) refers to nexobject.o(i._ZN9NexObject10getObjNameEv) for NexObject::getObjName()
    nexcrop.o(i._ZN7NexCrop24Set_background_crop_piccEj) refers to nexbutton.o(i._ZN6StringpLEPKc) for String::operator +=(const char*)
    nexcrop.o(i._ZN7NexCrop24Set_background_crop_piccEj) refers to nexbutton.o(i._ZNK6String5c_strEv) for String::c_str() const
    nexcrop.o(i._ZN7NexCrop24Set_background_crop_piccEj) refers to nexhardware.o(i._Z11sendCommandPKc) for sendCommand(const char*)
    nexcrop.o(i._ZN7NexCrop24Set_background_crop_piccEj) refers to nexhardware.o(i._Z22recvRetCommandFinishedj) for recvRetCommandFinished(unsigned)
    nexcrop.o(i._ZN7NexCrop24Set_background_crop_piccEj) refers to sys.o(i._ZN6StringD1Ev) for String::~String()
    nexcrop.o(i._ZN7NexCrop6getPicEPj) refers to sys.o(i._ZN6StringC1EPKc) for String::String(const char*)
    nexcrop.o(i._ZN7NexCrop6getPicEPj) refers to nexobject.o(i._ZN9NexObject10getObjNameEv) for NexObject::getObjName()
    nexcrop.o(i._ZN7NexCrop6getPicEPj) refers to nexbutton.o(i._ZN6StringpLEPKc) for String::operator +=(const char*)
    nexcrop.o(i._ZN7NexCrop6getPicEPj) refers to nexbutton.o(i._ZNK6String5c_strEv) for String::c_str() const
    nexcrop.o(i._ZN7NexCrop6getPicEPj) refers to nexhardware.o(i._Z11sendCommandPKc) for sendCommand(const char*)
    nexcrop.o(i._ZN7NexCrop6getPicEPj) refers to nexhardware.o(i._Z13recvRetNumberPjj) for recvRetNumber(unsigned*, unsigned)
    nexcrop.o(i._ZN7NexCrop6getPicEPj) refers to sys.o(i._ZN6StringD1Ev) for String::~String()
    nexcrop.o(i._ZN7NexCrop6setPicEj) refers to sys.o(i._ZN6StringC1EPKc) for String::String(const char*)
    nexcrop.o(i._ZN7NexCrop6setPicEj) refers to sys.o(i.utoa) for utoa
    nexcrop.o(i._ZN7NexCrop6setPicEj) refers to nexobject.o(i._ZN9NexObject10getObjNameEv) for NexObject::getObjName()
    nexcrop.o(i._ZN7NexCrop6setPicEj) refers to nexbutton.o(i._ZN6StringpLEPKc) for String::operator +=(const char*)
    nexcrop.o(i._ZN7NexCrop6setPicEj) refers to nexbutton.o(i._ZNK6String5c_strEv) for String::c_str() const
    nexcrop.o(i._ZN7NexCrop6setPicEj) refers to nexhardware.o(i._Z11sendCommandPKc) for sendCommand(const char*)
    nexcrop.o(i._ZN7NexCrop6setPicEj) refers to nexhardware.o(i._Z22recvRetCommandFinishedj) for recvRetCommandFinished(unsigned)
    nexcrop.o(i._ZN7NexCrop6setPicEj) refers to sys.o(i._ZN6StringD1Ev) for String::~String()
    nexcrop.o(i._ZN7NexCropC1EhhPKc) refers to nextouch.o(i._ZN8NexTouchC1EhhPKc) for NexTouch::NexTouch(unsigned char, unsigned char, const char*)
    nexcrop.o(.ARM.exidx) refers to nexcrop.o(i._ZN7NexCropC1EhhPKc) for i._ZN7NexCropC1EhhPKc
    nexcrop.o(.ARM.exidx) refers to nexcrop.o(i._ZN7NexCrop24Get_background_crop_piccEPj) for i._ZN7NexCrop24Get_background_crop_piccEPj
    nexcrop.o(.ARM.exidx) refers to nexcrop.o(i._ZN7NexCrop24Set_background_crop_piccEj) for i._ZN7NexCrop24Set_background_crop_piccEj
    nexcrop.o(.ARM.exidx) refers to nexcrop.o(i._ZN7NexCrop6getPicEPj) for i._ZN7NexCrop6getPicEPj
    nexcrop.o(.ARM.exidx) refers to nexcrop.o(i._ZN7NexCrop6setPicEj) for i._ZN7NexCrop6setPicEj
    nexdualstatebutton.o(i._ZN11NexDSButton14Get_place_xcenEPj) refers to sys.o(i._ZN6StringC1EPKc) for String::String(const char*)
    nexdualstatebutton.o(i._ZN11NexDSButton14Get_place_xcenEPj) refers to nexbutton.o(i._ZN6StringpLEPKc) for String::operator +=(const char*)
    nexdualstatebutton.o(i._ZN11NexDSButton14Get_place_xcenEPj) refers to nexobject.o(i._ZN9NexObject10getObjNameEv) for NexObject::getObjName()
    nexdualstatebutton.o(i._ZN11NexDSButton14Get_place_xcenEPj) refers to nexbutton.o(i._ZNK6String5c_strEv) for String::c_str() const
    nexdualstatebutton.o(i._ZN11NexDSButton14Get_place_xcenEPj) refers to nexhardware.o(i._Z11sendCommandPKc) for sendCommand(const char*)
    nexdualstatebutton.o(i._ZN11NexDSButton14Get_place_xcenEPj) refers to nexhardware.o(i._Z13recvRetNumberPjj) for recvRetNumber(unsigned*, unsigned)
    nexdualstatebutton.o(i._ZN11NexDSButton14Get_place_xcenEPj) refers to sys.o(i._ZN6StringD1Ev) for String::~String()
    nexdualstatebutton.o(i._ZN11NexDSButton14Get_place_ycenEPj) refers to sys.o(i._ZN6StringC1EPKc) for String::String(const char*)
    nexdualstatebutton.o(i._ZN11NexDSButton14Get_place_ycenEPj) refers to nexbutton.o(i._ZN6StringpLEPKc) for String::operator +=(const char*)
    nexdualstatebutton.o(i._ZN11NexDSButton14Get_place_ycenEPj) refers to nexobject.o(i._ZN9NexObject10getObjNameEv) for NexObject::getObjName()
    nexdualstatebutton.o(i._ZN11NexDSButton14Get_place_ycenEPj) refers to nexbutton.o(i._ZNK6String5c_strEv) for String::c_str() const
    nexdualstatebutton.o(i._ZN11NexDSButton14Get_place_ycenEPj) refers to nexhardware.o(i._Z11sendCommandPKc) for sendCommand(const char*)
    nexdualstatebutton.o(i._ZN11NexDSButton14Get_place_ycenEPj) refers to nexhardware.o(i._Z13recvRetNumberPjj) for recvRetNumber(unsigned*, unsigned)
    nexdualstatebutton.o(i._ZN11NexDSButton14Get_place_ycenEPj) refers to sys.o(i._ZN6StringD1Ev) for String::~String()
    nexdualstatebutton.o(i._ZN11NexDSButton14Set_place_xcenEj) refers to sys.o(i._ZN6StringC1EPKc) for String::String(const char*)
    nexdualstatebutton.o(i._ZN11NexDSButton14Set_place_xcenEj) refers to sys.o(i.utoa) for utoa
    nexdualstatebutton.o(i._ZN11NexDSButton14Set_place_xcenEj) refers to nexobject.o(i._ZN9NexObject10getObjNameEv) for NexObject::getObjName()
    nexdualstatebutton.o(i._ZN11NexDSButton14Set_place_xcenEj) refers to nexbutton.o(i._ZN6StringpLEPKc) for String::operator +=(const char*)
    nexdualstatebutton.o(i._ZN11NexDSButton14Set_place_xcenEj) refers to nexbutton.o(i._ZNK6String5c_strEv) for String::c_str() const
    nexdualstatebutton.o(i._ZN11NexDSButton14Set_place_xcenEj) refers to nexhardware.o(i._Z11sendCommandPKc) for sendCommand(const char*)
    nexdualstatebutton.o(i._ZN11NexDSButton14Set_place_xcenEj) refers to sys.o(i._ZN6StringaSEPKc) for String::operator =(const char*)
    nexdualstatebutton.o(i._ZN11NexDSButton14Set_place_xcenEj) refers to nexhardware.o(i._Z22recvRetCommandFinishedj) for recvRetCommandFinished(unsigned)
    nexdualstatebutton.o(i._ZN11NexDSButton14Set_place_xcenEj) refers to sys.o(i._ZN6StringD1Ev) for String::~String()
    nexdualstatebutton.o(i._ZN11NexDSButton14Set_place_ycenEj) refers to sys.o(i._ZN6StringC1EPKc) for String::String(const char*)
    nexdualstatebutton.o(i._ZN11NexDSButton14Set_place_ycenEj) refers to sys.o(i.utoa) for utoa
    nexdualstatebutton.o(i._ZN11NexDSButton14Set_place_ycenEj) refers to nexobject.o(i._ZN9NexObject10getObjNameEv) for NexObject::getObjName()
    nexdualstatebutton.o(i._ZN11NexDSButton14Set_place_ycenEj) refers to nexbutton.o(i._ZN6StringpLEPKc) for String::operator +=(const char*)
    nexdualstatebutton.o(i._ZN11NexDSButton14Set_place_ycenEj) refers to nexbutton.o(i._ZNK6String5c_strEv) for String::c_str() const
    nexdualstatebutton.o(i._ZN11NexDSButton14Set_place_ycenEj) refers to nexhardware.o(i._Z11sendCommandPKc) for sendCommand(const char*)
    nexdualstatebutton.o(i._ZN11NexDSButton14Set_place_ycenEj) refers to sys.o(i._ZN6StringaSEPKc) for String::operator =(const char*)
    nexdualstatebutton.o(i._ZN11NexDSButton14Set_place_ycenEj) refers to nexhardware.o(i._Z22recvRetCommandFinishedj) for recvRetCommandFinished(unsigned)
    nexdualstatebutton.o(i._ZN11NexDSButton14Set_place_ycenEj) refers to sys.o(i._ZN6StringD1Ev) for String::~String()
    nexdualstatebutton.o(i._ZN11NexDSButton18Get_font_color_pcoEPj) refers to sys.o(i._ZN6StringC1EPKc) for String::String(const char*)
    nexdualstatebutton.o(i._ZN11NexDSButton18Get_font_color_pcoEPj) refers to nexbutton.o(i._ZN6StringpLEPKc) for String::operator +=(const char*)
    nexdualstatebutton.o(i._ZN11NexDSButton18Get_font_color_pcoEPj) refers to nexobject.o(i._ZN9NexObject10getObjNameEv) for NexObject::getObjName()
    nexdualstatebutton.o(i._ZN11NexDSButton18Get_font_color_pcoEPj) refers to nexbutton.o(i._ZNK6String5c_strEv) for String::c_str() const
    nexdualstatebutton.o(i._ZN11NexDSButton18Get_font_color_pcoEPj) refers to nexhardware.o(i._Z11sendCommandPKc) for sendCommand(const char*)
    nexdualstatebutton.o(i._ZN11NexDSButton18Get_font_color_pcoEPj) refers to nexhardware.o(i._Z13recvRetNumberPjj) for recvRetNumber(unsigned*, unsigned)
    nexdualstatebutton.o(i._ZN11NexDSButton18Get_font_color_pcoEPj) refers to sys.o(i._ZN6StringD1Ev) for String::~String()
    nexdualstatebutton.o(i._ZN11NexDSButton18Set_font_color_pcoEj) refers to sys.o(i._ZN6StringC1EPKc) for String::String(const char*)
    nexdualstatebutton.o(i._ZN11NexDSButton18Set_font_color_pcoEj) refers to sys.o(i.utoa) for utoa
    nexdualstatebutton.o(i._ZN11NexDSButton18Set_font_color_pcoEj) refers to nexobject.o(i._ZN9NexObject10getObjNameEv) for NexObject::getObjName()
    nexdualstatebutton.o(i._ZN11NexDSButton18Set_font_color_pcoEj) refers to nexbutton.o(i._ZN6StringpLEPKc) for String::operator +=(const char*)
    nexdualstatebutton.o(i._ZN11NexDSButton18Set_font_color_pcoEj) refers to nexbutton.o(i._ZNK6String5c_strEv) for String::c_str() const
    nexdualstatebutton.o(i._ZN11NexDSButton18Set_font_color_pcoEj) refers to nexhardware.o(i._Z11sendCommandPKc) for sendCommand(const char*)
    nexdualstatebutton.o(i._ZN11NexDSButton18Set_font_color_pcoEj) refers to sys.o(i._ZN6StringaSEPKc) for String::operator =(const char*)
    nexdualstatebutton.o(i._ZN11NexDSButton18Set_font_color_pcoEj) refers to nexhardware.o(i._Z22recvRetCommandFinishedj) for recvRetCommandFinished(unsigned)
    nexdualstatebutton.o(i._ZN11NexDSButton18Set_font_color_pcoEj) refers to sys.o(i._ZN6StringD1Ev) for String::~String()
    nexdualstatebutton.o(i._ZN11NexDSButton21Get_state0_color_bco0EPj) refers to sys.o(i._ZN6StringC1EPKc) for String::String(const char*)
    nexdualstatebutton.o(i._ZN11NexDSButton21Get_state0_color_bco0EPj) refers to nexbutton.o(i._ZN6StringpLEPKc) for String::operator +=(const char*)
    nexdualstatebutton.o(i._ZN11NexDSButton21Get_state0_color_bco0EPj) refers to nexobject.o(i._ZN9NexObject10getObjNameEv) for NexObject::getObjName()
    nexdualstatebutton.o(i._ZN11NexDSButton21Get_state0_color_bco0EPj) refers to nexbutton.o(i._ZNK6String5c_strEv) for String::c_str() const
    nexdualstatebutton.o(i._ZN11NexDSButton21Get_state0_color_bco0EPj) refers to nexhardware.o(i._Z11sendCommandPKc) for sendCommand(const char*)
    nexdualstatebutton.o(i._ZN11NexDSButton21Get_state0_color_bco0EPj) refers to nexhardware.o(i._Z13recvRetNumberPjj) for recvRetNumber(unsigned*, unsigned)
    nexdualstatebutton.o(i._ZN11NexDSButton21Get_state0_color_bco0EPj) refers to sys.o(i._ZN6StringD1Ev) for String::~String()
    nexdualstatebutton.o(i._ZN11NexDSButton21Get_state0_crop_picc0EPj) refers to sys.o(i._ZN6StringC1EPKc) for String::String(const char*)
    nexdualstatebutton.o(i._ZN11NexDSButton21Get_state0_crop_picc0EPj) refers to nexbutton.o(i._ZN6StringpLEPKc) for String::operator +=(const char*)
    nexdualstatebutton.o(i._ZN11NexDSButton21Get_state0_crop_picc0EPj) refers to nexobject.o(i._ZN9NexObject10getObjNameEv) for NexObject::getObjName()
    nexdualstatebutton.o(i._ZN11NexDSButton21Get_state0_crop_picc0EPj) refers to nexbutton.o(i._ZNK6String5c_strEv) for String::c_str() const
    nexdualstatebutton.o(i._ZN11NexDSButton21Get_state0_crop_picc0EPj) refers to nexhardware.o(i._Z11sendCommandPKc) for sendCommand(const char*)
    nexdualstatebutton.o(i._ZN11NexDSButton21Get_state0_crop_picc0EPj) refers to nexhardware.o(i._Z13recvRetNumberPjj) for recvRetNumber(unsigned*, unsigned)
    nexdualstatebutton.o(i._ZN11NexDSButton21Get_state0_crop_picc0EPj) refers to sys.o(i._ZN6StringD1Ev) for String::~String()
    nexdualstatebutton.o(i._ZN11NexDSButton21Get_state0_image_pic0EPj) refers to sys.o(i._ZN6StringC1EPKc) for String::String(const char*)
    nexdualstatebutton.o(i._ZN11NexDSButton21Get_state0_image_pic0EPj) refers to nexbutton.o(i._ZN6StringpLEPKc) for String::operator +=(const char*)
    nexdualstatebutton.o(i._ZN11NexDSButton21Get_state0_image_pic0EPj) refers to nexobject.o(i._ZN9NexObject10getObjNameEv) for NexObject::getObjName()
    nexdualstatebutton.o(i._ZN11NexDSButton21Get_state0_image_pic0EPj) refers to nexbutton.o(i._ZNK6String5c_strEv) for String::c_str() const
    nexdualstatebutton.o(i._ZN11NexDSButton21Get_state0_image_pic0EPj) refers to nexhardware.o(i._Z11sendCommandPKc) for sendCommand(const char*)
    nexdualstatebutton.o(i._ZN11NexDSButton21Get_state0_image_pic0EPj) refers to nexhardware.o(i._Z13recvRetNumberPjj) for recvRetNumber(unsigned*, unsigned)
    nexdualstatebutton.o(i._ZN11NexDSButton21Get_state0_image_pic0EPj) refers to sys.o(i._ZN6StringD1Ev) for String::~String()
    nexdualstatebutton.o(i._ZN11NexDSButton21Get_state1_color_bco1EPj) refers to sys.o(i._ZN6StringC1EPKc) for String::String(const char*)
    nexdualstatebutton.o(i._ZN11NexDSButton21Get_state1_color_bco1EPj) refers to nexbutton.o(i._ZN6StringpLEPKc) for String::operator +=(const char*)
    nexdualstatebutton.o(i._ZN11NexDSButton21Get_state1_color_bco1EPj) refers to nexobject.o(i._ZN9NexObject10getObjNameEv) for NexObject::getObjName()
    nexdualstatebutton.o(i._ZN11NexDSButton21Get_state1_color_bco1EPj) refers to nexbutton.o(i._ZNK6String5c_strEv) for String::c_str() const
    nexdualstatebutton.o(i._ZN11NexDSButton21Get_state1_color_bco1EPj) refers to nexhardware.o(i._Z11sendCommandPKc) for sendCommand(const char*)
    nexdualstatebutton.o(i._ZN11NexDSButton21Get_state1_color_bco1EPj) refers to nexhardware.o(i._Z13recvRetNumberPjj) for recvRetNumber(unsigned*, unsigned)
    nexdualstatebutton.o(i._ZN11NexDSButton21Get_state1_color_bco1EPj) refers to sys.o(i._ZN6StringD1Ev) for String::~String()
    nexdualstatebutton.o(i._ZN11NexDSButton21Get_state1_crop_picc1EPj) refers to sys.o(i._ZN6StringC1EPKc) for String::String(const char*)
    nexdualstatebutton.o(i._ZN11NexDSButton21Get_state1_crop_picc1EPj) refers to nexbutton.o(i._ZN6StringpLEPKc) for String::operator +=(const char*)
    nexdualstatebutton.o(i._ZN11NexDSButton21Get_state1_crop_picc1EPj) refers to nexobject.o(i._ZN9NexObject10getObjNameEv) for NexObject::getObjName()
    nexdualstatebutton.o(i._ZN11NexDSButton21Get_state1_crop_picc1EPj) refers to nexbutton.o(i._ZNK6String5c_strEv) for String::c_str() const
    nexdualstatebutton.o(i._ZN11NexDSButton21Get_state1_crop_picc1EPj) refers to nexhardware.o(i._Z11sendCommandPKc) for sendCommand(const char*)
    nexdualstatebutton.o(i._ZN11NexDSButton21Get_state1_crop_picc1EPj) refers to nexhardware.o(i._Z13recvRetNumberPjj) for recvRetNumber(unsigned*, unsigned)
    nexdualstatebutton.o(i._ZN11NexDSButton21Get_state1_crop_picc1EPj) refers to sys.o(i._ZN6StringD1Ev) for String::~String()
    nexdualstatebutton.o(i._ZN11NexDSButton21Get_state1_image_pic1EPj) refers to sys.o(i._ZN6StringC1EPKc) for String::String(const char*)
    nexdualstatebutton.o(i._ZN11NexDSButton21Get_state1_image_pic1EPj) refers to nexbutton.o(i._ZN6StringpLEPKc) for String::operator +=(const char*)
    nexdualstatebutton.o(i._ZN11NexDSButton21Get_state1_image_pic1EPj) refers to nexobject.o(i._ZN9NexObject10getObjNameEv) for NexObject::getObjName()
    nexdualstatebutton.o(i._ZN11NexDSButton21Get_state1_image_pic1EPj) refers to nexbutton.o(i._ZNK6String5c_strEv) for String::c_str() const
    nexdualstatebutton.o(i._ZN11NexDSButton21Get_state1_image_pic1EPj) refers to nexhardware.o(i._Z11sendCommandPKc) for sendCommand(const char*)
    nexdualstatebutton.o(i._ZN11NexDSButton21Get_state1_image_pic1EPj) refers to nexhardware.o(i._Z13recvRetNumberPjj) for recvRetNumber(unsigned*, unsigned)
    nexdualstatebutton.o(i._ZN11NexDSButton21Get_state1_image_pic1EPj) refers to sys.o(i._ZN6StringD1Ev) for String::~String()
    nexdualstatebutton.o(i._ZN11NexDSButton21Set_state0_color_bco0Ej) refers to sys.o(i._ZN6StringC1EPKc) for String::String(const char*)
    nexdualstatebutton.o(i._ZN11NexDSButton21Set_state0_color_bco0Ej) refers to sys.o(i.utoa) for utoa
    nexdualstatebutton.o(i._ZN11NexDSButton21Set_state0_color_bco0Ej) refers to nexobject.o(i._ZN9NexObject10getObjNameEv) for NexObject::getObjName()
    nexdualstatebutton.o(i._ZN11NexDSButton21Set_state0_color_bco0Ej) refers to nexbutton.o(i._ZN6StringpLEPKc) for String::operator +=(const char*)
    nexdualstatebutton.o(i._ZN11NexDSButton21Set_state0_color_bco0Ej) refers to nexbutton.o(i._ZNK6String5c_strEv) for String::c_str() const
    nexdualstatebutton.o(i._ZN11NexDSButton21Set_state0_color_bco0Ej) refers to nexhardware.o(i._Z11sendCommandPKc) for sendCommand(const char*)
    nexdualstatebutton.o(i._ZN11NexDSButton21Set_state0_color_bco0Ej) refers to sys.o(i._ZN6StringaSEPKc) for String::operator =(const char*)
    nexdualstatebutton.o(i._ZN11NexDSButton21Set_state0_color_bco0Ej) refers to nexhardware.o(i._Z22recvRetCommandFinishedj) for recvRetCommandFinished(unsigned)
    nexdualstatebutton.o(i._ZN11NexDSButton21Set_state0_color_bco0Ej) refers to sys.o(i._ZN6StringD1Ev) for String::~String()
    nexdualstatebutton.o(i._ZN11NexDSButton21Set_state0_crop_picc0Ej) refers to sys.o(i._ZN6StringC1EPKc) for String::String(const char*)
    nexdualstatebutton.o(i._ZN11NexDSButton21Set_state0_crop_picc0Ej) refers to sys.o(i.utoa) for utoa
    nexdualstatebutton.o(i._ZN11NexDSButton21Set_state0_crop_picc0Ej) refers to nexobject.o(i._ZN9NexObject10getObjNameEv) for NexObject::getObjName()
    nexdualstatebutton.o(i._ZN11NexDSButton21Set_state0_crop_picc0Ej) refers to nexbutton.o(i._ZN6StringpLEPKc) for String::operator +=(const char*)
    nexdualstatebutton.o(i._ZN11NexDSButton21Set_state0_crop_picc0Ej) refers to nexbutton.o(i._ZNK6String5c_strEv) for String::c_str() const
    nexdualstatebutton.o(i._ZN11NexDSButton21Set_state0_crop_picc0Ej) refers to nexhardware.o(i._Z11sendCommandPKc) for sendCommand(const char*)
    nexdualstatebutton.o(i._ZN11NexDSButton21Set_state0_crop_picc0Ej) refers to sys.o(i._ZN6StringaSEPKc) for String::operator =(const char*)
    nexdualstatebutton.o(i._ZN11NexDSButton21Set_state0_crop_picc0Ej) refers to nexhardware.o(i._Z22recvRetCommandFinishedj) for recvRetCommandFinished(unsigned)
    nexdualstatebutton.o(i._ZN11NexDSButton21Set_state0_crop_picc0Ej) refers to sys.o(i._ZN6StringD1Ev) for String::~String()
    nexdualstatebutton.o(i._ZN11NexDSButton21Set_state0_image_pic0Ej) refers to sys.o(i._ZN6StringC1EPKc) for String::String(const char*)
    nexdualstatebutton.o(i._ZN11NexDSButton21Set_state0_image_pic0Ej) refers to sys.o(i.utoa) for utoa
    nexdualstatebutton.o(i._ZN11NexDSButton21Set_state0_image_pic0Ej) refers to nexobject.o(i._ZN9NexObject10getObjNameEv) for NexObject::getObjName()
    nexdualstatebutton.o(i._ZN11NexDSButton21Set_state0_image_pic0Ej) refers to nexbutton.o(i._ZN6StringpLEPKc) for String::operator +=(const char*)
    nexdualstatebutton.o(i._ZN11NexDSButton21Set_state0_image_pic0Ej) refers to nexbutton.o(i._ZNK6String5c_strEv) for String::c_str() const
    nexdualstatebutton.o(i._ZN11NexDSButton21Set_state0_image_pic0Ej) refers to nexhardware.o(i._Z11sendCommandPKc) for sendCommand(const char*)
    nexdualstatebutton.o(i._ZN11NexDSButton21Set_state0_image_pic0Ej) refers to sys.o(i._ZN6StringaSEPKc) for String::operator =(const char*)
    nexdualstatebutton.o(i._ZN11NexDSButton21Set_state0_image_pic0Ej) refers to nexhardware.o(i._Z22recvRetCommandFinishedj) for recvRetCommandFinished(unsigned)
    nexdualstatebutton.o(i._ZN11NexDSButton21Set_state0_image_pic0Ej) refers to sys.o(i._ZN6StringD1Ev) for String::~String()
    nexdualstatebutton.o(i._ZN11NexDSButton21Set_state1_color_bco1Ej) refers to sys.o(i._ZN6StringC1EPKc) for String::String(const char*)
    nexdualstatebutton.o(i._ZN11NexDSButton21Set_state1_color_bco1Ej) refers to sys.o(i.utoa) for utoa
    nexdualstatebutton.o(i._ZN11NexDSButton21Set_state1_color_bco1Ej) refers to nexobject.o(i._ZN9NexObject10getObjNameEv) for NexObject::getObjName()
    nexdualstatebutton.o(i._ZN11NexDSButton21Set_state1_color_bco1Ej) refers to nexbutton.o(i._ZN6StringpLEPKc) for String::operator +=(const char*)
    nexdualstatebutton.o(i._ZN11NexDSButton21Set_state1_color_bco1Ej) refers to nexbutton.o(i._ZNK6String5c_strEv) for String::c_str() const
    nexdualstatebutton.o(i._ZN11NexDSButton21Set_state1_color_bco1Ej) refers to nexhardware.o(i._Z11sendCommandPKc) for sendCommand(const char*)
    nexdualstatebutton.o(i._ZN11NexDSButton21Set_state1_color_bco1Ej) refers to sys.o(i._ZN6StringaSEPKc) for String::operator =(const char*)
    nexdualstatebutton.o(i._ZN11NexDSButton21Set_state1_color_bco1Ej) refers to nexhardware.o(i._Z22recvRetCommandFinishedj) for recvRetCommandFinished(unsigned)
    nexdualstatebutton.o(i._ZN11NexDSButton21Set_state1_color_bco1Ej) refers to sys.o(i._ZN6StringD1Ev) for String::~String()
    nexdualstatebutton.o(i._ZN11NexDSButton21Set_state1_crop_picc1Ej) refers to sys.o(i._ZN6StringC1EPKc) for String::String(const char*)
    nexdualstatebutton.o(i._ZN11NexDSButton21Set_state1_crop_picc1Ej) refers to sys.o(i.utoa) for utoa
    nexdualstatebutton.o(i._ZN11NexDSButton21Set_state1_crop_picc1Ej) refers to nexobject.o(i._ZN9NexObject10getObjNameEv) for NexObject::getObjName()
    nexdualstatebutton.o(i._ZN11NexDSButton21Set_state1_crop_picc1Ej) refers to nexbutton.o(i._ZN6StringpLEPKc) for String::operator +=(const char*)
    nexdualstatebutton.o(i._ZN11NexDSButton21Set_state1_crop_picc1Ej) refers to nexbutton.o(i._ZNK6String5c_strEv) for String::c_str() const
    nexdualstatebutton.o(i._ZN11NexDSButton21Set_state1_crop_picc1Ej) refers to nexhardware.o(i._Z11sendCommandPKc) for sendCommand(const char*)
    nexdualstatebutton.o(i._ZN11NexDSButton21Set_state1_crop_picc1Ej) refers to sys.o(i._ZN6StringaSEPKc) for String::operator =(const char*)
    nexdualstatebutton.o(i._ZN11NexDSButton21Set_state1_crop_picc1Ej) refers to nexhardware.o(i._Z22recvRetCommandFinishedj) for recvRetCommandFinished(unsigned)
    nexdualstatebutton.o(i._ZN11NexDSButton21Set_state1_crop_picc1Ej) refers to sys.o(i._ZN6StringD1Ev) for String::~String()
    nexdualstatebutton.o(i._ZN11NexDSButton21Set_state1_image_pic1Ej) refers to sys.o(i._ZN6StringC1EPKc) for String::String(const char*)
    nexdualstatebutton.o(i._ZN11NexDSButton21Set_state1_image_pic1Ej) refers to sys.o(i.utoa) for utoa
    nexdualstatebutton.o(i._ZN11NexDSButton21Set_state1_image_pic1Ej) refers to nexobject.o(i._ZN9NexObject10getObjNameEv) for NexObject::getObjName()
    nexdualstatebutton.o(i._ZN11NexDSButton21Set_state1_image_pic1Ej) refers to nexbutton.o(i._ZN6StringpLEPKc) for String::operator +=(const char*)
    nexdualstatebutton.o(i._ZN11NexDSButton21Set_state1_image_pic1Ej) refers to nexbutton.o(i._ZNK6String5c_strEv) for String::c_str() const
    nexdualstatebutton.o(i._ZN11NexDSButton21Set_state1_image_pic1Ej) refers to nexhardware.o(i._Z11sendCommandPKc) for sendCommand(const char*)
    nexdualstatebutton.o(i._ZN11NexDSButton21Set_state1_image_pic1Ej) refers to sys.o(i._ZN6StringaSEPKc) for String::operator =(const char*)
    nexdualstatebutton.o(i._ZN11NexDSButton21Set_state1_image_pic1Ej) refers to nexhardware.o(i._Z22recvRetCommandFinishedj) for recvRetCommandFinished(unsigned)
    nexdualstatebutton.o(i._ZN11NexDSButton21Set_state1_image_pic1Ej) refers to sys.o(i._ZN6StringD1Ev) for String::~String()
    nexdualstatebutton.o(i._ZN11NexDSButton7getFontEPj) refers to sys.o(i._ZN6StringC1EPKc) for String::String(const char*)
    nexdualstatebutton.o(i._ZN11NexDSButton7getFontEPj) refers to nexbutton.o(i._ZN6StringpLEPKc) for String::operator +=(const char*)
    nexdualstatebutton.o(i._ZN11NexDSButton7getFontEPj) refers to nexobject.o(i._ZN9NexObject10getObjNameEv) for NexObject::getObjName()
    nexdualstatebutton.o(i._ZN11NexDSButton7getFontEPj) refers to nexbutton.o(i._ZNK6String5c_strEv) for String::c_str() const
    nexdualstatebutton.o(i._ZN11NexDSButton7getFontEPj) refers to nexhardware.o(i._Z11sendCommandPKc) for sendCommand(const char*)
    nexdualstatebutton.o(i._ZN11NexDSButton7getFontEPj) refers to nexhardware.o(i._Z13recvRetNumberPjj) for recvRetNumber(unsigned*, unsigned)
    nexdualstatebutton.o(i._ZN11NexDSButton7getFontEPj) refers to sys.o(i._ZN6StringD1Ev) for String::~String()
    nexdualstatebutton.o(i._ZN11NexDSButton7getTextEPct) refers to sys.o(i._ZN6StringC1EPKc) for String::String(const char*)
    nexdualstatebutton.o(i._ZN11NexDSButton7getTextEPct) refers to nexbutton.o(i._ZN6StringpLEPKc) for String::operator +=(const char*)
    nexdualstatebutton.o(i._ZN11NexDSButton7getTextEPct) refers to nexobject.o(i._ZN9NexObject10getObjNameEv) for NexObject::getObjName()
    nexdualstatebutton.o(i._ZN11NexDSButton7getTextEPct) refers to nexbutton.o(i._ZNK6String5c_strEv) for String::c_str() const
    nexdualstatebutton.o(i._ZN11NexDSButton7getTextEPct) refers to nexhardware.o(i._Z11sendCommandPKc) for sendCommand(const char*)
    nexdualstatebutton.o(i._ZN11NexDSButton7getTextEPct) refers to nexhardware.o(i._Z13recvRetStringPctj) for recvRetString(char*, unsigned short, unsigned)
    nexdualstatebutton.o(i._ZN11NexDSButton7getTextEPct) refers to sys.o(i._ZN6StringD1Ev) for String::~String()
    nexdualstatebutton.o(i._ZN11NexDSButton7setFontEj) refers to sys.o(i._ZN6StringC1EPKc) for String::String(const char*)
    nexdualstatebutton.o(i._ZN11NexDSButton7setFontEj) refers to sys.o(i.utoa) for utoa
    nexdualstatebutton.o(i._ZN11NexDSButton7setFontEj) refers to nexobject.o(i._ZN9NexObject10getObjNameEv) for NexObject::getObjName()
    nexdualstatebutton.o(i._ZN11NexDSButton7setFontEj) refers to nexbutton.o(i._ZN6StringpLEPKc) for String::operator +=(const char*)
    nexdualstatebutton.o(i._ZN11NexDSButton7setFontEj) refers to nexbutton.o(i._ZNK6String5c_strEv) for String::c_str() const
    nexdualstatebutton.o(i._ZN11NexDSButton7setFontEj) refers to nexhardware.o(i._Z11sendCommandPKc) for sendCommand(const char*)
    nexdualstatebutton.o(i._ZN11NexDSButton7setFontEj) refers to sys.o(i._ZN6StringaSEPKc) for String::operator =(const char*)
    nexdualstatebutton.o(i._ZN11NexDSButton7setFontEj) refers to nexhardware.o(i._Z22recvRetCommandFinishedj) for recvRetCommandFinished(unsigned)
    nexdualstatebutton.o(i._ZN11NexDSButton7setFontEj) refers to sys.o(i._ZN6StringD1Ev) for String::~String()
    nexdualstatebutton.o(i._ZN11NexDSButton7setTextEPKc) refers to sys.o(i._ZN6StringC1EPKc) for String::String(const char*)
    nexdualstatebutton.o(i._ZN11NexDSButton7setTextEPKc) refers to nexobject.o(i._ZN9NexObject10getObjNameEv) for NexObject::getObjName()
    nexdualstatebutton.o(i._ZN11NexDSButton7setTextEPKc) refers to nexbutton.o(i._ZN6StringpLEPKc) for String::operator +=(const char*)
    nexdualstatebutton.o(i._ZN11NexDSButton7setTextEPKc) refers to nexbutton.o(i._ZNK6String5c_strEv) for String::c_str() const
    nexdualstatebutton.o(i._ZN11NexDSButton7setTextEPKc) refers to nexhardware.o(i._Z11sendCommandPKc) for sendCommand(const char*)
    nexdualstatebutton.o(i._ZN11NexDSButton7setTextEPKc) refers to nexhardware.o(i._Z22recvRetCommandFinishedj) for recvRetCommandFinished(unsigned)
    nexdualstatebutton.o(i._ZN11NexDSButton7setTextEPKc) refers to sys.o(i._ZN6StringD1Ev) for String::~String()
    nexdualstatebutton.o(i._ZN11NexDSButton8getValueEPj) refers to sys.o(i._ZN6StringC1EPKc) for String::String(const char*)
    nexdualstatebutton.o(i._ZN11NexDSButton8getValueEPj) refers to nexobject.o(i._ZN9NexObject10getObjNameEv) for NexObject::getObjName()
    nexdualstatebutton.o(i._ZN11NexDSButton8getValueEPj) refers to nexbutton.o(i._ZN6StringpLEPKc) for String::operator +=(const char*)
    nexdualstatebutton.o(i._ZN11NexDSButton8getValueEPj) refers to nexbutton.o(i._ZNK6String5c_strEv) for String::c_str() const
    nexdualstatebutton.o(i._ZN11NexDSButton8getValueEPj) refers to nexhardware.o(i._Z11sendCommandPKc) for sendCommand(const char*)
    nexdualstatebutton.o(i._ZN11NexDSButton8getValueEPj) refers to nexhardware.o(i._Z13recvRetNumberPjj) for recvRetNumber(unsigned*, unsigned)
    nexdualstatebutton.o(i._ZN11NexDSButton8getValueEPj) refers to sys.o(i._ZN6StringD1Ev) for String::~String()
    nexdualstatebutton.o(i._ZN11NexDSButton8setValueEj) refers to sys.o(i._ZN6StringC1EPKc) for String::String(const char*)
    nexdualstatebutton.o(i._ZN11NexDSButton8setValueEj) refers to sys.o(i.utoa) for utoa
    nexdualstatebutton.o(i._ZN11NexDSButton8setValueEj) refers to nexobject.o(i._ZN9NexObject10getObjNameEv) for NexObject::getObjName()
    nexdualstatebutton.o(i._ZN11NexDSButton8setValueEj) refers to nexbutton.o(i._ZN6StringpLEPKc) for String::operator +=(const char*)
    nexdualstatebutton.o(i._ZN11NexDSButton8setValueEj) refers to nexbutton.o(i._ZNK6String5c_strEv) for String::c_str() const
    nexdualstatebutton.o(i._ZN11NexDSButton8setValueEj) refers to nexhardware.o(i._Z11sendCommandPKc) for sendCommand(const char*)
    nexdualstatebutton.o(i._ZN11NexDSButton8setValueEj) refers to nexhardware.o(i._Z22recvRetCommandFinishedj) for recvRetCommandFinished(unsigned)
    nexdualstatebutton.o(i._ZN11NexDSButton8setValueEj) refers to sys.o(i._ZN6StringD1Ev) for String::~String()
    nexdualstatebutton.o(i._ZN11NexDSButtonC1EhhPKc) refers to nextouch.o(i._ZN8NexTouchC1EhhPKc) for NexTouch::NexTouch(unsigned char, unsigned char, const char*)
    nexdualstatebutton.o(.ARM.exidx) refers to nexdualstatebutton.o(i._ZN11NexDSButtonC1EhhPKc) for i._ZN11NexDSButtonC1EhhPKc
    nexdualstatebutton.o(.ARM.exidx) refers to nexdualstatebutton.o(i._ZN11NexDSButton8getValueEPj) for i._ZN11NexDSButton8getValueEPj
    nexdualstatebutton.o(.ARM.exidx) refers to nexdualstatebutton.o(i._ZN11NexDSButton8setValueEj) for i._ZN11NexDSButton8setValueEj
    nexdualstatebutton.o(.ARM.exidx) refers to nexdualstatebutton.o(i._ZN11NexDSButton7getTextEPct) for i._ZN11NexDSButton7getTextEPct
    nexdualstatebutton.o(.ARM.exidx) refers to nexdualstatebutton.o(i._ZN11NexDSButton7setTextEPKc) for i._ZN11NexDSButton7setTextEPKc
    nexdualstatebutton.o(.ARM.exidx) refers to nexdualstatebutton.o(i._ZN11NexDSButton21Get_state0_color_bco0EPj) for i._ZN11NexDSButton21Get_state0_color_bco0EPj
    nexdualstatebutton.o(.ARM.exidx) refers to nexdualstatebutton.o(i._ZN11NexDSButton21Set_state0_color_bco0Ej) for i._ZN11NexDSButton21Set_state0_color_bco0Ej
    nexdualstatebutton.o(.ARM.exidx) refers to nexdualstatebutton.o(i._ZN11NexDSButton21Get_state1_color_bco1EPj) for i._ZN11NexDSButton21Get_state1_color_bco1EPj
    nexdualstatebutton.o(.ARM.exidx) refers to nexdualstatebutton.o(i._ZN11NexDSButton21Set_state1_color_bco1Ej) for i._ZN11NexDSButton21Set_state1_color_bco1Ej
    nexdualstatebutton.o(.ARM.exidx) refers to nexdualstatebutton.o(i._ZN11NexDSButton18Get_font_color_pcoEPj) for i._ZN11NexDSButton18Get_font_color_pcoEPj
    nexdualstatebutton.o(.ARM.exidx) refers to nexdualstatebutton.o(i._ZN11NexDSButton18Set_font_color_pcoEj) for i._ZN11NexDSButton18Set_font_color_pcoEj
    nexdualstatebutton.o(.ARM.exidx) refers to nexdualstatebutton.o(i._ZN11NexDSButton14Get_place_xcenEPj) for i._ZN11NexDSButton14Get_place_xcenEPj
    nexdualstatebutton.o(.ARM.exidx) refers to nexdualstatebutton.o(i._ZN11NexDSButton14Set_place_xcenEj) for i._ZN11NexDSButton14Set_place_xcenEj
    nexdualstatebutton.o(.ARM.exidx) refers to nexdualstatebutton.o(i._ZN11NexDSButton14Get_place_ycenEPj) for i._ZN11NexDSButton14Get_place_ycenEPj
    nexdualstatebutton.o(.ARM.exidx) refers to nexdualstatebutton.o(i._ZN11NexDSButton14Set_place_ycenEj) for i._ZN11NexDSButton14Set_place_ycenEj
    nexdualstatebutton.o(.ARM.exidx) refers to nexdualstatebutton.o(i._ZN11NexDSButton7getFontEPj) for i._ZN11NexDSButton7getFontEPj
    nexdualstatebutton.o(.ARM.exidx) refers to nexdualstatebutton.o(i._ZN11NexDSButton7setFontEj) for i._ZN11NexDSButton7setFontEj
    nexdualstatebutton.o(.ARM.exidx) refers to nexdualstatebutton.o(i._ZN11NexDSButton21Get_state0_crop_picc0EPj) for i._ZN11NexDSButton21Get_state0_crop_picc0EPj
    nexdualstatebutton.o(.ARM.exidx) refers to nexdualstatebutton.o(i._ZN11NexDSButton21Set_state0_crop_picc0Ej) for i._ZN11NexDSButton21Set_state0_crop_picc0Ej
    nexdualstatebutton.o(.ARM.exidx) refers to nexdualstatebutton.o(i._ZN11NexDSButton21Get_state1_crop_picc1EPj) for i._ZN11NexDSButton21Get_state1_crop_picc1EPj
    nexdualstatebutton.o(.ARM.exidx) refers to nexdualstatebutton.o(i._ZN11NexDSButton21Set_state1_crop_picc1Ej) for i._ZN11NexDSButton21Set_state1_crop_picc1Ej
    nexdualstatebutton.o(.ARM.exidx) refers to nexdualstatebutton.o(i._ZN11NexDSButton21Get_state0_image_pic0EPj) for i._ZN11NexDSButton21Get_state0_image_pic0EPj
    nexdualstatebutton.o(.ARM.exidx) refers to nexdualstatebutton.o(i._ZN11NexDSButton21Set_state0_image_pic0Ej) for i._ZN11NexDSButton21Set_state0_image_pic0Ej
    nexdualstatebutton.o(.ARM.exidx) refers to nexdualstatebutton.o(i._ZN11NexDSButton21Get_state1_image_pic1EPj) for i._ZN11NexDSButton21Get_state1_image_pic1EPj
    nexdualstatebutton.o(.ARM.exidx) refers to nexdualstatebutton.o(i._ZN11NexDSButton21Set_state1_image_pic1Ej) for i._ZN11NexDSButton21Set_state1_image_pic1Ej
    nexgauge.o(i._ZN8NexGauge18Get_font_color_pcoEPj) refers to sys.o(i._ZN6StringC1EPKc) for String::String(const char*)
    nexgauge.o(i._ZN8NexGauge18Get_font_color_pcoEPj) refers to nexbutton.o(i._ZN6StringpLEPKc) for String::operator +=(const char*)
    nexgauge.o(i._ZN8NexGauge18Get_font_color_pcoEPj) refers to nexobject.o(i._ZN9NexObject10getObjNameEv) for NexObject::getObjName()
    nexgauge.o(i._ZN8NexGauge18Get_font_color_pcoEPj) refers to nexbutton.o(i._ZNK6String5c_strEv) for String::c_str() const
    nexgauge.o(i._ZN8NexGauge18Get_font_color_pcoEPj) refers to nexhardware.o(i._Z11sendCommandPKc) for sendCommand(const char*)
    nexgauge.o(i._ZN8NexGauge18Get_font_color_pcoEPj) refers to nexhardware.o(i._Z13recvRetNumberPjj) for recvRetNumber(unsigned*, unsigned)
    nexgauge.o(i._ZN8NexGauge18Get_font_color_pcoEPj) refers to sys.o(i._ZN6StringD1Ev) for String::~String()
    nexgauge.o(i._ZN8NexGauge18Set_font_color_pcoEj) refers to sys.o(i._ZN6StringC1EPKc) for String::String(const char*)
    nexgauge.o(i._ZN8NexGauge18Set_font_color_pcoEj) refers to sys.o(i.utoa) for utoa
    nexgauge.o(i._ZN8NexGauge18Set_font_color_pcoEj) refers to nexobject.o(i._ZN9NexObject10getObjNameEv) for NexObject::getObjName()
    nexgauge.o(i._ZN8NexGauge18Set_font_color_pcoEj) refers to nexbutton.o(i._ZN6StringpLEPKc) for String::operator +=(const char*)
    nexgauge.o(i._ZN8NexGauge18Set_font_color_pcoEj) refers to nexbutton.o(i._ZNK6String5c_strEv) for String::c_str() const
    nexgauge.o(i._ZN8NexGauge18Set_font_color_pcoEj) refers to nexhardware.o(i._Z11sendCommandPKc) for sendCommand(const char*)
    nexgauge.o(i._ZN8NexGauge18Set_font_color_pcoEj) refers to sys.o(i._ZN6StringaSEPKc) for String::operator =(const char*)
    nexgauge.o(i._ZN8NexGauge18Set_font_color_pcoEj) refers to nexhardware.o(i._Z22recvRetCommandFinishedj) for recvRetCommandFinished(unsigned)
    nexgauge.o(i._ZN8NexGauge18Set_font_color_pcoEj) refers to sys.o(i._ZN6StringD1Ev) for String::~String()
    nexgauge.o(i._ZN8NexGauge24Get_background_color_bcoEPj) refers to sys.o(i._ZN6StringC1EPKc) for String::String(const char*)
    nexgauge.o(i._ZN8NexGauge24Get_background_color_bcoEPj) refers to nexbutton.o(i._ZN6StringpLEPKc) for String::operator +=(const char*)
    nexgauge.o(i._ZN8NexGauge24Get_background_color_bcoEPj) refers to nexobject.o(i._ZN9NexObject10getObjNameEv) for NexObject::getObjName()
    nexgauge.o(i._ZN8NexGauge24Get_background_color_bcoEPj) refers to nexbutton.o(i._ZNK6String5c_strEv) for String::c_str() const
    nexgauge.o(i._ZN8NexGauge24Get_background_color_bcoEPj) refers to nexhardware.o(i._Z11sendCommandPKc) for sendCommand(const char*)
    nexgauge.o(i._ZN8NexGauge24Get_background_color_bcoEPj) refers to nexhardware.o(i._Z13recvRetNumberPjj) for recvRetNumber(unsigned*, unsigned)
    nexgauge.o(i._ZN8NexGauge24Get_background_color_bcoEPj) refers to sys.o(i._ZN6StringD1Ev) for String::~String()
    nexgauge.o(i._ZN8NexGauge24Set_background_color_bcoEj) refers to sys.o(i._ZN6StringC1EPKc) for String::String(const char*)
    nexgauge.o(i._ZN8NexGauge24Set_background_color_bcoEj) refers to sys.o(i.utoa) for utoa
    nexgauge.o(i._ZN8NexGauge24Set_background_color_bcoEj) refers to nexobject.o(i._ZN9NexObject10getObjNameEv) for NexObject::getObjName()
    nexgauge.o(i._ZN8NexGauge24Set_background_color_bcoEj) refers to nexbutton.o(i._ZN6StringpLEPKc) for String::operator +=(const char*)
    nexgauge.o(i._ZN8NexGauge24Set_background_color_bcoEj) refers to nexbutton.o(i._ZNK6String5c_strEv) for String::c_str() const
    nexgauge.o(i._ZN8NexGauge24Set_background_color_bcoEj) refers to nexhardware.o(i._Z11sendCommandPKc) for sendCommand(const char*)
    nexgauge.o(i._ZN8NexGauge24Set_background_color_bcoEj) refers to sys.o(i._ZN6StringaSEPKc) for String::operator =(const char*)
    nexgauge.o(i._ZN8NexGauge24Set_background_color_bcoEj) refers to nexhardware.o(i._Z22recvRetCommandFinishedj) for recvRetCommandFinished(unsigned)
    nexgauge.o(i._ZN8NexGauge24Set_background_color_bcoEj) refers to sys.o(i._ZN6StringD1Ev) for String::~String()
    nexgauge.o(i._ZN8NexGauge24Set_background_crop_piccEj) refers to sys.o(i._ZN6StringC1EPKc) for String::String(const char*)
    nexgauge.o(i._ZN8NexGauge24Set_background_crop_piccEj) refers to sys.o(i.utoa) for utoa
    nexgauge.o(i._ZN8NexGauge24Set_background_crop_piccEj) refers to nexobject.o(i._ZN9NexObject10getObjNameEv) for NexObject::getObjName()
    nexgauge.o(i._ZN8NexGauge24Set_background_crop_piccEj) refers to nexbutton.o(i._ZN6StringpLEPKc) for String::operator +=(const char*)
    nexgauge.o(i._ZN8NexGauge24Set_background_crop_piccEj) refers to nexbutton.o(i._ZNK6String5c_strEv) for String::c_str() const
    nexgauge.o(i._ZN8NexGauge24Set_background_crop_piccEj) refers to nexhardware.o(i._Z11sendCommandPKc) for sendCommand(const char*)
    nexgauge.o(i._ZN8NexGauge24Set_background_crop_piccEj) refers to sys.o(i._ZN6StringaSEPKc) for String::operator =(const char*)
    nexgauge.o(i._ZN8NexGauge24Set_background_crop_piccEj) refers to nexhardware.o(i._Z22recvRetCommandFinishedj) for recvRetCommandFinished(unsigned)
    nexgauge.o(i._ZN8NexGauge24Set_background_crop_piccEj) refers to sys.o(i._ZN6StringD1Ev) for String::~String()
    nexgauge.o(i._ZN8NexGauge25Get_background_cropi_piccEPj) refers to sys.o(i._ZN6StringC1EPKc) for String::String(const char*)
    nexgauge.o(i._ZN8NexGauge25Get_background_cropi_piccEPj) refers to nexbutton.o(i._ZN6StringpLEPKc) for String::operator +=(const char*)
    nexgauge.o(i._ZN8NexGauge25Get_background_cropi_piccEPj) refers to nexobject.o(i._ZN9NexObject10getObjNameEv) for NexObject::getObjName()
    nexgauge.o(i._ZN8NexGauge25Get_background_cropi_piccEPj) refers to nexbutton.o(i._ZNK6String5c_strEv) for String::c_str() const
    nexgauge.o(i._ZN8NexGauge25Get_background_cropi_piccEPj) refers to nexhardware.o(i._Z11sendCommandPKc) for sendCommand(const char*)
    nexgauge.o(i._ZN8NexGauge25Get_background_cropi_piccEPj) refers to nexhardware.o(i._Z13recvRetNumberPjj) for recvRetNumber(unsigned*, unsigned)
    nexgauge.o(i._ZN8NexGauge25Get_background_cropi_piccEPj) refers to sys.o(i._ZN6StringD1Ev) for String::~String()
    nexgauge.o(i._ZN8NexGauge25Get_pointer_thickness_widEPj) refers to sys.o(i._ZN6StringC1EPKc) for String::String(const char*)
    nexgauge.o(i._ZN8NexGauge25Get_pointer_thickness_widEPj) refers to nexbutton.o(i._ZN6StringpLEPKc) for String::operator +=(const char*)
    nexgauge.o(i._ZN8NexGauge25Get_pointer_thickness_widEPj) refers to nexobject.o(i._ZN9NexObject10getObjNameEv) for NexObject::getObjName()
    nexgauge.o(i._ZN8NexGauge25Get_pointer_thickness_widEPj) refers to nexbutton.o(i._ZNK6String5c_strEv) for String::c_str() const
    nexgauge.o(i._ZN8NexGauge25Get_pointer_thickness_widEPj) refers to nexhardware.o(i._Z11sendCommandPKc) for sendCommand(const char*)
    nexgauge.o(i._ZN8NexGauge25Get_pointer_thickness_widEPj) refers to nexhardware.o(i._Z13recvRetNumberPjj) for recvRetNumber(unsigned*, unsigned)
    nexgauge.o(i._ZN8NexGauge25Get_pointer_thickness_widEPj) refers to sys.o(i._ZN6StringD1Ev) for String::~String()
    nexgauge.o(i._ZN8NexGauge25Set_pointer_thickness_widEj) refers to sys.o(i._ZN6StringC1EPKc) for String::String(const char*)
    nexgauge.o(i._ZN8NexGauge25Set_pointer_thickness_widEj) refers to sys.o(i.utoa) for utoa
    nexgauge.o(i._ZN8NexGauge25Set_pointer_thickness_widEj) refers to nexobject.o(i._ZN9NexObject10getObjNameEv) for NexObject::getObjName()
    nexgauge.o(i._ZN8NexGauge25Set_pointer_thickness_widEj) refers to nexbutton.o(i._ZN6StringpLEPKc) for String::operator +=(const char*)
    nexgauge.o(i._ZN8NexGauge25Set_pointer_thickness_widEj) refers to nexbutton.o(i._ZNK6String5c_strEv) for String::c_str() const
    nexgauge.o(i._ZN8NexGauge25Set_pointer_thickness_widEj) refers to nexhardware.o(i._Z11sendCommandPKc) for sendCommand(const char*)
    nexgauge.o(i._ZN8NexGauge25Set_pointer_thickness_widEj) refers to sys.o(i._ZN6StringaSEPKc) for String::operator =(const char*)
    nexgauge.o(i._ZN8NexGauge25Set_pointer_thickness_widEj) refers to nexhardware.o(i._Z22recvRetCommandFinishedj) for recvRetCommandFinished(unsigned)
    nexgauge.o(i._ZN8NexGauge25Set_pointer_thickness_widEj) refers to sys.o(i._ZN6StringD1Ev) for String::~String()
    nexgauge.o(i._ZN8NexGauge8getValueEPj) refers to sys.o(i._ZN6StringC1EPKc) for String::String(const char*)
    nexgauge.o(i._ZN8NexGauge8getValueEPj) refers to nexobject.o(i._ZN9NexObject10getObjNameEv) for NexObject::getObjName()
    nexgauge.o(i._ZN8NexGauge8getValueEPj) refers to nexbutton.o(i._ZN6StringpLEPKc) for String::operator +=(const char*)
    nexgauge.o(i._ZN8NexGauge8getValueEPj) refers to nexbutton.o(i._ZNK6String5c_strEv) for String::c_str() const
    nexgauge.o(i._ZN8NexGauge8getValueEPj) refers to nexhardware.o(i._Z11sendCommandPKc) for sendCommand(const char*)
    nexgauge.o(i._ZN8NexGauge8getValueEPj) refers to nexhardware.o(i._Z13recvRetNumberPjj) for recvRetNumber(unsigned*, unsigned)
    nexgauge.o(i._ZN8NexGauge8getValueEPj) refers to sys.o(i._ZN6StringD1Ev) for String::~String()
    nexgauge.o(i._ZN8NexGauge8setValueEj) refers to sys.o(i._ZN6StringC1EPKc) for String::String(const char*)
    nexgauge.o(i._ZN8NexGauge8setValueEj) refers to sys.o(i.utoa) for utoa
    nexgauge.o(i._ZN8NexGauge8setValueEj) refers to nexobject.o(i._ZN9NexObject10getObjNameEv) for NexObject::getObjName()
    nexgauge.o(i._ZN8NexGauge8setValueEj) refers to nexbutton.o(i._ZN6StringpLEPKc) for String::operator +=(const char*)
    nexgauge.o(i._ZN8NexGauge8setValueEj) refers to nexbutton.o(i._ZNK6String5c_strEv) for String::c_str() const
    nexgauge.o(i._ZN8NexGauge8setValueEj) refers to nexhardware.o(i._Z11sendCommandPKc) for sendCommand(const char*)
    nexgauge.o(i._ZN8NexGauge8setValueEj) refers to nexhardware.o(i._Z22recvRetCommandFinishedj) for recvRetCommandFinished(unsigned)
    nexgauge.o(i._ZN8NexGauge8setValueEj) refers to sys.o(i._ZN6StringD1Ev) for String::~String()
    nexgauge.o(i._ZN8NexGaugeC1EhhPKc) refers to nexobject.o(i._ZN9NexObjectC1EhhPKc) for NexObject::NexObject(unsigned char, unsigned char, const char*)
    nexgauge.o(.ARM.exidx) refers to nexgauge.o(i._ZN8NexGaugeC1EhhPKc) for i._ZN8NexGaugeC1EhhPKc
    nexgauge.o(.ARM.exidx) refers to nexgauge.o(i._ZN8NexGauge8getValueEPj) for i._ZN8NexGauge8getValueEPj
    nexgauge.o(.ARM.exidx) refers to nexgauge.o(i._ZN8NexGauge8setValueEj) for i._ZN8NexGauge8setValueEj
    nexgauge.o(.ARM.exidx) refers to nexgauge.o(i._ZN8NexGauge24Get_background_color_bcoEPj) for i._ZN8NexGauge24Get_background_color_bcoEPj
    nexgauge.o(.ARM.exidx) refers to nexgauge.o(i._ZN8NexGauge24Set_background_color_bcoEj) for i._ZN8NexGauge24Set_background_color_bcoEj
    nexgauge.o(.ARM.exidx) refers to nexgauge.o(i._ZN8NexGauge18Get_font_color_pcoEPj) for i._ZN8NexGauge18Get_font_color_pcoEPj
    nexgauge.o(.ARM.exidx) refers to nexgauge.o(i._ZN8NexGauge18Set_font_color_pcoEj) for i._ZN8NexGauge18Set_font_color_pcoEj
    nexgauge.o(.ARM.exidx) refers to nexgauge.o(i._ZN8NexGauge25Get_pointer_thickness_widEPj) for i._ZN8NexGauge25Get_pointer_thickness_widEPj
    nexgauge.o(.ARM.exidx) refers to nexgauge.o(i._ZN8NexGauge25Set_pointer_thickness_widEj) for i._ZN8NexGauge25Set_pointer_thickness_widEj
    nexgauge.o(.ARM.exidx) refers to nexgauge.o(i._ZN8NexGauge25Get_background_cropi_piccEPj) for i._ZN8NexGauge25Get_background_cropi_piccEPj
    nexgauge.o(.ARM.exidx) refers to nexgauge.o(i._ZN8NexGauge24Set_background_crop_piccEj) for i._ZN8NexGauge24Set_background_crop_piccEj
    nexgpio.o(i._ZN7NexGpio11get_pwmfreqEPj) refers to sys.o(i._ZN6StringC1EPKc) for String::String(const char*)
    nexgpio.o(i._ZN7NexGpio11get_pwmfreqEPj) refers to nexbutton.o(i._ZNK6String5c_strEv) for String::c_str() const
    nexgpio.o(i._ZN7NexGpio11get_pwmfreqEPj) refers to nexhardware.o(i._Z11sendCommandPKc) for sendCommand(const char*)
    nexgpio.o(i._ZN7NexGpio11get_pwmfreqEPj) refers to nexhardware.o(i._Z13recvRetNumberPjj) for recvRetNumber(unsigned*, unsigned)
    nexgpio.o(i._ZN7NexGpio11get_pwmfreqEPj) refers to sys.o(i._ZN6StringD1Ev) for String::~String()
    nexgpio.o(i._ZN7NexGpio11set_pwmfreqEj) refers to sys.o(i._ZN6StringC1EPKc) for String::String(const char*)
    nexgpio.o(i._ZN7NexGpio11set_pwmfreqEj) refers to sys.o(i.utoa) for utoa
    nexgpio.o(i._ZN7NexGpio11set_pwmfreqEj) refers to nexbutton.o(i._ZN6StringpLEPKc) for String::operator +=(const char*)
    nexgpio.o(i._ZN7NexGpio11set_pwmfreqEj) refers to nexgpio.o(i._ZN6StringpLEc) for String::operator +=(char)
    nexgpio.o(i._ZN7NexGpio11set_pwmfreqEj) refers to nexbutton.o(i._ZNK6String5c_strEv) for String::c_str() const
    nexgpio.o(i._ZN7NexGpio11set_pwmfreqEj) refers to nexhardware.o(i._Z11sendCommandPKc) for sendCommand(const char*)
    nexgpio.o(i._ZN7NexGpio11set_pwmfreqEj) refers to nexhardware.o(i._Z22recvRetCommandFinishedj) for recvRetCommandFinished(unsigned)
    nexgpio.o(i._ZN7NexGpio11set_pwmfreqEj) refers to sys.o(i._ZN6StringD1Ev) for String::~String()
    nexgpio.o(i._ZN7NexGpio12analog_writeEjj) refers to sys.o(i._ZN6StringC1EPKc) for String::String(const char*)
    nexgpio.o(i._ZN7NexGpio12analog_writeEjj) refers to sys.o(i.utoa) for utoa
    nexgpio.o(i._ZN7NexGpio12analog_writeEjj) refers to nexbutton.o(i._ZN6StringpLEPKc) for String::operator +=(const char*)
    nexgpio.o(i._ZN7NexGpio12analog_writeEjj) refers to nexgpio.o(i._ZN6StringpLEc) for String::operator +=(char)
    nexgpio.o(i._ZN7NexGpio12analog_writeEjj) refers to print.o(i._ZN5Print5printERK6String) for Print::print(const String&)
    nexgpio.o(i._ZN7NexGpio12analog_writeEjj) refers to nexbutton.o(i._ZNK6String5c_strEv) for String::c_str() const
    nexgpio.o(i._ZN7NexGpio12analog_writeEjj) refers to nexhardware.o(i._Z11sendCommandPKc) for sendCommand(const char*)
    nexgpio.o(i._ZN7NexGpio12analog_writeEjj) refers to nexhardware.o(i._Z22recvRetCommandFinishedj) for recvRetCommandFinished(unsigned)
    nexgpio.o(i._ZN7NexGpio12analog_writeEjj) refers to sys.o(i._ZN6StringD1Ev) for String::~String()
    nexgpio.o(i._ZN7NexGpio12analog_writeEjj) refers to sys.o(.bss) for Serial
    nexgpio.o(i._ZN7NexGpio12digital_readEj) refers to sys.o(i._ZN6StringC1EPKc) for String::String(const char*)
    nexgpio.o(i._ZN7NexGpio12digital_readEj) refers to nexbutton.o(i._ZN6StringpLEPKc) for String::operator +=(const char*)
    nexgpio.o(i._ZN7NexGpio12digital_readEj) refers to nexgpio.o(i._ZN6StringpLEc) for String::operator +=(char)
    nexgpio.o(i._ZN7NexGpio12digital_readEj) refers to nexbutton.o(i._ZNK6String5c_strEv) for String::c_str() const
    nexgpio.o(i._ZN7NexGpio12digital_readEj) refers to nexhardware.o(i._Z11sendCommandPKc) for sendCommand(const char*)
    nexgpio.o(i._ZN7NexGpio12digital_readEj) refers to nexhardware.o(i._Z13recvRetNumberPjj) for recvRetNumber(unsigned*, unsigned)
    nexgpio.o(i._ZN7NexGpio12digital_readEj) refers to sys.o(i._ZN6StringD1Ev) for String::~String()
    nexgpio.o(i._ZN7NexGpio13digital_writeEjj) refers to sys.o(i._ZN6StringC1EPKc) for String::String(const char*)
    nexgpio.o(i._ZN7NexGpio13digital_writeEjj) refers to nexbutton.o(i._ZN6StringpLEPKc) for String::operator +=(const char*)
    nexgpio.o(i._ZN7NexGpio13digital_writeEjj) refers to nexgpio.o(i._ZN6StringpLEc) for String::operator +=(char)
    nexgpio.o(i._ZN7NexGpio13digital_writeEjj) refers to nexbutton.o(i._ZNK6String5c_strEv) for String::c_str() const
    nexgpio.o(i._ZN7NexGpio13digital_writeEjj) refers to nexhardware.o(i._Z11sendCommandPKc) for sendCommand(const char*)
    nexgpio.o(i._ZN7NexGpio13digital_writeEjj) refers to nexhardware.o(i._Z22recvRetCommandFinishedj) for recvRetCommandFinished(unsigned)
    nexgpio.o(i._ZN7NexGpio13digital_writeEjj) refers to sys.o(i._ZN6StringD1Ev) for String::~String()
    nexgpio.o(i._ZN7NexGpio8pin_modeEjjj) refers to sys.o(i._ZN6StringC1EPKc) for String::String(const char*)
    nexgpio.o(i._ZN7NexGpio8pin_modeEjjj) refers to nexbutton.o(i._ZN6StringpLEPKc) for String::operator +=(const char*)
    nexgpio.o(i._ZN7NexGpio8pin_modeEjjj) refers to nexgpio.o(i._ZN6StringpLEc) for String::operator +=(char)
    nexgpio.o(i._ZN7NexGpio8pin_modeEjjj) refers to nexbutton.o(i._ZNK6String5c_strEv) for String::c_str() const
    nexgpio.o(i._ZN7NexGpio8pin_modeEjjj) refers to nexhardware.o(i._Z11sendCommandPKc) for sendCommand(const char*)
    nexgpio.o(i._ZN7NexGpio8pin_modeEjjj) refers to nexhardware.o(i._Z22recvRetCommandFinishedj) for recvRetCommandFinished(unsigned)
    nexgpio.o(i._ZN7NexGpio8pin_modeEjjj) refers to sys.o(i._ZN6StringD1Ev) for String::~String()
    nexgpio.o(.ARM.exidx) refers to nexgpio.o(i._ZN7NexGpio8pin_modeEjjj) for i._ZN7NexGpio8pin_modeEjjj
    nexgpio.o(.ARM.exidx) refers to nexgpio.o(i._ZN7NexGpio13digital_writeEjj) for i._ZN7NexGpio13digital_writeEjj
    nexgpio.o(.ARM.exidx) refers to nexgpio.o(i._ZN7NexGpio12digital_readEj) for i._ZN7NexGpio12digital_readEj
    nexgpio.o(.ARM.exidx) refers to nexgpio.o(i._ZN7NexGpio12analog_writeEjj) for i._ZN7NexGpio12analog_writeEjj
    nexgpio.o(.ARM.exidx) refers to nexgpio.o(i._ZN7NexGpio11set_pwmfreqEj) for i._ZN7NexGpio11set_pwmfreqEj
    nexgpio.o(.ARM.exidx) refers to nexgpio.o(i._ZN7NexGpio11get_pwmfreqEPj) for i._ZN7NexGpio11get_pwmfreqEPj
    nexhardware.o(i._Z11sendCommandPKc) refers to usartclass.o(i._ZN10USARTClass4readEv) for USARTClass::read()
    nexhardware.o(i._Z11sendCommandPKc) refers to usartclass.o(i._ZN10USARTClass9availableEv) for USARTClass::available()
    nexhardware.o(i._Z11sendCommandPKc) refers to print.o(i._ZN5Print5printEPKc) for Print::print(const char*)
    nexhardware.o(i._Z11sendCommandPKc) refers to usartclass.o(i._ZN10USARTClass5writeEh) for USARTClass::write(unsigned char)
    nexhardware.o(i._Z11sendCommandPKc) refers to sys.o(.bss) for Serial2
    nexhardware.o(i._Z13recvRetNumberPjj) refers to stream.o(i._ZN6Stream10setTimeoutEm) for Stream::setTimeout(unsigned long)
    nexhardware.o(i._Z13recvRetNumberPjj) refers to stream.o(i._ZN6Stream9readBytesEPcj) for Stream::readBytes(char*, unsigned)
    nexhardware.o(i._Z13recvRetNumberPjj) refers to print.o(i._ZN5Print5printEPKc) for Print::print(const char*)
    nexhardware.o(i._Z13recvRetNumberPjj) refers to print.o(i._ZN5Print7printlnEji) for Print::println(unsigned, int)
    nexhardware.o(i._Z13recvRetNumberPjj) refers to print.o(i._ZN5Print7printlnEPKc) for Print::println(const char*)
    nexhardware.o(i._Z13recvRetNumberPjj) refers to sys.o(.bss) for Serial2
    nexhardware.o(i._Z13recvRetStringPctj) refers to sys.o(i._ZN6StringC1EPKc) for String::String(const char*)
    nexhardware.o(i._Z13recvRetStringPctj) refers to sys.o(i.millis) for millis
    nexhardware.o(i._Z13recvRetStringPctj) refers to usartclass.o(i._ZN10USARTClass4readEv) for USARTClass::read()
    nexhardware.o(i._Z13recvRetStringPctj) refers to sys.o(i._ZN6String6concatEc) for String::concat(char)
    nexhardware.o(i._Z13recvRetStringPctj) refers to usartclass.o(i._ZN10USARTClass9availableEv) for USARTClass::available()
    nexhardware.o(i._Z13recvRetStringPctj) refers to strncpy.o(.text) for strncpy
    nexhardware.o(i._Z13recvRetStringPctj) refers to print.o(i._ZN5Print5printEPKc) for Print::print(const char*)
    nexhardware.o(i._Z13recvRetStringPctj) refers to print.o(i._ZN5Print5printEji) for Print::print(unsigned, int)
    nexhardware.o(i._Z13recvRetStringPctj) refers to print.o(i._ZN5Print5printERK6String) for Print::print(const String&)
    nexhardware.o(i._Z13recvRetStringPctj) refers to print.o(i._ZN5Print7printlnEPKc) for Print::println(const char*)
    nexhardware.o(i._Z13recvRetStringPctj) refers to sys.o(i._ZN6StringD1Ev) for String::~String()
    nexhardware.o(i._Z13recvRetStringPctj) refers to sys.o(.bss) for Serial2
    nexhardware.o(i._Z22recvRetCommandFinishedj) refers to stream.o(i._ZN6Stream10setTimeoutEm) for Stream::setTimeout(unsigned long)
    nexhardware.o(i._Z22recvRetCommandFinishedj) refers to stream.o(i._ZN6Stream9readBytesEPcj) for Stream::readBytes(char*, unsigned)
    nexhardware.o(i._Z22recvRetCommandFinishedj) refers to print.o(i._ZN5Print7printlnEPKc) for Print::println(const char*)
    nexhardware.o(i._Z22recvRetCommandFinishedj) refers to sys.o(.bss) for Serial2
    nexhardware.o(i._Z7nexInitv) refers to usartclass.o(i._ZN10USARTClass5beginEj) for USARTClass::begin(unsigned)
    nexhardware.o(i._Z7nexInitv) refers to nexhardware.o(i._Z11sendCommandPKc) for sendCommand(const char*)
    nexhardware.o(i._Z7nexInitv) refers to nexhardware.o(i._Z22recvRetCommandFinishedj) for recvRetCommandFinished(unsigned)
    nexhardware.o(i._Z7nexInitv) refers to sys.o(.bss) for Serial
    nexhardware.o(i._Z7nexLoopPP8NexTouch) refers to sys.o(i.delay) for delay
    nexhardware.o(i._Z7nexLoopPP8NexTouch) refers to usartclass.o(i._ZN10USARTClass4readEv) for USARTClass::read()
    nexhardware.o(i._Z7nexLoopPP8NexTouch) refers to usartclass.o(i._ZN10USARTClass9availableEv) for USARTClass::available()
    nexhardware.o(i._Z7nexLoopPP8NexTouch) refers to nextouch.o(i._ZN8NexTouch7iterateEPPS_hhi) for NexTouch::iterate(NexTouch**, unsigned char, unsigned char, int)
    nexhardware.o(i._Z7nexLoopPP8NexTouch) refers to sys.o(.bss) for Serial2
    nexhardware.o(i._Z7nexLoopPP8NexTouch) refers to nexhardware.o(.bss) for __buffer
    nexhardware.o(.ARM.exidx) refers to nexhardware.o(i._Z13recvRetNumberPjj) for i._Z13recvRetNumberPjj
    nexhardware.o(.ARM.exidx) refers to nexhardware.o(i._Z13recvRetStringPctj) for i._Z13recvRetStringPctj
    nexhardware.o(.ARM.exidx) refers to nexhardware.o(i._Z11sendCommandPKc) for i._Z11sendCommandPKc
    nexhardware.o(.ARM.exidx) refers to nexhardware.o(i._Z22recvRetCommandFinishedj) for i._Z22recvRetCommandFinishedj
    nexhardware.o(.ARM.exidx) refers to nexhardware.o(i._Z7nexInitv) for i._Z7nexInitv
    nexhardware.o(.ARM.exidx) refers to nexhardware.o(i._Z7nexLoopPP8NexTouch) for i._Z7nexLoopPP8NexTouch
    nexhotspot.o(i._ZN10NexHotspotC1EhhPKc) refers to nextouch.o(i._ZN8NexTouchC1EhhPKc) for NexTouch::NexTouch(unsigned char, unsigned char, const char*)
    nexhotspot.o(.ARM.exidx) refers to nexhotspot.o(i._ZN10NexHotspotC1EhhPKc) for i._ZN10NexHotspotC1EhhPKc
    nexnumber.o(i._ZN9NexNumber14Get_place_xcenEPj) refers to sys.o(i._ZN6StringC1EPKc) for String::String(const char*)
    nexnumber.o(i._ZN9NexNumber14Get_place_xcenEPj) refers to nexbutton.o(i._ZN6StringpLEPKc) for String::operator +=(const char*)
    nexnumber.o(i._ZN9NexNumber14Get_place_xcenEPj) refers to nexobject.o(i._ZN9NexObject10getObjNameEv) for NexObject::getObjName()
    nexnumber.o(i._ZN9NexNumber14Get_place_xcenEPj) refers to nexbutton.o(i._ZNK6String5c_strEv) for String::c_str() const
    nexnumber.o(i._ZN9NexNumber14Get_place_xcenEPj) refers to nexhardware.o(i._Z11sendCommandPKc) for sendCommand(const char*)
    nexnumber.o(i._ZN9NexNumber14Get_place_xcenEPj) refers to nexhardware.o(i._Z13recvRetNumberPjj) for recvRetNumber(unsigned*, unsigned)
    nexnumber.o(i._ZN9NexNumber14Get_place_xcenEPj) refers to sys.o(i._ZN6StringD1Ev) for String::~String()
    nexnumber.o(i._ZN9NexNumber14Get_place_ycenEPj) refers to sys.o(i._ZN6StringC1EPKc) for String::String(const char*)
    nexnumber.o(i._ZN9NexNumber14Get_place_ycenEPj) refers to nexbutton.o(i._ZN6StringpLEPKc) for String::operator +=(const char*)
    nexnumber.o(i._ZN9NexNumber14Get_place_ycenEPj) refers to nexobject.o(i._ZN9NexObject10getObjNameEv) for NexObject::getObjName()
    nexnumber.o(i._ZN9NexNumber14Get_place_ycenEPj) refers to nexbutton.o(i._ZNK6String5c_strEv) for String::c_str() const
    nexnumber.o(i._ZN9NexNumber14Get_place_ycenEPj) refers to nexhardware.o(i._Z11sendCommandPKc) for sendCommand(const char*)
    nexnumber.o(i._ZN9NexNumber14Get_place_ycenEPj) refers to nexhardware.o(i._Z13recvRetNumberPjj) for recvRetNumber(unsigned*, unsigned)
    nexnumber.o(i._ZN9NexNumber14Get_place_ycenEPj) refers to sys.o(i._ZN6StringD1Ev) for String::~String()
    nexnumber.o(i._ZN9NexNumber14Set_place_xcenEj) refers to sys.o(i._ZN6StringC1EPKc) for String::String(const char*)
    nexnumber.o(i._ZN9NexNumber14Set_place_xcenEj) refers to sys.o(i.utoa) for utoa
    nexnumber.o(i._ZN9NexNumber14Set_place_xcenEj) refers to nexobject.o(i._ZN9NexObject10getObjNameEv) for NexObject::getObjName()
    nexnumber.o(i._ZN9NexNumber14Set_place_xcenEj) refers to nexbutton.o(i._ZN6StringpLEPKc) for String::operator +=(const char*)
    nexnumber.o(i._ZN9NexNumber14Set_place_xcenEj) refers to nexbutton.o(i._ZNK6String5c_strEv) for String::c_str() const
    nexnumber.o(i._ZN9NexNumber14Set_place_xcenEj) refers to nexhardware.o(i._Z11sendCommandPKc) for sendCommand(const char*)
    nexnumber.o(i._ZN9NexNumber14Set_place_xcenEj) refers to sys.o(i._ZN6StringaSEPKc) for String::operator =(const char*)
    nexnumber.o(i._ZN9NexNumber14Set_place_xcenEj) refers to nexhardware.o(i._Z22recvRetCommandFinishedj) for recvRetCommandFinished(unsigned)
    nexnumber.o(i._ZN9NexNumber14Set_place_xcenEj) refers to sys.o(i._ZN6StringD1Ev) for String::~String()
    nexnumber.o(i._ZN9NexNumber14Set_place_ycenEj) refers to sys.o(i._ZN6StringC1EPKc) for String::String(const char*)
    nexnumber.o(i._ZN9NexNumber14Set_place_ycenEj) refers to sys.o(i.utoa) for utoa
    nexnumber.o(i._ZN9NexNumber14Set_place_ycenEj) refers to nexobject.o(i._ZN9NexObject10getObjNameEv) for NexObject::getObjName()
    nexnumber.o(i._ZN9NexNumber14Set_place_ycenEj) refers to nexbutton.o(i._ZN6StringpLEPKc) for String::operator +=(const char*)
    nexnumber.o(i._ZN9NexNumber14Set_place_ycenEj) refers to nexbutton.o(i._ZNK6String5c_strEv) for String::c_str() const
    nexnumber.o(i._ZN9NexNumber14Set_place_ycenEj) refers to nexhardware.o(i._Z11sendCommandPKc) for sendCommand(const char*)
    nexnumber.o(i._ZN9NexNumber14Set_place_ycenEj) refers to sys.o(i._ZN6StringaSEPKc) for String::operator =(const char*)
    nexnumber.o(i._ZN9NexNumber14Set_place_ycenEj) refers to nexhardware.o(i._Z22recvRetCommandFinishedj) for recvRetCommandFinished(unsigned)
    nexnumber.o(i._ZN9NexNumber14Set_place_ycenEj) refers to sys.o(i._ZN6StringD1Ev) for String::~String()
    nexnumber.o(i._ZN9NexNumber16Get_number_lenthEPj) refers to sys.o(i._ZN6StringC1EPKc) for String::String(const char*)
    nexnumber.o(i._ZN9NexNumber16Get_number_lenthEPj) refers to nexbutton.o(i._ZN6StringpLEPKc) for String::operator +=(const char*)
    nexnumber.o(i._ZN9NexNumber16Get_number_lenthEPj) refers to nexobject.o(i._ZN9NexObject10getObjNameEv) for NexObject::getObjName()
    nexnumber.o(i._ZN9NexNumber16Get_number_lenthEPj) refers to nexbutton.o(i._ZNK6String5c_strEv) for String::c_str() const
    nexnumber.o(i._ZN9NexNumber16Get_number_lenthEPj) refers to nexhardware.o(i._Z11sendCommandPKc) for sendCommand(const char*)
    nexnumber.o(i._ZN9NexNumber16Get_number_lenthEPj) refers to nexhardware.o(i._Z13recvRetNumberPjj) for recvRetNumber(unsigned*, unsigned)
    nexnumber.o(i._ZN9NexNumber16Get_number_lenthEPj) refers to sys.o(i._ZN6StringD1Ev) for String::~String()
    nexnumber.o(i._ZN9NexNumber16Set_number_lenthEj) refers to sys.o(i._ZN6StringC1EPKc) for String::String(const char*)
    nexnumber.o(i._ZN9NexNumber16Set_number_lenthEj) refers to sys.o(i.utoa) for utoa
    nexnumber.o(i._ZN9NexNumber16Set_number_lenthEj) refers to nexobject.o(i._ZN9NexObject10getObjNameEv) for NexObject::getObjName()
    nexnumber.o(i._ZN9NexNumber16Set_number_lenthEj) refers to nexbutton.o(i._ZN6StringpLEPKc) for String::operator +=(const char*)
    nexnumber.o(i._ZN9NexNumber16Set_number_lenthEj) refers to nexbutton.o(i._ZNK6String5c_strEv) for String::c_str() const
    nexnumber.o(i._ZN9NexNumber16Set_number_lenthEj) refers to nexhardware.o(i._Z11sendCommandPKc) for sendCommand(const char*)
    nexnumber.o(i._ZN9NexNumber16Set_number_lenthEj) refers to sys.o(i._ZN6StringaSEPKc) for String::operator =(const char*)
    nexnumber.o(i._ZN9NexNumber16Set_number_lenthEj) refers to nexhardware.o(i._Z22recvRetCommandFinishedj) for recvRetCommandFinished(unsigned)
    nexnumber.o(i._ZN9NexNumber16Set_number_lenthEj) refers to sys.o(i._ZN6StringD1Ev) for String::~String()
    nexnumber.o(i._ZN9NexNumber18Get_font_color_pcoEPj) refers to sys.o(i._ZN6StringC1EPKc) for String::String(const char*)
    nexnumber.o(i._ZN9NexNumber18Get_font_color_pcoEPj) refers to nexbutton.o(i._ZN6StringpLEPKc) for String::operator +=(const char*)
    nexnumber.o(i._ZN9NexNumber18Get_font_color_pcoEPj) refers to nexobject.o(i._ZN9NexObject10getObjNameEv) for NexObject::getObjName()
    nexnumber.o(i._ZN9NexNumber18Get_font_color_pcoEPj) refers to nexbutton.o(i._ZNK6String5c_strEv) for String::c_str() const
    nexnumber.o(i._ZN9NexNumber18Get_font_color_pcoEPj) refers to nexhardware.o(i._Z11sendCommandPKc) for sendCommand(const char*)
    nexnumber.o(i._ZN9NexNumber18Get_font_color_pcoEPj) refers to nexhardware.o(i._Z13recvRetNumberPjj) for recvRetNumber(unsigned*, unsigned)
    nexnumber.o(i._ZN9NexNumber18Get_font_color_pcoEPj) refers to sys.o(i._ZN6StringD1Ev) for String::~String()
    nexnumber.o(i._ZN9NexNumber18Set_font_color_pcoEj) refers to sys.o(i._ZN6StringC1EPKc) for String::String(const char*)
    nexnumber.o(i._ZN9NexNumber18Set_font_color_pcoEj) refers to sys.o(i.utoa) for utoa
    nexnumber.o(i._ZN9NexNumber18Set_font_color_pcoEj) refers to nexobject.o(i._ZN9NexObject10getObjNameEv) for NexObject::getObjName()
    nexnumber.o(i._ZN9NexNumber18Set_font_color_pcoEj) refers to nexbutton.o(i._ZN6StringpLEPKc) for String::operator +=(const char*)
    nexnumber.o(i._ZN9NexNumber18Set_font_color_pcoEj) refers to nexbutton.o(i._ZNK6String5c_strEv) for String::c_str() const
    nexnumber.o(i._ZN9NexNumber18Set_font_color_pcoEj) refers to nexhardware.o(i._Z11sendCommandPKc) for sendCommand(const char*)
    nexnumber.o(i._ZN9NexNumber18Set_font_color_pcoEj) refers to sys.o(i._ZN6StringaSEPKc) for String::operator =(const char*)
    nexnumber.o(i._ZN9NexNumber18Set_font_color_pcoEj) refers to nexhardware.o(i._Z22recvRetCommandFinishedj) for recvRetCommandFinished(unsigned)
    nexnumber.o(i._ZN9NexNumber18Set_font_color_pcoEj) refers to sys.o(i._ZN6StringD1Ev) for String::~String()
    nexnumber.o(i._ZN9NexNumber24Get_background_color_bcoEPj) refers to sys.o(i._ZN6StringC1EPKc) for String::String(const char*)
    nexnumber.o(i._ZN9NexNumber24Get_background_color_bcoEPj) refers to nexbutton.o(i._ZN6StringpLEPKc) for String::operator +=(const char*)
    nexnumber.o(i._ZN9NexNumber24Get_background_color_bcoEPj) refers to nexobject.o(i._ZN9NexObject10getObjNameEv) for NexObject::getObjName()
    nexnumber.o(i._ZN9NexNumber24Get_background_color_bcoEPj) refers to nexbutton.o(i._ZNK6String5c_strEv) for String::c_str() const
    nexnumber.o(i._ZN9NexNumber24Get_background_color_bcoEPj) refers to nexhardware.o(i._Z11sendCommandPKc) for sendCommand(const char*)
    nexnumber.o(i._ZN9NexNumber24Get_background_color_bcoEPj) refers to nexhardware.o(i._Z13recvRetNumberPjj) for recvRetNumber(unsigned*, unsigned)
    nexnumber.o(i._ZN9NexNumber24Get_background_color_bcoEPj) refers to sys.o(i._ZN6StringD1Ev) for String::~String()
    nexnumber.o(i._ZN9NexNumber24Get_background_crop_piccEPj) refers to sys.o(i._ZN6StringC1EPKc) for String::String(const char*)
    nexnumber.o(i._ZN9NexNumber24Get_background_crop_piccEPj) refers to nexbutton.o(i._ZN6StringpLEPKc) for String::operator +=(const char*)
    nexnumber.o(i._ZN9NexNumber24Get_background_crop_piccEPj) refers to nexobject.o(i._ZN9NexObject10getObjNameEv) for NexObject::getObjName()
    nexnumber.o(i._ZN9NexNumber24Get_background_crop_piccEPj) refers to nexbutton.o(i._ZNK6String5c_strEv) for String::c_str() const
    nexnumber.o(i._ZN9NexNumber24Get_background_crop_piccEPj) refers to nexhardware.o(i._Z11sendCommandPKc) for sendCommand(const char*)
    nexnumber.o(i._ZN9NexNumber24Get_background_crop_piccEPj) refers to nexhardware.o(i._Z13recvRetNumberPjj) for recvRetNumber(unsigned*, unsigned)
    nexnumber.o(i._ZN9NexNumber24Get_background_crop_piccEPj) refers to sys.o(i._ZN6StringD1Ev) for String::~String()
    nexnumber.o(i._ZN9NexNumber24Get_background_image_picEPj) refers to sys.o(i._ZN6StringC1EPKc) for String::String(const char*)
    nexnumber.o(i._ZN9NexNumber24Get_background_image_picEPj) refers to nexobject.o(i._ZN9NexObject10getObjNameEv) for NexObject::getObjName()
    nexnumber.o(i._ZN9NexNumber24Get_background_image_picEPj) refers to nexbutton.o(i._ZN6StringpLEPKc) for String::operator +=(const char*)
    nexnumber.o(i._ZN9NexNumber24Get_background_image_picEPj) refers to nexbutton.o(i._ZNK6String5c_strEv) for String::c_str() const
    nexnumber.o(i._ZN9NexNumber24Get_background_image_picEPj) refers to nexhardware.o(i._Z11sendCommandPKc) for sendCommand(const char*)
    nexnumber.o(i._ZN9NexNumber24Get_background_image_picEPj) refers to nexhardware.o(i._Z13recvRetNumberPjj) for recvRetNumber(unsigned*, unsigned)
    nexnumber.o(i._ZN9NexNumber24Get_background_image_picEPj) refers to sys.o(i._ZN6StringD1Ev) for String::~String()
    nexnumber.o(i._ZN9NexNumber24Set_background_color_bcoEj) refers to sys.o(i._ZN6StringC1EPKc) for String::String(const char*)
    nexnumber.o(i._ZN9NexNumber24Set_background_color_bcoEj) refers to sys.o(i.utoa) for utoa
    nexnumber.o(i._ZN9NexNumber24Set_background_color_bcoEj) refers to nexobject.o(i._ZN9NexObject10getObjNameEv) for NexObject::getObjName()
    nexnumber.o(i._ZN9NexNumber24Set_background_color_bcoEj) refers to nexbutton.o(i._ZN6StringpLEPKc) for String::operator +=(const char*)
    nexnumber.o(i._ZN9NexNumber24Set_background_color_bcoEj) refers to nexbutton.o(i._ZNK6String5c_strEv) for String::c_str() const
    nexnumber.o(i._ZN9NexNumber24Set_background_color_bcoEj) refers to nexhardware.o(i._Z11sendCommandPKc) for sendCommand(const char*)
    nexnumber.o(i._ZN9NexNumber24Set_background_color_bcoEj) refers to sys.o(i._ZN6StringaSEPKc) for String::operator =(const char*)
    nexnumber.o(i._ZN9NexNumber24Set_background_color_bcoEj) refers to nexhardware.o(i._Z22recvRetCommandFinishedj) for recvRetCommandFinished(unsigned)
    nexnumber.o(i._ZN9NexNumber24Set_background_color_bcoEj) refers to sys.o(i._ZN6StringD1Ev) for String::~String()
    nexnumber.o(i._ZN9NexNumber24Set_background_crop_piccEj) refers to sys.o(i._ZN6StringC1EPKc) for String::String(const char*)
    nexnumber.o(i._ZN9NexNumber24Set_background_crop_piccEj) refers to sys.o(i.utoa) for utoa
    nexnumber.o(i._ZN9NexNumber24Set_background_crop_piccEj) refers to nexobject.o(i._ZN9NexObject10getObjNameEv) for NexObject::getObjName()
    nexnumber.o(i._ZN9NexNumber24Set_background_crop_piccEj) refers to nexbutton.o(i._ZN6StringpLEPKc) for String::operator +=(const char*)
    nexnumber.o(i._ZN9NexNumber24Set_background_crop_piccEj) refers to nexbutton.o(i._ZNK6String5c_strEv) for String::c_str() const
    nexnumber.o(i._ZN9NexNumber24Set_background_crop_piccEj) refers to nexhardware.o(i._Z11sendCommandPKc) for sendCommand(const char*)
    nexnumber.o(i._ZN9NexNumber24Set_background_crop_piccEj) refers to sys.o(i._ZN6StringaSEPKc) for String::operator =(const char*)
    nexnumber.o(i._ZN9NexNumber24Set_background_crop_piccEj) refers to nexhardware.o(i._Z22recvRetCommandFinishedj) for recvRetCommandFinished(unsigned)
    nexnumber.o(i._ZN9NexNumber24Set_background_crop_piccEj) refers to sys.o(i._ZN6StringD1Ev) for String::~String()
    nexnumber.o(i._ZN9NexNumber24Set_background_image_picEj) refers to sys.o(i._ZN6StringC1EPKc) for String::String(const char*)
    nexnumber.o(i._ZN9NexNumber24Set_background_image_picEj) refers to sys.o(i.utoa) for utoa
    nexnumber.o(i._ZN9NexNumber24Set_background_image_picEj) refers to nexobject.o(i._ZN9NexObject10getObjNameEv) for NexObject::getObjName()
    nexnumber.o(i._ZN9NexNumber24Set_background_image_picEj) refers to nexbutton.o(i._ZN6StringpLEPKc) for String::operator +=(const char*)
    nexnumber.o(i._ZN9NexNumber24Set_background_image_picEj) refers to nexbutton.o(i._ZNK6String5c_strEv) for String::c_str() const
    nexnumber.o(i._ZN9NexNumber24Set_background_image_picEj) refers to nexhardware.o(i._Z11sendCommandPKc) for sendCommand(const char*)
    nexnumber.o(i._ZN9NexNumber24Set_background_image_picEj) refers to sys.o(i._ZN6StringaSEPKc) for String::operator =(const char*)
    nexnumber.o(i._ZN9NexNumber24Set_background_image_picEj) refers to nexhardware.o(i._Z22recvRetCommandFinishedj) for recvRetCommandFinished(unsigned)
    nexnumber.o(i._ZN9NexNumber24Set_background_image_picEj) refers to sys.o(i._ZN6StringD1Ev) for String::~String()
    nexnumber.o(i._ZN9NexNumber7getFontEPj) refers to sys.o(i._ZN6StringC1EPKc) for String::String(const char*)
    nexnumber.o(i._ZN9NexNumber7getFontEPj) refers to nexbutton.o(i._ZN6StringpLEPKc) for String::operator +=(const char*)
    nexnumber.o(i._ZN9NexNumber7getFontEPj) refers to nexobject.o(i._ZN9NexObject10getObjNameEv) for NexObject::getObjName()
    nexnumber.o(i._ZN9NexNumber7getFontEPj) refers to nexbutton.o(i._ZNK6String5c_strEv) for String::c_str() const
    nexnumber.o(i._ZN9NexNumber7getFontEPj) refers to nexhardware.o(i._Z11sendCommandPKc) for sendCommand(const char*)
    nexnumber.o(i._ZN9NexNumber7getFontEPj) refers to nexhardware.o(i._Z13recvRetNumberPjj) for recvRetNumber(unsigned*, unsigned)
    nexnumber.o(i._ZN9NexNumber7getFontEPj) refers to sys.o(i._ZN6StringD1Ev) for String::~String()
    nexnumber.o(i._ZN9NexNumber7setFontEj) refers to sys.o(i._ZN6StringC1EPKc) for String::String(const char*)
    nexnumber.o(i._ZN9NexNumber7setFontEj) refers to sys.o(i.utoa) for utoa
    nexnumber.o(i._ZN9NexNumber7setFontEj) refers to nexobject.o(i._ZN9NexObject10getObjNameEv) for NexObject::getObjName()
    nexnumber.o(i._ZN9NexNumber7setFontEj) refers to nexbutton.o(i._ZN6StringpLEPKc) for String::operator +=(const char*)
    nexnumber.o(i._ZN9NexNumber7setFontEj) refers to nexbutton.o(i._ZNK6String5c_strEv) for String::c_str() const
    nexnumber.o(i._ZN9NexNumber7setFontEj) refers to nexhardware.o(i._Z11sendCommandPKc) for sendCommand(const char*)
    nexnumber.o(i._ZN9NexNumber7setFontEj) refers to sys.o(i._ZN6StringaSEPKc) for String::operator =(const char*)
    nexnumber.o(i._ZN9NexNumber7setFontEj) refers to nexhardware.o(i._Z22recvRetCommandFinishedj) for recvRetCommandFinished(unsigned)
    nexnumber.o(i._ZN9NexNumber7setFontEj) refers to sys.o(i._ZN6StringD1Ev) for String::~String()
    nexnumber.o(i._ZN9NexNumber8getValueEPj) refers to sys.o(i._ZN6StringC1EPKc) for String::String(const char*)
    nexnumber.o(i._ZN9NexNumber8getValueEPj) refers to nexobject.o(i._ZN9NexObject10getObjNameEv) for NexObject::getObjName()
    nexnumber.o(i._ZN9NexNumber8getValueEPj) refers to nexbutton.o(i._ZN6StringpLEPKc) for String::operator +=(const char*)
    nexnumber.o(i._ZN9NexNumber8getValueEPj) refers to nexbutton.o(i._ZNK6String5c_strEv) for String::c_str() const
    nexnumber.o(i._ZN9NexNumber8getValueEPj) refers to nexhardware.o(i._Z11sendCommandPKc) for sendCommand(const char*)
    nexnumber.o(i._ZN9NexNumber8getValueEPj) refers to nexhardware.o(i._Z13recvRetNumberPjj) for recvRetNumber(unsigned*, unsigned)
    nexnumber.o(i._ZN9NexNumber8getValueEPj) refers to sys.o(i._ZN6StringD1Ev) for String::~String()
    nexnumber.o(i._ZN9NexNumber8setValueEj) refers to sys.o(i._ZN6StringC1EPKc) for String::String(const char*)
    nexnumber.o(i._ZN9NexNumber8setValueEj) refers to sys.o(i.utoa) for utoa
    nexnumber.o(i._ZN9NexNumber8setValueEj) refers to nexobject.o(i._ZN9NexObject10getObjNameEv) for NexObject::getObjName()
    nexnumber.o(i._ZN9NexNumber8setValueEj) refers to nexbutton.o(i._ZN6StringpLEPKc) for String::operator +=(const char*)
    nexnumber.o(i._ZN9NexNumber8setValueEj) refers to nexbutton.o(i._ZNK6String5c_strEv) for String::c_str() const
    nexnumber.o(i._ZN9NexNumber8setValueEj) refers to nexhardware.o(i._Z11sendCommandPKc) for sendCommand(const char*)
    nexnumber.o(i._ZN9NexNumber8setValueEj) refers to nexhardware.o(i._Z22recvRetCommandFinishedj) for recvRetCommandFinished(unsigned)
    nexnumber.o(i._ZN9NexNumber8setValueEj) refers to sys.o(i._ZN6StringD1Ev) for String::~String()
    nexnumber.o(i._ZN9NexNumberC1EhhPKc) refers to nextouch.o(i._ZN8NexTouchC1EhhPKc) for NexTouch::NexTouch(unsigned char, unsigned char, const char*)
    nexnumber.o(.ARM.exidx) refers to nexnumber.o(i._ZN9NexNumberC1EhhPKc) for i._ZN9NexNumberC1EhhPKc
    nexnumber.o(.ARM.exidx) refers to nexnumber.o(i._ZN9NexNumber8getValueEPj) for i._ZN9NexNumber8getValueEPj
    nexnumber.o(.ARM.exidx) refers to nexnumber.o(i._ZN9NexNumber8setValueEj) for i._ZN9NexNumber8setValueEj
    nexnumber.o(.ARM.exidx) refers to nexnumber.o(i._ZN9NexNumber24Get_background_color_bcoEPj) for i._ZN9NexNumber24Get_background_color_bcoEPj
    nexnumber.o(.ARM.exidx) refers to nexnumber.o(i._ZN9NexNumber24Set_background_color_bcoEj) for i._ZN9NexNumber24Set_background_color_bcoEj
    nexnumber.o(.ARM.exidx) refers to nexnumber.o(i._ZN9NexNumber18Get_font_color_pcoEPj) for i._ZN9NexNumber18Get_font_color_pcoEPj
    nexnumber.o(.ARM.exidx) refers to nexnumber.o(i._ZN9NexNumber18Set_font_color_pcoEj) for i._ZN9NexNumber18Set_font_color_pcoEj
    nexnumber.o(.ARM.exidx) refers to nexnumber.o(i._ZN9NexNumber14Get_place_xcenEPj) for i._ZN9NexNumber14Get_place_xcenEPj
    nexnumber.o(.ARM.exidx) refers to nexnumber.o(i._ZN9NexNumber14Set_place_xcenEj) for i._ZN9NexNumber14Set_place_xcenEj
    nexnumber.o(.ARM.exidx) refers to nexnumber.o(i._ZN9NexNumber14Get_place_ycenEPj) for i._ZN9NexNumber14Get_place_ycenEPj
    nexnumber.o(.ARM.exidx) refers to nexnumber.o(i._ZN9NexNumber14Set_place_ycenEj) for i._ZN9NexNumber14Set_place_ycenEj
    nexnumber.o(.ARM.exidx) refers to nexnumber.o(i._ZN9NexNumber7getFontEPj) for i._ZN9NexNumber7getFontEPj
    nexnumber.o(.ARM.exidx) refers to nexnumber.o(i._ZN9NexNumber7setFontEj) for i._ZN9NexNumber7setFontEj
    nexnumber.o(.ARM.exidx) refers to nexnumber.o(i._ZN9NexNumber16Get_number_lenthEPj) for i._ZN9NexNumber16Get_number_lenthEPj
    nexnumber.o(.ARM.exidx) refers to nexnumber.o(i._ZN9NexNumber16Set_number_lenthEj) for i._ZN9NexNumber16Set_number_lenthEj
    nexnumber.o(.ARM.exidx) refers to nexnumber.o(i._ZN9NexNumber24Get_background_crop_piccEPj) for i._ZN9NexNumber24Get_background_crop_piccEPj
    nexnumber.o(.ARM.exidx) refers to nexnumber.o(i._ZN9NexNumber24Set_background_crop_piccEj) for i._ZN9NexNumber24Set_background_crop_piccEj
    nexnumber.o(.ARM.exidx) refers to nexnumber.o(i._ZN9NexNumber24Get_background_image_picEPj) for i._ZN9NexNumber24Get_background_image_picEPj
    nexnumber.o(.ARM.exidx) refers to nexnumber.o(i._ZN9NexNumber24Set_background_image_picEj) for i._ZN9NexNumber24Set_background_image_picEj
    nexobject.o(i._ZN9NexObject12printObjInfoEv) refers to print.o(i._ZN5Print5printEPKc) for Print::print(const char*)
    nexobject.o(i._ZN9NexObject12printObjInfoEv) refers to print.o(i._ZN5Print5printEji) for Print::print(unsigned, int)
    nexobject.o(i._ZN9NexObject12printObjInfoEv) refers to print.o(i._ZN5Print5printEhi) for Print::print(unsigned char, int)
    nexobject.o(i._ZN9NexObject12printObjInfoEv) refers to print.o(i._ZN5Print7printlnEPKc) for Print::println(const char*)
    nexobject.o(i._ZN9NexObject12printObjInfoEv) refers to sys.o(.bss) for Serial
    nexobject.o(.ARM.exidx) refers to nexobject.o(i._ZN9NexObjectC1EhhPKc) for i._ZN9NexObjectC1EhhPKc
    nexobject.o(.ARM.exidx) refers to nexobject.o(i._ZN9NexObject12printObjInfoEv) for i._ZN9NexObject12printObjInfoEv
    nexobject.o(.ARM.exidx) refers to nexobject.o(i._ZN9NexObject9getObjPidEv) for i._ZN9NexObject9getObjPidEv
    nexobject.o(.ARM.exidx) refers to nexobject.o(i._ZN9NexObject9getObjCidEv) for i._ZN9NexObject9getObjCidEv
    nexobject.o(.ARM.exidx) refers to nexobject.o(i._ZN9NexObject10getObjNameEv) for i._ZN9NexObject10getObjNameEv
    nexpage.o(i._ZN7NexPage4showEv) refers to nexobject.o(i._ZN9NexObject10getObjNameEv) for NexObject::getObjName()
    nexpage.o(i._ZN7NexPage4showEv) refers to sys.o(i._ZN6StringC1EPKc) for String::String(const char*)
    nexpage.o(i._ZN7NexPage4showEv) refers to sys.o(i._ZN6String6concatEPKc) for String::concat(const char*)
    nexpage.o(i._ZN7NexPage4showEv) refers to nexhardware.o(i._Z11sendCommandPKc) for sendCommand(const char*)
    nexpage.o(i._ZN7NexPage4showEv) refers to nexhardware.o(i._Z22recvRetCommandFinishedj) for recvRetCommandFinished(unsigned)
    nexpage.o(i._ZN7NexPage4showEv) refers to sys.o(i._ZN6StringD1Ev) for String::~String()
    nexpage.o(i._ZN7NexPageC1EhhPKc) refers to nextouch.o(i._ZN8NexTouchC1EhhPKc) for NexTouch::NexTouch(unsigned char, unsigned char, const char*)
    nexpage.o(.ARM.exidx) refers to nexpage.o(i._ZN7NexPageC1EhhPKc) for i._ZN7NexPageC1EhhPKc
    nexpage.o(.ARM.exidx) refers to nexpage.o(i._ZN7NexPage4showEv) for i._ZN7NexPage4showEv
    nexpicture.o(i._ZN10NexPicture24Get_background_image_picEPj) refers to sys.o(i._ZN6StringC1EPKc) for String::String(const char*)
    nexpicture.o(i._ZN10NexPicture24Get_background_image_picEPj) refers to nexobject.o(i._ZN9NexObject10getObjNameEv) for NexObject::getObjName()
    nexpicture.o(i._ZN10NexPicture24Get_background_image_picEPj) refers to nexbutton.o(i._ZN6StringpLEPKc) for String::operator +=(const char*)
    nexpicture.o(i._ZN10NexPicture24Get_background_image_picEPj) refers to nexbutton.o(i._ZNK6String5c_strEv) for String::c_str() const
    nexpicture.o(i._ZN10NexPicture24Get_background_image_picEPj) refers to nexhardware.o(i._Z11sendCommandPKc) for sendCommand(const char*)
    nexpicture.o(i._ZN10NexPicture24Get_background_image_picEPj) refers to nexhardware.o(i._Z13recvRetNumberPjj) for recvRetNumber(unsigned*, unsigned)
    nexpicture.o(i._ZN10NexPicture24Get_background_image_picEPj) refers to sys.o(i._ZN6StringD1Ev) for String::~String()
    nexpicture.o(i._ZN10NexPicture24Set_background_image_picEj) refers to sys.o(i._ZN6StringC1EPKc) for String::String(const char*)
    nexpicture.o(i._ZN10NexPicture24Set_background_image_picEj) refers to sys.o(i.utoa) for utoa
    nexpicture.o(i._ZN10NexPicture24Set_background_image_picEj) refers to nexobject.o(i._ZN9NexObject10getObjNameEv) for NexObject::getObjName()
    nexpicture.o(i._ZN10NexPicture24Set_background_image_picEj) refers to nexbutton.o(i._ZN6StringpLEPKc) for String::operator +=(const char*)
    nexpicture.o(i._ZN10NexPicture24Set_background_image_picEj) refers to nexbutton.o(i._ZNK6String5c_strEv) for String::c_str() const
    nexpicture.o(i._ZN10NexPicture24Set_background_image_picEj) refers to nexhardware.o(i._Z11sendCommandPKc) for sendCommand(const char*)
    nexpicture.o(i._ZN10NexPicture24Set_background_image_picEj) refers to nexhardware.o(i._Z22recvRetCommandFinishedj) for recvRetCommandFinished(unsigned)
    nexpicture.o(i._ZN10NexPicture24Set_background_image_picEj) refers to sys.o(i._ZN6StringD1Ev) for String::~String()
    nexpicture.o(i._ZN10NexPicture6getPicEPj) refers to sys.o(i._ZN6StringC1EPKc) for String::String(const char*)
    nexpicture.o(i._ZN10NexPicture6getPicEPj) refers to nexobject.o(i._ZN9NexObject10getObjNameEv) for NexObject::getObjName()
    nexpicture.o(i._ZN10NexPicture6getPicEPj) refers to nexbutton.o(i._ZN6StringpLEPKc) for String::operator +=(const char*)
    nexpicture.o(i._ZN10NexPicture6getPicEPj) refers to nexbutton.o(i._ZNK6String5c_strEv) for String::c_str() const
    nexpicture.o(i._ZN10NexPicture6getPicEPj) refers to nexhardware.o(i._Z11sendCommandPKc) for sendCommand(const char*)
    nexpicture.o(i._ZN10NexPicture6getPicEPj) refers to nexhardware.o(i._Z13recvRetNumberPjj) for recvRetNumber(unsigned*, unsigned)
    nexpicture.o(i._ZN10NexPicture6getPicEPj) refers to sys.o(i._ZN6StringD1Ev) for String::~String()
    nexpicture.o(i._ZN10NexPicture6setPicEj) refers to sys.o(i._ZN6StringC1EPKc) for String::String(const char*)
    nexpicture.o(i._ZN10NexPicture6setPicEj) refers to sys.o(i.utoa) for utoa
    nexpicture.o(i._ZN10NexPicture6setPicEj) refers to nexobject.o(i._ZN9NexObject10getObjNameEv) for NexObject::getObjName()
    nexpicture.o(i._ZN10NexPicture6setPicEj) refers to nexbutton.o(i._ZN6StringpLEPKc) for String::operator +=(const char*)
    nexpicture.o(i._ZN10NexPicture6setPicEj) refers to nexbutton.o(i._ZNK6String5c_strEv) for String::c_str() const
    nexpicture.o(i._ZN10NexPicture6setPicEj) refers to nexhardware.o(i._Z11sendCommandPKc) for sendCommand(const char*)
    nexpicture.o(i._ZN10NexPicture6setPicEj) refers to nexhardware.o(i._Z22recvRetCommandFinishedj) for recvRetCommandFinished(unsigned)
    nexpicture.o(i._ZN10NexPicture6setPicEj) refers to sys.o(i._ZN6StringD1Ev) for String::~String()
    nexpicture.o(i._ZN10NexPictureC1EhhPKc) refers to nextouch.o(i._ZN8NexTouchC1EhhPKc) for NexTouch::NexTouch(unsigned char, unsigned char, const char*)
    nexpicture.o(.ARM.exidx) refers to nexpicture.o(i._ZN10NexPictureC1EhhPKc) for i._ZN10NexPictureC1EhhPKc
    nexpicture.o(.ARM.exidx) refers to nexpicture.o(i._ZN10NexPicture24Get_background_image_picEPj) for i._ZN10NexPicture24Get_background_image_picEPj
    nexpicture.o(.ARM.exidx) refers to nexpicture.o(i._ZN10NexPicture24Set_background_image_picEj) for i._ZN10NexPicture24Set_background_image_picEj
    nexpicture.o(.ARM.exidx) refers to nexpicture.o(i._ZN10NexPicture6getPicEPj) for i._ZN10NexPicture6getPicEPj
    nexpicture.o(.ARM.exidx) refers to nexpicture.o(i._ZN10NexPicture6setPicEj) for i._ZN10NexPicture6setPicEj
    nexprogressbar.o(i._ZN14NexProgressBar18Get_font_color_pcoEPj) refers to sys.o(i._ZN6StringC1EPKc) for String::String(const char*)
    nexprogressbar.o(i._ZN14NexProgressBar18Get_font_color_pcoEPj) refers to nexbutton.o(i._ZN6StringpLEPKc) for String::operator +=(const char*)
    nexprogressbar.o(i._ZN14NexProgressBar18Get_font_color_pcoEPj) refers to nexobject.o(i._ZN9NexObject10getObjNameEv) for NexObject::getObjName()
    nexprogressbar.o(i._ZN14NexProgressBar18Get_font_color_pcoEPj) refers to nexbutton.o(i._ZNK6String5c_strEv) for String::c_str() const
    nexprogressbar.o(i._ZN14NexProgressBar18Get_font_color_pcoEPj) refers to nexhardware.o(i._Z11sendCommandPKc) for sendCommand(const char*)
    nexprogressbar.o(i._ZN14NexProgressBar18Get_font_color_pcoEPj) refers to nexhardware.o(i._Z13recvRetNumberPjj) for recvRetNumber(unsigned*, unsigned)
    nexprogressbar.o(i._ZN14NexProgressBar18Get_font_color_pcoEPj) refers to sys.o(i._ZN6StringD1Ev) for String::~String()
    nexprogressbar.o(i._ZN14NexProgressBar18Set_font_color_pcoEj) refers to sys.o(i._ZN6StringC1EPKc) for String::String(const char*)
    nexprogressbar.o(i._ZN14NexProgressBar18Set_font_color_pcoEj) refers to sys.o(i.utoa) for utoa
    nexprogressbar.o(i._ZN14NexProgressBar18Set_font_color_pcoEj) refers to nexobject.o(i._ZN9NexObject10getObjNameEv) for NexObject::getObjName()
    nexprogressbar.o(i._ZN14NexProgressBar18Set_font_color_pcoEj) refers to nexbutton.o(i._ZN6StringpLEPKc) for String::operator +=(const char*)
    nexprogressbar.o(i._ZN14NexProgressBar18Set_font_color_pcoEj) refers to nexbutton.o(i._ZNK6String5c_strEv) for String::c_str() const
    nexprogressbar.o(i._ZN14NexProgressBar18Set_font_color_pcoEj) refers to nexhardware.o(i._Z11sendCommandPKc) for sendCommand(const char*)
    nexprogressbar.o(i._ZN14NexProgressBar18Set_font_color_pcoEj) refers to sys.o(i._ZN6StringaSEPKc) for String::operator =(const char*)
    nexprogressbar.o(i._ZN14NexProgressBar18Set_font_color_pcoEj) refers to nexhardware.o(i._Z22recvRetCommandFinishedj) for recvRetCommandFinished(unsigned)
    nexprogressbar.o(i._ZN14NexProgressBar18Set_font_color_pcoEj) refers to sys.o(i._ZN6StringD1Ev) for String::~String()
    nexprogressbar.o(i._ZN14NexProgressBar24Get_background_color_bcoEPj) refers to sys.o(i._ZN6StringC1EPKc) for String::String(const char*)
    nexprogressbar.o(i._ZN14NexProgressBar24Get_background_color_bcoEPj) refers to nexbutton.o(i._ZN6StringpLEPKc) for String::operator +=(const char*)
    nexprogressbar.o(i._ZN14NexProgressBar24Get_background_color_bcoEPj) refers to nexobject.o(i._ZN9NexObject10getObjNameEv) for NexObject::getObjName()
    nexprogressbar.o(i._ZN14NexProgressBar24Get_background_color_bcoEPj) refers to nexbutton.o(i._ZNK6String5c_strEv) for String::c_str() const
    nexprogressbar.o(i._ZN14NexProgressBar24Get_background_color_bcoEPj) refers to nexhardware.o(i._Z11sendCommandPKc) for sendCommand(const char*)
    nexprogressbar.o(i._ZN14NexProgressBar24Get_background_color_bcoEPj) refers to nexhardware.o(i._Z13recvRetNumberPjj) for recvRetNumber(unsigned*, unsigned)
    nexprogressbar.o(i._ZN14NexProgressBar24Get_background_color_bcoEPj) refers to sys.o(i._ZN6StringD1Ev) for String::~String()
    nexprogressbar.o(i._ZN14NexProgressBar24Set_background_color_bcoEj) refers to sys.o(i._ZN6StringC1EPKc) for String::String(const char*)
    nexprogressbar.o(i._ZN14NexProgressBar24Set_background_color_bcoEj) refers to sys.o(i.utoa) for utoa
    nexprogressbar.o(i._ZN14NexProgressBar24Set_background_color_bcoEj) refers to nexobject.o(i._ZN9NexObject10getObjNameEv) for NexObject::getObjName()
    nexprogressbar.o(i._ZN14NexProgressBar24Set_background_color_bcoEj) refers to nexbutton.o(i._ZN6StringpLEPKc) for String::operator +=(const char*)
    nexprogressbar.o(i._ZN14NexProgressBar24Set_background_color_bcoEj) refers to nexbutton.o(i._ZNK6String5c_strEv) for String::c_str() const
    nexprogressbar.o(i._ZN14NexProgressBar24Set_background_color_bcoEj) refers to nexhardware.o(i._Z11sendCommandPKc) for sendCommand(const char*)
    nexprogressbar.o(i._ZN14NexProgressBar24Set_background_color_bcoEj) refers to sys.o(i._ZN6StringaSEPKc) for String::operator =(const char*)
    nexprogressbar.o(i._ZN14NexProgressBar24Set_background_color_bcoEj) refers to nexhardware.o(i._Z22recvRetCommandFinishedj) for recvRetCommandFinished(unsigned)
    nexprogressbar.o(i._ZN14NexProgressBar24Set_background_color_bcoEj) refers to sys.o(i._ZN6StringD1Ev) for String::~String()
    nexprogressbar.o(i._ZN14NexProgressBar8getValueEPj) refers to sys.o(i._ZN6StringC1EPKc) for String::String(const char*)
    nexprogressbar.o(i._ZN14NexProgressBar8getValueEPj) refers to nexobject.o(i._ZN9NexObject10getObjNameEv) for NexObject::getObjName()
    nexprogressbar.o(i._ZN14NexProgressBar8getValueEPj) refers to nexbutton.o(i._ZN6StringpLEPKc) for String::operator +=(const char*)
    nexprogressbar.o(i._ZN14NexProgressBar8getValueEPj) refers to nexbutton.o(i._ZNK6String5c_strEv) for String::c_str() const
    nexprogressbar.o(i._ZN14NexProgressBar8getValueEPj) refers to nexhardware.o(i._Z11sendCommandPKc) for sendCommand(const char*)
    nexprogressbar.o(i._ZN14NexProgressBar8getValueEPj) refers to nexhardware.o(i._Z13recvRetNumberPjj) for recvRetNumber(unsigned*, unsigned)
    nexprogressbar.o(i._ZN14NexProgressBar8getValueEPj) refers to sys.o(i._ZN6StringD1Ev) for String::~String()
    nexprogressbar.o(i._ZN14NexProgressBar8setValueEj) refers to sys.o(i._ZN6StringC1EPKc) for String::String(const char*)
    nexprogressbar.o(i._ZN14NexProgressBar8setValueEj) refers to sys.o(i.utoa) for utoa
    nexprogressbar.o(i._ZN14NexProgressBar8setValueEj) refers to nexobject.o(i._ZN9NexObject10getObjNameEv) for NexObject::getObjName()
    nexprogressbar.o(i._ZN14NexProgressBar8setValueEj) refers to nexbutton.o(i._ZN6StringpLEPKc) for String::operator +=(const char*)
    nexprogressbar.o(i._ZN14NexProgressBar8setValueEj) refers to nexbutton.o(i._ZNK6String5c_strEv) for String::c_str() const
    nexprogressbar.o(i._ZN14NexProgressBar8setValueEj) refers to nexhardware.o(i._Z11sendCommandPKc) for sendCommand(const char*)
    nexprogressbar.o(i._ZN14NexProgressBar8setValueEj) refers to nexhardware.o(i._Z22recvRetCommandFinishedj) for recvRetCommandFinished(unsigned)
    nexprogressbar.o(i._ZN14NexProgressBar8setValueEj) refers to sys.o(i._ZN6StringD1Ev) for String::~String()
    nexprogressbar.o(i._ZN14NexProgressBarC1EhhPKc) refers to nexobject.o(i._ZN9NexObjectC1EhhPKc) for NexObject::NexObject(unsigned char, unsigned char, const char*)
    nexprogressbar.o(.ARM.exidx) refers to nexprogressbar.o(i._ZN14NexProgressBarC1EhhPKc) for i._ZN14NexProgressBarC1EhhPKc
    nexprogressbar.o(.ARM.exidx) refers to nexprogressbar.o(i._ZN14NexProgressBar8getValueEPj) for i._ZN14NexProgressBar8getValueEPj
    nexprogressbar.o(.ARM.exidx) refers to nexprogressbar.o(i._ZN14NexProgressBar8setValueEj) for i._ZN14NexProgressBar8setValueEj
    nexprogressbar.o(.ARM.exidx) refers to nexprogressbar.o(i._ZN14NexProgressBar24Get_background_color_bcoEPj) for i._ZN14NexProgressBar24Get_background_color_bcoEPj
    nexprogressbar.o(.ARM.exidx) refers to nexprogressbar.o(i._ZN14NexProgressBar24Set_background_color_bcoEj) for i._ZN14NexProgressBar24Set_background_color_bcoEj
    nexprogressbar.o(.ARM.exidx) refers to nexprogressbar.o(i._ZN14NexProgressBar18Get_font_color_pcoEPj) for i._ZN14NexProgressBar18Get_font_color_pcoEPj
    nexprogressbar.o(.ARM.exidx) refers to nexprogressbar.o(i._ZN14NexProgressBar18Set_font_color_pcoEj) for i._ZN14NexProgressBar18Set_font_color_pcoEj
    nexradio.o(i._ZN8NexRadio18Get_font_color_pcoEPj) refers to sys.o(i._ZN6StringC1EPKc) for String::String(const char*)
    nexradio.o(i._ZN8NexRadio18Get_font_color_pcoEPj) refers to nexbutton.o(i._ZN6StringpLEPKc) for String::operator +=(const char*)
    nexradio.o(i._ZN8NexRadio18Get_font_color_pcoEPj) refers to nexobject.o(i._ZN9NexObject10getObjNameEv) for NexObject::getObjName()
    nexradio.o(i._ZN8NexRadio18Get_font_color_pcoEPj) refers to nexbutton.o(i._ZNK6String5c_strEv) for String::c_str() const
    nexradio.o(i._ZN8NexRadio18Get_font_color_pcoEPj) refers to nexhardware.o(i._Z11sendCommandPKc) for sendCommand(const char*)
    nexradio.o(i._ZN8NexRadio18Get_font_color_pcoEPj) refers to nexhardware.o(i._Z13recvRetNumberPjj) for recvRetNumber(unsigned*, unsigned)
    nexradio.o(i._ZN8NexRadio18Get_font_color_pcoEPj) refers to sys.o(i._ZN6StringD1Ev) for String::~String()
    nexradio.o(i._ZN8NexRadio18Set_font_color_pcoEj) refers to sys.o(i._ZN6StringC1EPKc) for String::String(const char*)
    nexradio.o(i._ZN8NexRadio18Set_font_color_pcoEj) refers to sys.o(i.utoa) for utoa
    nexradio.o(i._ZN8NexRadio18Set_font_color_pcoEj) refers to nexobject.o(i._ZN9NexObject10getObjNameEv) for NexObject::getObjName()
    nexradio.o(i._ZN8NexRadio18Set_font_color_pcoEj) refers to nexbutton.o(i._ZN6StringpLEPKc) for String::operator +=(const char*)
    nexradio.o(i._ZN8NexRadio18Set_font_color_pcoEj) refers to nexbutton.o(i._ZNK6String5c_strEv) for String::c_str() const
    nexradio.o(i._ZN8NexRadio18Set_font_color_pcoEj) refers to nexhardware.o(i._Z11sendCommandPKc) for sendCommand(const char*)
    nexradio.o(i._ZN8NexRadio18Set_font_color_pcoEj) refers to sys.o(i._ZN6StringaSEPKc) for String::operator =(const char*)
    nexradio.o(i._ZN8NexRadio18Set_font_color_pcoEj) refers to nexhardware.o(i._Z22recvRetCommandFinishedj) for recvRetCommandFinished(unsigned)
    nexradio.o(i._ZN8NexRadio18Set_font_color_pcoEj) refers to sys.o(i._ZN6StringD1Ev) for String::~String()
    nexradio.o(i._ZN8NexRadio24Get_background_color_bcoEPj) refers to sys.o(i._ZN6StringC1EPKc) for String::String(const char*)
    nexradio.o(i._ZN8NexRadio24Get_background_color_bcoEPj) refers to nexbutton.o(i._ZN6StringpLEPKc) for String::operator +=(const char*)
    nexradio.o(i._ZN8NexRadio24Get_background_color_bcoEPj) refers to nexobject.o(i._ZN9NexObject10getObjNameEv) for NexObject::getObjName()
    nexradio.o(i._ZN8NexRadio24Get_background_color_bcoEPj) refers to nexbutton.o(i._ZNK6String5c_strEv) for String::c_str() const
    nexradio.o(i._ZN8NexRadio24Get_background_color_bcoEPj) refers to nexhardware.o(i._Z11sendCommandPKc) for sendCommand(const char*)
    nexradio.o(i._ZN8NexRadio24Get_background_color_bcoEPj) refers to nexhardware.o(i._Z13recvRetNumberPjj) for recvRetNumber(unsigned*, unsigned)
    nexradio.o(i._ZN8NexRadio24Get_background_color_bcoEPj) refers to sys.o(i._ZN6StringD1Ev) for String::~String()
    nexradio.o(i._ZN8NexRadio24Set_background_color_bcoEj) refers to sys.o(i._ZN6StringC1EPKc) for String::String(const char*)
    nexradio.o(i._ZN8NexRadio24Set_background_color_bcoEj) refers to sys.o(i.utoa) for utoa
    nexradio.o(i._ZN8NexRadio24Set_background_color_bcoEj) refers to nexobject.o(i._ZN9NexObject10getObjNameEv) for NexObject::getObjName()
    nexradio.o(i._ZN8NexRadio24Set_background_color_bcoEj) refers to nexbutton.o(i._ZN6StringpLEPKc) for String::operator +=(const char*)
    nexradio.o(i._ZN8NexRadio24Set_background_color_bcoEj) refers to nexbutton.o(i._ZNK6String5c_strEv) for String::c_str() const
    nexradio.o(i._ZN8NexRadio24Set_background_color_bcoEj) refers to nexhardware.o(i._Z11sendCommandPKc) for sendCommand(const char*)
    nexradio.o(i._ZN8NexRadio24Set_background_color_bcoEj) refers to sys.o(i._ZN6StringaSEPKc) for String::operator =(const char*)
    nexradio.o(i._ZN8NexRadio24Set_background_color_bcoEj) refers to nexhardware.o(i._Z22recvRetCommandFinishedj) for recvRetCommandFinished(unsigned)
    nexradio.o(i._ZN8NexRadio24Set_background_color_bcoEj) refers to sys.o(i._ZN6StringD1Ev) for String::~String()
    nexradio.o(i._ZN8NexRadio8getValueEPj) refers to sys.o(i._ZN6StringC1EPKc) for String::String(const char*)
    nexradio.o(i._ZN8NexRadio8getValueEPj) refers to nexobject.o(i._ZN9NexObject10getObjNameEv) for NexObject::getObjName()
    nexradio.o(i._ZN8NexRadio8getValueEPj) refers to nexbutton.o(i._ZN6StringpLEPKc) for String::operator +=(const char*)
    nexradio.o(i._ZN8NexRadio8getValueEPj) refers to nexbutton.o(i._ZNK6String5c_strEv) for String::c_str() const
    nexradio.o(i._ZN8NexRadio8getValueEPj) refers to nexhardware.o(i._Z11sendCommandPKc) for sendCommand(const char*)
    nexradio.o(i._ZN8NexRadio8getValueEPj) refers to nexhardware.o(i._Z13recvRetNumberPjj) for recvRetNumber(unsigned*, unsigned)
    nexradio.o(i._ZN8NexRadio8getValueEPj) refers to sys.o(i._ZN6StringD1Ev) for String::~String()
    nexradio.o(i._ZN8NexRadio8setValueEj) refers to sys.o(i._ZN6StringC1EPKc) for String::String(const char*)
    nexradio.o(i._ZN8NexRadio8setValueEj) refers to sys.o(i.utoa) for utoa
    nexradio.o(i._ZN8NexRadio8setValueEj) refers to nexobject.o(i._ZN9NexObject10getObjNameEv) for NexObject::getObjName()
    nexradio.o(i._ZN8NexRadio8setValueEj) refers to nexbutton.o(i._ZN6StringpLEPKc) for String::operator +=(const char*)
    nexradio.o(i._ZN8NexRadio8setValueEj) refers to nexbutton.o(i._ZNK6String5c_strEv) for String::c_str() const
    nexradio.o(i._ZN8NexRadio8setValueEj) refers to nexhardware.o(i._Z11sendCommandPKc) for sendCommand(const char*)
    nexradio.o(i._ZN8NexRadio8setValueEj) refers to nexhardware.o(i._Z22recvRetCommandFinishedj) for recvRetCommandFinished(unsigned)
    nexradio.o(i._ZN8NexRadio8setValueEj) refers to sys.o(i._ZN6StringD1Ev) for String::~String()
    nexradio.o(i._ZN8NexRadioC1EhhPKc) refers to nextouch.o(i._ZN8NexTouchC1EhhPKc) for NexTouch::NexTouch(unsigned char, unsigned char, const char*)
    nexradio.o(.ARM.exidx) refers to nexradio.o(i._ZN8NexRadioC1EhhPKc) for i._ZN8NexRadioC1EhhPKc
    nexradio.o(.ARM.exidx) refers to nexradio.o(i._ZN8NexRadio8getValueEPj) for i._ZN8NexRadio8getValueEPj
    nexradio.o(.ARM.exidx) refers to nexradio.o(i._ZN8NexRadio8setValueEj) for i._ZN8NexRadio8setValueEj
    nexradio.o(.ARM.exidx) refers to nexradio.o(i._ZN8NexRadio24Get_background_color_bcoEPj) for i._ZN8NexRadio24Get_background_color_bcoEPj
    nexradio.o(.ARM.exidx) refers to nexradio.o(i._ZN8NexRadio24Set_background_color_bcoEj) for i._ZN8NexRadio24Set_background_color_bcoEj
    nexradio.o(.ARM.exidx) refers to nexradio.o(i._ZN8NexRadio18Get_font_color_pcoEPj) for i._ZN8NexRadio18Get_font_color_pcoEPj
    nexradio.o(.ARM.exidx) refers to nexradio.o(i._ZN8NexRadio18Set_font_color_pcoEj) for i._ZN8NexRadio18Set_font_color_pcoEj
    nexrtc.o(i._ZN6NexRtc13read_rtc_timeEPcPj) refers to sys.o(i._ZN6StringC1EPKc) for String::String(const char*)
    nexrtc.o(i._ZN6NexRtc13read_rtc_timeEPcPj) refers to sys.o(i._ZSt6strstrPcPKc) for std::strstr(char*, const char*)
    nexrtc.o(i._ZN6NexRtc13read_rtc_timeEPcPj) refers to nexgpio.o(i._ZN6StringpLEc) for String::operator +=(char)
    nexrtc.o(i._ZN6NexRtc13read_rtc_timeEPcPj) refers to sys.o(i._ZN6StringD1Ev) for String::~String()
    nexrtc.o(i._ZN6NexRtc13read_rtc_timeEPcPj) refers to nexbutton.o(i._ZNK6String5c_strEv) for String::c_str() const
    nexrtc.o(i._ZN6NexRtc13read_rtc_timeEPcPj) refers to nexhardware.o(i._Z11sendCommandPKc) for sendCommand(const char*)
    nexrtc.o(i._ZN6NexRtc13read_rtc_timeEPcPj) refers to nexhardware.o(i._Z13recvRetNumberPjj) for recvRetNumber(unsigned*, unsigned)
    nexrtc.o(i._ZN6NexRtc13read_rtc_timeEPcj) refers to memmovea.o(.text) for __aeabi_memcpy4
    nexrtc.o(i._ZN6NexRtc13read_rtc_timeEPcj) refers to sys.o(i._ZN6StringC1EPKc) for String::String(const char*)
    nexrtc.o(i._ZN6NexRtc13read_rtc_timeEPcj) refers to sys.o(i._ZN6StringaSEPKc) for String::operator =(const char*)
    nexrtc.o(i._ZN6NexRtc13read_rtc_timeEPcj) refers to nexbutton.o(i._ZNK6String5c_strEv) for String::c_str() const
    nexrtc.o(i._ZN6NexRtc13read_rtc_timeEPcj) refers to nexhardware.o(i._Z11sendCommandPKc) for sendCommand(const char*)
    nexrtc.o(i._ZN6NexRtc13read_rtc_timeEPcj) refers to nexhardware.o(i._Z13recvRetNumberPjj) for recvRetNumber(unsigned*, unsigned)
    nexrtc.o(i._ZN6NexRtc13read_rtc_timeEPcj) refers to sys.o(i._ZN6StringD1Ev) for String::~String()
    nexrtc.o(i._ZN6NexRtc13read_rtc_timeEPjj) refers to memseta.o(.text) for __aeabi_memclr4
    nexrtc.o(i._ZN6NexRtc13read_rtc_timeEPjj) refers to sys.o(i._ZN6StringC1EPKc) for String::String(const char*)
    nexrtc.o(i._ZN6NexRtc13read_rtc_timeEPjj) refers to sys.o(i._ZN6StringaSEPKc) for String::operator =(const char*)
    nexrtc.o(i._ZN6NexRtc13read_rtc_timeEPjj) refers to nexbutton.o(i._ZNK6String5c_strEv) for String::c_str() const
    nexrtc.o(i._ZN6NexRtc13read_rtc_timeEPjj) refers to nexhardware.o(i._Z11sendCommandPKc) for sendCommand(const char*)
    nexrtc.o(i._ZN6NexRtc13read_rtc_timeEPjj) refers to nexhardware.o(i._Z13recvRetNumberPjj) for recvRetNumber(unsigned*, unsigned)
    nexrtc.o(i._ZN6NexRtc13read_rtc_timeEPjj) refers to sys.o(i._ZN6StringD1Ev) for String::~String()
    nexrtc.o(i._ZN6NexRtc14write_rtc_timeEPc) refers to sys.o(i._ZN6StringC1EPKc) for String::String(const char*)
    nexrtc.o(i._ZN6NexRtc14write_rtc_timeEPc) refers to strlen.o(.text) for strlen
    nexrtc.o(i._ZN6NexRtc14write_rtc_timeEPc) refers to nexbutton.o(i._ZN6StringpLEPKc) for String::operator +=(const char*)
    nexrtc.o(i._ZN6NexRtc14write_rtc_timeEPc) refers to nexbutton.o(i._ZNK6String5c_strEv) for String::c_str() const
    nexrtc.o(i._ZN6NexRtc14write_rtc_timeEPc) refers to nexhardware.o(i._Z11sendCommandPKc) for sendCommand(const char*)
    nexrtc.o(i._ZN6NexRtc14write_rtc_timeEPc) refers to nexhardware.o(i._Z22recvRetCommandFinishedj) for recvRetCommandFinished(unsigned)
    nexrtc.o(i._ZN6NexRtc14write_rtc_timeEPc) refers to sys.o(i._ZN6StringaSEPKc) for String::operator =(const char*)
    nexrtc.o(i._ZN6NexRtc14write_rtc_timeEPc) refers to sys.o(i._ZN6StringD1Ev) for String::~String()
    nexrtc.o(i._ZN6NexRtc14write_rtc_timeEPcj) refers to sys.o(i._ZN6StringC1EPKc) for String::String(const char*)
    nexrtc.o(i._ZN6NexRtc14write_rtc_timeEPcj) refers to sys.o(i.utoa) for utoa
    nexrtc.o(i._ZN6NexRtc14write_rtc_timeEPcj) refers to sys.o(i._ZSt6strstrPcPKc) for std::strstr(char*, const char*)
    nexrtc.o(i._ZN6NexRtc14write_rtc_timeEPcj) refers to nexbutton.o(i._ZN6StringpLEPKc) for String::operator +=(const char*)
    nexrtc.o(i._ZN6NexRtc14write_rtc_timeEPcj) refers to nexbutton.o(i._ZNK6String5c_strEv) for String::c_str() const
    nexrtc.o(i._ZN6NexRtc14write_rtc_timeEPcj) refers to nexhardware.o(i._Z11sendCommandPKc) for sendCommand(const char*)
    nexrtc.o(i._ZN6NexRtc14write_rtc_timeEPcj) refers to nexhardware.o(i._Z22recvRetCommandFinishedj) for recvRetCommandFinished(unsigned)
    nexrtc.o(i._ZN6NexRtc14write_rtc_timeEPcj) refers to sys.o(i._ZN6StringD1Ev) for String::~String()
    nexrtc.o(i._ZN6NexRtc14write_rtc_timeEPj) refers to sys.o(i._ZN6StringC1EPKc) for String::String(const char*)
    nexrtc.o(i._ZN6NexRtc14write_rtc_timeEPj) refers to sys.o(i.utoa) for utoa
    nexrtc.o(i._ZN6NexRtc14write_rtc_timeEPj) refers to nexbutton.o(i._ZN6StringpLEPKc) for String::operator +=(const char*)
    nexrtc.o(i._ZN6NexRtc14write_rtc_timeEPj) refers to nexbutton.o(i._ZNK6String5c_strEv) for String::c_str() const
    nexrtc.o(i._ZN6NexRtc14write_rtc_timeEPj) refers to nexhardware.o(i._Z11sendCommandPKc) for sendCommand(const char*)
    nexrtc.o(i._ZN6NexRtc14write_rtc_timeEPj) refers to nexhardware.o(i._Z22recvRetCommandFinishedj) for recvRetCommandFinished(unsigned)
    nexrtc.o(i._ZN6NexRtc14write_rtc_timeEPj) refers to sys.o(i._ZN6StringaSEPKc) for String::operator =(const char*)
    nexrtc.o(i._ZN6NexRtc14write_rtc_timeEPj) refers to sys.o(i._ZN6StringD1Ev) for String::~String()
    nexrtc.o(.ARM.exidx) refers to nexrtc.o(i._ZN6NexRtc14write_rtc_timeEPc) for i._ZN6NexRtc14write_rtc_timeEPc
    nexrtc.o(.ARM.exidx) refers to nexrtc.o(i._ZN6NexRtc14write_rtc_timeEPcj) for i._ZN6NexRtc14write_rtc_timeEPcj
    nexrtc.o(.ARM.exidx) refers to nexrtc.o(i._ZN6NexRtc14write_rtc_timeEPj) for i._ZN6NexRtc14write_rtc_timeEPj
    nexrtc.o(.ARM.exidx) refers to nexrtc.o(i._ZN6NexRtc13read_rtc_timeEPcj) for i._ZN6NexRtc13read_rtc_timeEPcj
    nexrtc.o(.ARM.exidx) refers to nexrtc.o(i._ZN6NexRtc13read_rtc_timeEPcPj) for i._ZN6NexRtc13read_rtc_timeEPcPj
    nexrtc.o(.ARM.exidx) refers to nexrtc.o(i._ZN6NexRtc13read_rtc_timeEPjj) for i._ZN6NexRtc13read_rtc_timeEPjj
    nexscrolltext.o(i._ZN13NexScrolltext13Get_cycle_timEPj) refers to sys.o(i._ZN6StringC1EPKc) for String::String(const char*)
    nexscrolltext.o(i._ZN13NexScrolltext13Get_cycle_timEPj) refers to nexobject.o(i._ZN9NexObject10getObjNameEv) for NexObject::getObjName()
    nexscrolltext.o(i._ZN13NexScrolltext13Get_cycle_timEPj) refers to nexbutton.o(i._ZN6StringpLEPKc) for String::operator +=(const char*)
    nexscrolltext.o(i._ZN13NexScrolltext13Get_cycle_timEPj) refers to nexbutton.o(i._ZNK6String5c_strEv) for String::c_str() const
    nexscrolltext.o(i._ZN13NexScrolltext13Get_cycle_timEPj) refers to nexhardware.o(i._Z11sendCommandPKc) for sendCommand(const char*)
    nexscrolltext.o(i._ZN13NexScrolltext13Get_cycle_timEPj) refers to nexhardware.o(i._Z13recvRetNumberPjj) for recvRetNumber(unsigned*, unsigned)
    nexscrolltext.o(i._ZN13NexScrolltext13Get_cycle_timEPj) refers to sys.o(i._ZN6StringD1Ev) for String::~String()
    nexscrolltext.o(i._ZN13NexScrolltext13Set_cycle_timEj) refers to sys.o(i._ZN6StringC1EPKc) for String::String(const char*)
    nexscrolltext.o(i._ZN13NexScrolltext13Set_cycle_timEj) refers to sys.o(i.utoa) for utoa
    nexscrolltext.o(i._ZN13NexScrolltext13Set_cycle_timEj) refers to nexobject.o(i._ZN9NexObject10getObjNameEv) for NexObject::getObjName()
    nexscrolltext.o(i._ZN13NexScrolltext13Set_cycle_timEj) refers to nexbutton.o(i._ZN6StringpLEPKc) for String::operator +=(const char*)
    nexscrolltext.o(i._ZN13NexScrolltext13Set_cycle_timEj) refers to nexbutton.o(i._ZNK6String5c_strEv) for String::c_str() const
    nexscrolltext.o(i._ZN13NexScrolltext13Set_cycle_timEj) refers to nexhardware.o(i._Z11sendCommandPKc) for sendCommand(const char*)
    nexscrolltext.o(i._ZN13NexScrolltext13Set_cycle_timEj) refers to sys.o(i._ZN6StringaSEPKc) for String::operator =(const char*)
    nexscrolltext.o(i._ZN13NexScrolltext13Set_cycle_timEj) refers to nexhardware.o(i._Z22recvRetCommandFinishedj) for recvRetCommandFinished(unsigned)
    nexscrolltext.o(i._ZN13NexScrolltext13Set_cycle_timEj) refers to sys.o(i._ZN6StringD1Ev) for String::~String()
    nexscrolltext.o(i._ZN13NexScrolltext14Get_place_xcenEPj) refers to sys.o(i._ZN6StringC1EPKc) for String::String(const char*)
    nexscrolltext.o(i._ZN13NexScrolltext14Get_place_xcenEPj) refers to nexbutton.o(i._ZN6StringpLEPKc) for String::operator +=(const char*)
    nexscrolltext.o(i._ZN13NexScrolltext14Get_place_xcenEPj) refers to nexobject.o(i._ZN9NexObject10getObjNameEv) for NexObject::getObjName()
    nexscrolltext.o(i._ZN13NexScrolltext14Get_place_xcenEPj) refers to nexbutton.o(i._ZNK6String5c_strEv) for String::c_str() const
    nexscrolltext.o(i._ZN13NexScrolltext14Get_place_xcenEPj) refers to nexhardware.o(i._Z11sendCommandPKc) for sendCommand(const char*)
    nexscrolltext.o(i._ZN13NexScrolltext14Get_place_xcenEPj) refers to nexhardware.o(i._Z13recvRetNumberPjj) for recvRetNumber(unsigned*, unsigned)
    nexscrolltext.o(i._ZN13NexScrolltext14Get_place_xcenEPj) refers to sys.o(i._ZN6StringD1Ev) for String::~String()
    nexscrolltext.o(i._ZN13NexScrolltext14Get_place_ycenEPj) refers to sys.o(i._ZN6StringC1EPKc) for String::String(const char*)
    nexscrolltext.o(i._ZN13NexScrolltext14Get_place_ycenEPj) refers to nexbutton.o(i._ZN6StringpLEPKc) for String::operator +=(const char*)
    nexscrolltext.o(i._ZN13NexScrolltext14Get_place_ycenEPj) refers to nexobject.o(i._ZN9NexObject10getObjNameEv) for NexObject::getObjName()
    nexscrolltext.o(i._ZN13NexScrolltext14Get_place_ycenEPj) refers to nexbutton.o(i._ZNK6String5c_strEv) for String::c_str() const
    nexscrolltext.o(i._ZN13NexScrolltext14Get_place_ycenEPj) refers to nexhardware.o(i._Z11sendCommandPKc) for sendCommand(const char*)
    nexscrolltext.o(i._ZN13NexScrolltext14Get_place_ycenEPj) refers to nexhardware.o(i._Z13recvRetNumberPjj) for recvRetNumber(unsigned*, unsigned)
    nexscrolltext.o(i._ZN13NexScrolltext14Get_place_ycenEPj) refers to sys.o(i._ZN6StringD1Ev) for String::~String()
    nexscrolltext.o(i._ZN13NexScrolltext14Get_scroll_dirEPj) refers to sys.o(i._ZN6StringC1EPKc) for String::String(const char*)
    nexscrolltext.o(i._ZN13NexScrolltext14Get_scroll_dirEPj) refers to nexobject.o(i._ZN9NexObject10getObjNameEv) for NexObject::getObjName()
    nexscrolltext.o(i._ZN13NexScrolltext14Get_scroll_dirEPj) refers to nexbutton.o(i._ZN6StringpLEPKc) for String::operator +=(const char*)
    nexscrolltext.o(i._ZN13NexScrolltext14Get_scroll_dirEPj) refers to nexbutton.o(i._ZNK6String5c_strEv) for String::c_str() const
    nexscrolltext.o(i._ZN13NexScrolltext14Get_scroll_dirEPj) refers to nexhardware.o(i._Z11sendCommandPKc) for sendCommand(const char*)
    nexscrolltext.o(i._ZN13NexScrolltext14Get_scroll_dirEPj) refers to nexhardware.o(i._Z13recvRetNumberPjj) for recvRetNumber(unsigned*, unsigned)
    nexscrolltext.o(i._ZN13NexScrolltext14Get_scroll_dirEPj) refers to sys.o(i._ZN6StringD1Ev) for String::~String()
    nexscrolltext.o(i._ZN13NexScrolltext14Set_place_xcenEj) refers to sys.o(i._ZN6StringC1EPKc) for String::String(const char*)
    nexscrolltext.o(i._ZN13NexScrolltext14Set_place_xcenEj) refers to sys.o(i.utoa) for utoa
    nexscrolltext.o(i._ZN13NexScrolltext14Set_place_xcenEj) refers to nexobject.o(i._ZN9NexObject10getObjNameEv) for NexObject::getObjName()
    nexscrolltext.o(i._ZN13NexScrolltext14Set_place_xcenEj) refers to nexbutton.o(i._ZN6StringpLEPKc) for String::operator +=(const char*)
    nexscrolltext.o(i._ZN13NexScrolltext14Set_place_xcenEj) refers to nexbutton.o(i._ZNK6String5c_strEv) for String::c_str() const
    nexscrolltext.o(i._ZN13NexScrolltext14Set_place_xcenEj) refers to nexhardware.o(i._Z11sendCommandPKc) for sendCommand(const char*)
    nexscrolltext.o(i._ZN13NexScrolltext14Set_place_xcenEj) refers to sys.o(i._ZN6StringaSEPKc) for String::operator =(const char*)
    nexscrolltext.o(i._ZN13NexScrolltext14Set_place_xcenEj) refers to nexhardware.o(i._Z22recvRetCommandFinishedj) for recvRetCommandFinished(unsigned)
    nexscrolltext.o(i._ZN13NexScrolltext14Set_place_xcenEj) refers to sys.o(i._ZN6StringD1Ev) for String::~String()
    nexscrolltext.o(i._ZN13NexScrolltext14Set_place_ycenEj) refers to sys.o(i._ZN6StringC1EPKc) for String::String(const char*)
    nexscrolltext.o(i._ZN13NexScrolltext14Set_place_ycenEj) refers to sys.o(i.utoa) for utoa
    nexscrolltext.o(i._ZN13NexScrolltext14Set_place_ycenEj) refers to nexobject.o(i._ZN9NexObject10getObjNameEv) for NexObject::getObjName()
    nexscrolltext.o(i._ZN13NexScrolltext14Set_place_ycenEj) refers to nexbutton.o(i._ZN6StringpLEPKc) for String::operator +=(const char*)
    nexscrolltext.o(i._ZN13NexScrolltext14Set_place_ycenEj) refers to nexbutton.o(i._ZNK6String5c_strEv) for String::c_str() const
    nexscrolltext.o(i._ZN13NexScrolltext14Set_place_ycenEj) refers to nexhardware.o(i._Z11sendCommandPKc) for sendCommand(const char*)
    nexscrolltext.o(i._ZN13NexScrolltext14Set_place_ycenEj) refers to sys.o(i._ZN6StringaSEPKc) for String::operator =(const char*)
    nexscrolltext.o(i._ZN13NexScrolltext14Set_place_ycenEj) refers to nexhardware.o(i._Z22recvRetCommandFinishedj) for recvRetCommandFinished(unsigned)
    nexscrolltext.o(i._ZN13NexScrolltext14Set_place_ycenEj) refers to sys.o(i._ZN6StringD1Ev) for String::~String()
    nexscrolltext.o(i._ZN13NexScrolltext14Set_scroll_dirEj) refers to sys.o(i._ZN6StringC1EPKc) for String::String(const char*)
    nexscrolltext.o(i._ZN13NexScrolltext14Set_scroll_dirEj) refers to sys.o(i.utoa) for utoa
    nexscrolltext.o(i._ZN13NexScrolltext14Set_scroll_dirEj) refers to nexobject.o(i._ZN9NexObject10getObjNameEv) for NexObject::getObjName()
    nexscrolltext.o(i._ZN13NexScrolltext14Set_scroll_dirEj) refers to nexbutton.o(i._ZN6StringpLEPKc) for String::operator +=(const char*)
    nexscrolltext.o(i._ZN13NexScrolltext14Set_scroll_dirEj) refers to nexbutton.o(i._ZNK6String5c_strEv) for String::c_str() const
    nexscrolltext.o(i._ZN13NexScrolltext14Set_scroll_dirEj) refers to nexhardware.o(i._Z11sendCommandPKc) for sendCommand(const char*)
    nexscrolltext.o(i._ZN13NexScrolltext14Set_scroll_dirEj) refers to sys.o(i._ZN6StringaSEPKc) for String::operator =(const char*)
    nexscrolltext.o(i._ZN13NexScrolltext14Set_scroll_dirEj) refers to nexhardware.o(i._Z22recvRetCommandFinishedj) for recvRetCommandFinished(unsigned)
    nexscrolltext.o(i._ZN13NexScrolltext14Set_scroll_dirEj) refers to sys.o(i._ZN6StringD1Ev) for String::~String()
    nexscrolltext.o(i._ZN13NexScrolltext18Get_font_color_pcoEPj) refers to sys.o(i._ZN6StringC1EPKc) for String::String(const char*)
    nexscrolltext.o(i._ZN13NexScrolltext18Get_font_color_pcoEPj) refers to nexbutton.o(i._ZN6StringpLEPKc) for String::operator +=(const char*)
    nexscrolltext.o(i._ZN13NexScrolltext18Get_font_color_pcoEPj) refers to nexobject.o(i._ZN9NexObject10getObjNameEv) for NexObject::getObjName()
    nexscrolltext.o(i._ZN13NexScrolltext18Get_font_color_pcoEPj) refers to nexbutton.o(i._ZNK6String5c_strEv) for String::c_str() const
    nexscrolltext.o(i._ZN13NexScrolltext18Get_font_color_pcoEPj) refers to nexhardware.o(i._Z11sendCommandPKc) for sendCommand(const char*)
    nexscrolltext.o(i._ZN13NexScrolltext18Get_font_color_pcoEPj) refers to nexhardware.o(i._Z13recvRetNumberPjj) for recvRetNumber(unsigned*, unsigned)
    nexscrolltext.o(i._ZN13NexScrolltext18Get_font_color_pcoEPj) refers to sys.o(i._ZN6StringD1Ev) for String::~String()
    nexscrolltext.o(i._ZN13NexScrolltext18Set_font_color_pcoEj) refers to sys.o(i._ZN6StringC1EPKc) for String::String(const char*)
    nexscrolltext.o(i._ZN13NexScrolltext18Set_font_color_pcoEj) refers to sys.o(i.utoa) for utoa
    nexscrolltext.o(i._ZN13NexScrolltext18Set_font_color_pcoEj) refers to nexobject.o(i._ZN9NexObject10getObjNameEv) for NexObject::getObjName()
    nexscrolltext.o(i._ZN13NexScrolltext18Set_font_color_pcoEj) refers to nexbutton.o(i._ZN6StringpLEPKc) for String::operator +=(const char*)
    nexscrolltext.o(i._ZN13NexScrolltext18Set_font_color_pcoEj) refers to nexbutton.o(i._ZNK6String5c_strEv) for String::c_str() const
    nexscrolltext.o(i._ZN13NexScrolltext18Set_font_color_pcoEj) refers to nexhardware.o(i._Z11sendCommandPKc) for sendCommand(const char*)
    nexscrolltext.o(i._ZN13NexScrolltext18Set_font_color_pcoEj) refers to sys.o(i._ZN6StringaSEPKc) for String::operator =(const char*)
    nexscrolltext.o(i._ZN13NexScrolltext18Set_font_color_pcoEj) refers to nexhardware.o(i._Z22recvRetCommandFinishedj) for recvRetCommandFinished(unsigned)
    nexscrolltext.o(i._ZN13NexScrolltext18Set_font_color_pcoEj) refers to sys.o(i._ZN6StringD1Ev) for String::~String()
    nexscrolltext.o(i._ZN13NexScrolltext19Get_scroll_distanceEPj) refers to sys.o(i._ZN6StringC1EPKc) for String::String(const char*)
    nexscrolltext.o(i._ZN13NexScrolltext19Get_scroll_distanceEPj) refers to nexobject.o(i._ZN9NexObject10getObjNameEv) for NexObject::getObjName()
    nexscrolltext.o(i._ZN13NexScrolltext19Get_scroll_distanceEPj) refers to nexbutton.o(i._ZN6StringpLEPKc) for String::operator +=(const char*)
    nexscrolltext.o(i._ZN13NexScrolltext19Get_scroll_distanceEPj) refers to nexbutton.o(i._ZNK6String5c_strEv) for String::c_str() const
    nexscrolltext.o(i._ZN13NexScrolltext19Get_scroll_distanceEPj) refers to nexhardware.o(i._Z11sendCommandPKc) for sendCommand(const char*)
    nexscrolltext.o(i._ZN13NexScrolltext19Get_scroll_distanceEPj) refers to nexhardware.o(i._Z13recvRetNumberPjj) for recvRetNumber(unsigned*, unsigned)
    nexscrolltext.o(i._ZN13NexScrolltext19Get_scroll_distanceEPj) refers to sys.o(i._ZN6StringD1Ev) for String::~String()
    nexscrolltext.o(i._ZN13NexScrolltext19Set_scroll_distanceEj) refers to sys.o(i._ZN6StringC1EPKc) for String::String(const char*)
    nexscrolltext.o(i._ZN13NexScrolltext19Set_scroll_distanceEj) refers to sys.o(i.utoa) for utoa
    nexscrolltext.o(i._ZN13NexScrolltext19Set_scroll_distanceEj) refers to nexobject.o(i._ZN9NexObject10getObjNameEv) for NexObject::getObjName()
    nexscrolltext.o(i._ZN13NexScrolltext19Set_scroll_distanceEj) refers to nexbutton.o(i._ZN6StringpLEPKc) for String::operator +=(const char*)
    nexscrolltext.o(i._ZN13NexScrolltext19Set_scroll_distanceEj) refers to nexbutton.o(i._ZNK6String5c_strEv) for String::c_str() const
    nexscrolltext.o(i._ZN13NexScrolltext19Set_scroll_distanceEj) refers to nexhardware.o(i._Z11sendCommandPKc) for sendCommand(const char*)
    nexscrolltext.o(i._ZN13NexScrolltext19Set_scroll_distanceEj) refers to sys.o(i._ZN6StringaSEPKc) for String::operator =(const char*)
    nexscrolltext.o(i._ZN13NexScrolltext19Set_scroll_distanceEj) refers to nexhardware.o(i._Z22recvRetCommandFinishedj) for recvRetCommandFinished(unsigned)
    nexscrolltext.o(i._ZN13NexScrolltext19Set_scroll_distanceEj) refers to sys.o(i._ZN6StringD1Ev) for String::~String()
    nexscrolltext.o(i._ZN13NexScrolltext24Get_background_color_bcoEPj) refers to sys.o(i._ZN6StringC1EPKc) for String::String(const char*)
    nexscrolltext.o(i._ZN13NexScrolltext24Get_background_color_bcoEPj) refers to nexbutton.o(i._ZN6StringpLEPKc) for String::operator +=(const char*)
    nexscrolltext.o(i._ZN13NexScrolltext24Get_background_color_bcoEPj) refers to nexobject.o(i._ZN9NexObject10getObjNameEv) for NexObject::getObjName()
    nexscrolltext.o(i._ZN13NexScrolltext24Get_background_color_bcoEPj) refers to nexbutton.o(i._ZNK6String5c_strEv) for String::c_str() const
    nexscrolltext.o(i._ZN13NexScrolltext24Get_background_color_bcoEPj) refers to nexhardware.o(i._Z11sendCommandPKc) for sendCommand(const char*)
    nexscrolltext.o(i._ZN13NexScrolltext24Get_background_color_bcoEPj) refers to nexhardware.o(i._Z13recvRetNumberPjj) for recvRetNumber(unsigned*, unsigned)
    nexscrolltext.o(i._ZN13NexScrolltext24Get_background_color_bcoEPj) refers to sys.o(i._ZN6StringD1Ev) for String::~String()
    nexscrolltext.o(i._ZN13NexScrolltext24Get_background_crop_piccEPj) refers to sys.o(i._ZN6StringC1EPKc) for String::String(const char*)
    nexscrolltext.o(i._ZN13NexScrolltext24Get_background_crop_piccEPj) refers to nexbutton.o(i._ZN6StringpLEPKc) for String::operator +=(const char*)
    nexscrolltext.o(i._ZN13NexScrolltext24Get_background_crop_piccEPj) refers to nexobject.o(i._ZN9NexObject10getObjNameEv) for NexObject::getObjName()
    nexscrolltext.o(i._ZN13NexScrolltext24Get_background_crop_piccEPj) refers to nexbutton.o(i._ZNK6String5c_strEv) for String::c_str() const
    nexscrolltext.o(i._ZN13NexScrolltext24Get_background_crop_piccEPj) refers to nexhardware.o(i._Z11sendCommandPKc) for sendCommand(const char*)
    nexscrolltext.o(i._ZN13NexScrolltext24Get_background_crop_piccEPj) refers to nexhardware.o(i._Z13recvRetNumberPjj) for recvRetNumber(unsigned*, unsigned)
    nexscrolltext.o(i._ZN13NexScrolltext24Get_background_crop_piccEPj) refers to sys.o(i._ZN6StringD1Ev) for String::~String()
    nexscrolltext.o(i._ZN13NexScrolltext24Get_background_image_picEPj) refers to sys.o(i._ZN6StringC1EPKc) for String::String(const char*)
    nexscrolltext.o(i._ZN13NexScrolltext24Get_background_image_picEPj) refers to nexobject.o(i._ZN9NexObject10getObjNameEv) for NexObject::getObjName()
    nexscrolltext.o(i._ZN13NexScrolltext24Get_background_image_picEPj) refers to nexbutton.o(i._ZN6StringpLEPKc) for String::operator +=(const char*)
    nexscrolltext.o(i._ZN13NexScrolltext24Get_background_image_picEPj) refers to nexbutton.o(i._ZNK6String5c_strEv) for String::c_str() const
    nexscrolltext.o(i._ZN13NexScrolltext24Get_background_image_picEPj) refers to nexhardware.o(i._Z11sendCommandPKc) for sendCommand(const char*)
    nexscrolltext.o(i._ZN13NexScrolltext24Get_background_image_picEPj) refers to nexhardware.o(i._Z13recvRetNumberPjj) for recvRetNumber(unsigned*, unsigned)
    nexscrolltext.o(i._ZN13NexScrolltext24Get_background_image_picEPj) refers to sys.o(i._ZN6StringD1Ev) for String::~String()
    nexscrolltext.o(i._ZN13NexScrolltext24Set_background_color_bcoEj) refers to sys.o(i._ZN6StringC1EPKc) for String::String(const char*)
    nexscrolltext.o(i._ZN13NexScrolltext24Set_background_color_bcoEj) refers to sys.o(i.utoa) for utoa
    nexscrolltext.o(i._ZN13NexScrolltext24Set_background_color_bcoEj) refers to nexobject.o(i._ZN9NexObject10getObjNameEv) for NexObject::getObjName()
    nexscrolltext.o(i._ZN13NexScrolltext24Set_background_color_bcoEj) refers to nexbutton.o(i._ZN6StringpLEPKc) for String::operator +=(const char*)
    nexscrolltext.o(i._ZN13NexScrolltext24Set_background_color_bcoEj) refers to nexbutton.o(i._ZNK6String5c_strEv) for String::c_str() const
    nexscrolltext.o(i._ZN13NexScrolltext24Set_background_color_bcoEj) refers to nexhardware.o(i._Z11sendCommandPKc) for sendCommand(const char*)
    nexscrolltext.o(i._ZN13NexScrolltext24Set_background_color_bcoEj) refers to sys.o(i._ZN6StringaSEPKc) for String::operator =(const char*)
    nexscrolltext.o(i._ZN13NexScrolltext24Set_background_color_bcoEj) refers to nexhardware.o(i._Z22recvRetCommandFinishedj) for recvRetCommandFinished(unsigned)
    nexscrolltext.o(i._ZN13NexScrolltext24Set_background_color_bcoEj) refers to sys.o(i._ZN6StringD1Ev) for String::~String()
    nexscrolltext.o(i._ZN13NexScrolltext24Set_background_crop_piccEj) refers to sys.o(i._ZN6StringC1EPKc) for String::String(const char*)
    nexscrolltext.o(i._ZN13NexScrolltext24Set_background_crop_piccEj) refers to sys.o(i.utoa) for utoa
    nexscrolltext.o(i._ZN13NexScrolltext24Set_background_crop_piccEj) refers to nexobject.o(i._ZN9NexObject10getObjNameEv) for NexObject::getObjName()
    nexscrolltext.o(i._ZN13NexScrolltext24Set_background_crop_piccEj) refers to nexbutton.o(i._ZN6StringpLEPKc) for String::operator +=(const char*)
    nexscrolltext.o(i._ZN13NexScrolltext24Set_background_crop_piccEj) refers to nexbutton.o(i._ZNK6String5c_strEv) for String::c_str() const
    nexscrolltext.o(i._ZN13NexScrolltext24Set_background_crop_piccEj) refers to nexhardware.o(i._Z11sendCommandPKc) for sendCommand(const char*)
    nexscrolltext.o(i._ZN13NexScrolltext24Set_background_crop_piccEj) refers to sys.o(i._ZN6StringaSEPKc) for String::operator =(const char*)
    nexscrolltext.o(i._ZN13NexScrolltext24Set_background_crop_piccEj) refers to nexhardware.o(i._Z22recvRetCommandFinishedj) for recvRetCommandFinished(unsigned)
    nexscrolltext.o(i._ZN13NexScrolltext24Set_background_crop_piccEj) refers to sys.o(i._ZN6StringD1Ev) for String::~String()
    nexscrolltext.o(i._ZN13NexScrolltext24Set_background_image_picEj) refers to sys.o(i._ZN6StringC1EPKc) for String::String(const char*)
    nexscrolltext.o(i._ZN13NexScrolltext24Set_background_image_picEj) refers to sys.o(i.utoa) for utoa
    nexscrolltext.o(i._ZN13NexScrolltext24Set_background_image_picEj) refers to nexobject.o(i._ZN9NexObject10getObjNameEv) for NexObject::getObjName()
    nexscrolltext.o(i._ZN13NexScrolltext24Set_background_image_picEj) refers to nexbutton.o(i._ZN6StringpLEPKc) for String::operator +=(const char*)
    nexscrolltext.o(i._ZN13NexScrolltext24Set_background_image_picEj) refers to nexbutton.o(i._ZNK6String5c_strEv) for String::c_str() const
    nexscrolltext.o(i._ZN13NexScrolltext24Set_background_image_picEj) refers to nexhardware.o(i._Z11sendCommandPKc) for sendCommand(const char*)
    nexscrolltext.o(i._ZN13NexScrolltext24Set_background_image_picEj) refers to sys.o(i._ZN6StringaSEPKc) for String::operator =(const char*)
    nexscrolltext.o(i._ZN13NexScrolltext24Set_background_image_picEj) refers to nexhardware.o(i._Z22recvRetCommandFinishedj) for recvRetCommandFinished(unsigned)
    nexscrolltext.o(i._ZN13NexScrolltext24Set_background_image_picEj) refers to sys.o(i._ZN6StringD1Ev) for String::~String()
    nexscrolltext.o(i._ZN13NexScrolltext6enableEv) refers to sys.o(i._ZN6StringC1EPKc) for String::String(const char*)
    nexscrolltext.o(i._ZN13NexScrolltext6enableEv) refers to sys.o(i.utoa) for utoa
    nexscrolltext.o(i._ZN13NexScrolltext6enableEv) refers to nexobject.o(i._ZN9NexObject10getObjNameEv) for NexObject::getObjName()
    nexscrolltext.o(i._ZN13NexScrolltext6enableEv) refers to nexbutton.o(i._ZN6StringpLEPKc) for String::operator +=(const char*)
    nexscrolltext.o(i._ZN13NexScrolltext6enableEv) refers to nexbutton.o(i._ZNK6String5c_strEv) for String::c_str() const
    nexscrolltext.o(i._ZN13NexScrolltext6enableEv) refers to nexhardware.o(i._Z11sendCommandPKc) for sendCommand(const char*)
    nexscrolltext.o(i._ZN13NexScrolltext6enableEv) refers to nexhardware.o(i._Z22recvRetCommandFinishedj) for recvRetCommandFinished(unsigned)
    nexscrolltext.o(i._ZN13NexScrolltext6enableEv) refers to sys.o(i._ZN6StringD1Ev) for String::~String()
    nexscrolltext.o(i._ZN13NexScrolltext7disableEv) refers to sys.o(i._ZN6StringC1EPKc) for String::String(const char*)
    nexscrolltext.o(i._ZN13NexScrolltext7disableEv) refers to sys.o(i.utoa) for utoa
    nexscrolltext.o(i._ZN13NexScrolltext7disableEv) refers to nexobject.o(i._ZN9NexObject10getObjNameEv) for NexObject::getObjName()
    nexscrolltext.o(i._ZN13NexScrolltext7disableEv) refers to nexbutton.o(i._ZN6StringpLEPKc) for String::operator +=(const char*)
    nexscrolltext.o(i._ZN13NexScrolltext7disableEv) refers to nexbutton.o(i._ZNK6String5c_strEv) for String::c_str() const
    nexscrolltext.o(i._ZN13NexScrolltext7disableEv) refers to nexhardware.o(i._Z11sendCommandPKc) for sendCommand(const char*)
    nexscrolltext.o(i._ZN13NexScrolltext7disableEv) refers to nexhardware.o(i._Z22recvRetCommandFinishedj) for recvRetCommandFinished(unsigned)
    nexscrolltext.o(i._ZN13NexScrolltext7disableEv) refers to sys.o(i._ZN6StringD1Ev) for String::~String()
    nexscrolltext.o(i._ZN13NexScrolltext7getFontEPj) refers to sys.o(i._ZN6StringC1EPKc) for String::String(const char*)
    nexscrolltext.o(i._ZN13NexScrolltext7getFontEPj) refers to nexbutton.o(i._ZN6StringpLEPKc) for String::operator +=(const char*)
    nexscrolltext.o(i._ZN13NexScrolltext7getFontEPj) refers to nexobject.o(i._ZN9NexObject10getObjNameEv) for NexObject::getObjName()
    nexscrolltext.o(i._ZN13NexScrolltext7getFontEPj) refers to nexbutton.o(i._ZNK6String5c_strEv) for String::c_str() const
    nexscrolltext.o(i._ZN13NexScrolltext7getFontEPj) refers to nexhardware.o(i._Z11sendCommandPKc) for sendCommand(const char*)
    nexscrolltext.o(i._ZN13NexScrolltext7getFontEPj) refers to nexhardware.o(i._Z13recvRetNumberPjj) for recvRetNumber(unsigned*, unsigned)
    nexscrolltext.o(i._ZN13NexScrolltext7getFontEPj) refers to sys.o(i._ZN6StringD1Ev) for String::~String()
    nexscrolltext.o(i._ZN13NexScrolltext7getTextEPct) refers to sys.o(i._ZN6StringC1EPKc) for String::String(const char*)
    nexscrolltext.o(i._ZN13NexScrolltext7getTextEPct) refers to nexbutton.o(i._ZN6StringpLEPKc) for String::operator +=(const char*)
    nexscrolltext.o(i._ZN13NexScrolltext7getTextEPct) refers to nexobject.o(i._ZN9NexObject10getObjNameEv) for NexObject::getObjName()
    nexscrolltext.o(i._ZN13NexScrolltext7getTextEPct) refers to nexbutton.o(i._ZNK6String5c_strEv) for String::c_str() const
    nexscrolltext.o(i._ZN13NexScrolltext7getTextEPct) refers to nexhardware.o(i._Z11sendCommandPKc) for sendCommand(const char*)
    nexscrolltext.o(i._ZN13NexScrolltext7getTextEPct) refers to nexhardware.o(i._Z13recvRetStringPctj) for recvRetString(char*, unsigned short, unsigned)
    nexscrolltext.o(i._ZN13NexScrolltext7getTextEPct) refers to sys.o(i._ZN6StringD1Ev) for String::~String()
    nexscrolltext.o(i._ZN13NexScrolltext7setFontEj) refers to sys.o(i._ZN6StringC1EPKc) for String::String(const char*)
    nexscrolltext.o(i._ZN13NexScrolltext7setFontEj) refers to sys.o(i.utoa) for utoa
    nexscrolltext.o(i._ZN13NexScrolltext7setFontEj) refers to nexobject.o(i._ZN9NexObject10getObjNameEv) for NexObject::getObjName()
    nexscrolltext.o(i._ZN13NexScrolltext7setFontEj) refers to nexbutton.o(i._ZN6StringpLEPKc) for String::operator +=(const char*)
    nexscrolltext.o(i._ZN13NexScrolltext7setFontEj) refers to nexbutton.o(i._ZNK6String5c_strEv) for String::c_str() const
    nexscrolltext.o(i._ZN13NexScrolltext7setFontEj) refers to nexhardware.o(i._Z11sendCommandPKc) for sendCommand(const char*)
    nexscrolltext.o(i._ZN13NexScrolltext7setFontEj) refers to sys.o(i._ZN6StringaSEPKc) for String::operator =(const char*)
    nexscrolltext.o(i._ZN13NexScrolltext7setFontEj) refers to nexhardware.o(i._Z22recvRetCommandFinishedj) for recvRetCommandFinished(unsigned)
    nexscrolltext.o(i._ZN13NexScrolltext7setFontEj) refers to sys.o(i._ZN6StringD1Ev) for String::~String()
    nexscrolltext.o(i._ZN13NexScrolltext7setTextEPKc) refers to sys.o(i._ZN6StringC1EPKc) for String::String(const char*)
    nexscrolltext.o(i._ZN13NexScrolltext7setTextEPKc) refers to nexobject.o(i._ZN9NexObject10getObjNameEv) for NexObject::getObjName()
    nexscrolltext.o(i._ZN13NexScrolltext7setTextEPKc) refers to nexbutton.o(i._ZN6StringpLEPKc) for String::operator +=(const char*)
    nexscrolltext.o(i._ZN13NexScrolltext7setTextEPKc) refers to nexbutton.o(i._ZNK6String5c_strEv) for String::c_str() const
    nexscrolltext.o(i._ZN13NexScrolltext7setTextEPKc) refers to nexhardware.o(i._Z11sendCommandPKc) for sendCommand(const char*)
    nexscrolltext.o(i._ZN13NexScrolltext7setTextEPKc) refers to nexhardware.o(i._Z22recvRetCommandFinishedj) for recvRetCommandFinished(unsigned)
    nexscrolltext.o(i._ZN13NexScrolltext7setTextEPKc) refers to sys.o(i._ZN6StringD1Ev) for String::~String()
    nexscrolltext.o(i._ZN13NexScrolltextC1EhhPKc) refers to nextouch.o(i._ZN8NexTouchC1EhhPKc) for NexTouch::NexTouch(unsigned char, unsigned char, const char*)
    nexscrolltext.o(.ARM.exidx) refers to nexscrolltext.o(i._ZN13NexScrolltextC1EhhPKc) for i._ZN13NexScrolltextC1EhhPKc
    nexscrolltext.o(.ARM.exidx) refers to nexscrolltext.o(i._ZN13NexScrolltext7getTextEPct) for i._ZN13NexScrolltext7getTextEPct
    nexscrolltext.o(.ARM.exidx) refers to nexscrolltext.o(i._ZN13NexScrolltext7setTextEPKc) for i._ZN13NexScrolltext7setTextEPKc
    nexscrolltext.o(.ARM.exidx) refers to nexscrolltext.o(i._ZN13NexScrolltext24Get_background_color_bcoEPj) for i._ZN13NexScrolltext24Get_background_color_bcoEPj
    nexscrolltext.o(.ARM.exidx) refers to nexscrolltext.o(i._ZN13NexScrolltext24Set_background_color_bcoEj) for i._ZN13NexScrolltext24Set_background_color_bcoEj
    nexscrolltext.o(.ARM.exidx) refers to nexscrolltext.o(i._ZN13NexScrolltext18Get_font_color_pcoEPj) for i._ZN13NexScrolltext18Get_font_color_pcoEPj
    nexscrolltext.o(.ARM.exidx) refers to nexscrolltext.o(i._ZN13NexScrolltext18Set_font_color_pcoEj) for i._ZN13NexScrolltext18Set_font_color_pcoEj
    nexscrolltext.o(.ARM.exidx) refers to nexscrolltext.o(i._ZN13NexScrolltext14Get_place_xcenEPj) for i._ZN13NexScrolltext14Get_place_xcenEPj
    nexscrolltext.o(.ARM.exidx) refers to nexscrolltext.o(i._ZN13NexScrolltext14Set_place_xcenEj) for i._ZN13NexScrolltext14Set_place_xcenEj
    nexscrolltext.o(.ARM.exidx) refers to nexscrolltext.o(i._ZN13NexScrolltext14Get_place_ycenEPj) for i._ZN13NexScrolltext14Get_place_ycenEPj
    nexscrolltext.o(.ARM.exidx) refers to nexscrolltext.o(i._ZN13NexScrolltext14Set_place_ycenEj) for i._ZN13NexScrolltext14Set_place_ycenEj
    nexscrolltext.o(.ARM.exidx) refers to nexscrolltext.o(i._ZN13NexScrolltext7getFontEPj) for i._ZN13NexScrolltext7getFontEPj
    nexscrolltext.o(.ARM.exidx) refers to nexscrolltext.o(i._ZN13NexScrolltext7setFontEj) for i._ZN13NexScrolltext7setFontEj
    nexscrolltext.o(.ARM.exidx) refers to nexscrolltext.o(i._ZN13NexScrolltext24Get_background_crop_piccEPj) for i._ZN13NexScrolltext24Get_background_crop_piccEPj
    nexscrolltext.o(.ARM.exidx) refers to nexscrolltext.o(i._ZN13NexScrolltext24Set_background_crop_piccEj) for i._ZN13NexScrolltext24Set_background_crop_piccEj
    nexscrolltext.o(.ARM.exidx) refers to nexscrolltext.o(i._ZN13NexScrolltext24Get_background_image_picEPj) for i._ZN13NexScrolltext24Get_background_image_picEPj
    nexscrolltext.o(.ARM.exidx) refers to nexscrolltext.o(i._ZN13NexScrolltext24Set_background_image_picEj) for i._ZN13NexScrolltext24Set_background_image_picEj
    nexscrolltext.o(.ARM.exidx) refers to nexscrolltext.o(i._ZN13NexScrolltext14Get_scroll_dirEPj) for i._ZN13NexScrolltext14Get_scroll_dirEPj
    nexscrolltext.o(.ARM.exidx) refers to nexscrolltext.o(i._ZN13NexScrolltext14Set_scroll_dirEj) for i._ZN13NexScrolltext14Set_scroll_dirEj
    nexscrolltext.o(.ARM.exidx) refers to nexscrolltext.o(i._ZN13NexScrolltext19Get_scroll_distanceEPj) for i._ZN13NexScrolltext19Get_scroll_distanceEPj
    nexscrolltext.o(.ARM.exidx) refers to nexscrolltext.o(i._ZN13NexScrolltext19Set_scroll_distanceEj) for i._ZN13NexScrolltext19Set_scroll_distanceEj
    nexscrolltext.o(.ARM.exidx) refers to nexscrolltext.o(i._ZN13NexScrolltext13Get_cycle_timEPj) for i._ZN13NexScrolltext13Get_cycle_timEPj
    nexscrolltext.o(.ARM.exidx) refers to nexscrolltext.o(i._ZN13NexScrolltext13Set_cycle_timEj) for i._ZN13NexScrolltext13Set_cycle_timEj
    nexscrolltext.o(.ARM.exidx) refers to nexscrolltext.o(i._ZN13NexScrolltext6enableEv) for i._ZN13NexScrolltext6enableEv
    nexscrolltext.o(.ARM.exidx) refers to nexscrolltext.o(i._ZN13NexScrolltext7disableEv) for i._ZN13NexScrolltext7disableEv
    nexslider.o(i._ZN9NexSlider18Get_font_color_pcoEPj) refers to sys.o(i._ZN6StringC1EPKc) for String::String(const char*)
    nexslider.o(i._ZN9NexSlider18Get_font_color_pcoEPj) refers to nexbutton.o(i._ZN6StringpLEPKc) for String::operator +=(const char*)
    nexslider.o(i._ZN9NexSlider18Get_font_color_pcoEPj) refers to nexobject.o(i._ZN9NexObject10getObjNameEv) for NexObject::getObjName()
    nexslider.o(i._ZN9NexSlider18Get_font_color_pcoEPj) refers to nexbutton.o(i._ZNK6String5c_strEv) for String::c_str() const
    nexslider.o(i._ZN9NexSlider18Get_font_color_pcoEPj) refers to nexhardware.o(i._Z11sendCommandPKc) for sendCommand(const char*)
    nexslider.o(i._ZN9NexSlider18Get_font_color_pcoEPj) refers to nexhardware.o(i._Z13recvRetNumberPjj) for recvRetNumber(unsigned*, unsigned)
    nexslider.o(i._ZN9NexSlider18Get_font_color_pcoEPj) refers to sys.o(i._ZN6StringD1Ev) for String::~String()
    nexslider.o(i._ZN9NexSlider18Set_font_color_pcoEj) refers to sys.o(i._ZN6StringC1EPKc) for String::String(const char*)
    nexslider.o(i._ZN9NexSlider18Set_font_color_pcoEj) refers to sys.o(i.utoa) for utoa
    nexslider.o(i._ZN9NexSlider18Set_font_color_pcoEj) refers to nexobject.o(i._ZN9NexObject10getObjNameEv) for NexObject::getObjName()
    nexslider.o(i._ZN9NexSlider18Set_font_color_pcoEj) refers to nexbutton.o(i._ZN6StringpLEPKc) for String::operator +=(const char*)
    nexslider.o(i._ZN9NexSlider18Set_font_color_pcoEj) refers to nexbutton.o(i._ZNK6String5c_strEv) for String::c_str() const
    nexslider.o(i._ZN9NexSlider18Set_font_color_pcoEj) refers to nexhardware.o(i._Z11sendCommandPKc) for sendCommand(const char*)
    nexslider.o(i._ZN9NexSlider18Set_font_color_pcoEj) refers to sys.o(i._ZN6StringaSEPKc) for String::operator =(const char*)
    nexslider.o(i._ZN9NexSlider18Set_font_color_pcoEj) refers to nexhardware.o(i._Z22recvRetCommandFinishedj) for recvRetCommandFinished(unsigned)
    nexslider.o(i._ZN9NexSlider18Set_font_color_pcoEj) refers to sys.o(i._ZN6StringD1Ev) for String::~String()
    nexslider.o(i._ZN9NexSlider21Get_cursor_height_higEPj) refers to sys.o(i._ZN6StringC1EPKc) for String::String(const char*)
    nexslider.o(i._ZN9NexSlider21Get_cursor_height_higEPj) refers to nexbutton.o(i._ZN6StringpLEPKc) for String::operator +=(const char*)
    nexslider.o(i._ZN9NexSlider21Get_cursor_height_higEPj) refers to nexobject.o(i._ZN9NexObject10getObjNameEv) for NexObject::getObjName()
    nexslider.o(i._ZN9NexSlider21Get_cursor_height_higEPj) refers to nexbutton.o(i._ZNK6String5c_strEv) for String::c_str() const
    nexslider.o(i._ZN9NexSlider21Get_cursor_height_higEPj) refers to nexhardware.o(i._Z11sendCommandPKc) for sendCommand(const char*)
    nexslider.o(i._ZN9NexSlider21Get_cursor_height_higEPj) refers to nexhardware.o(i._Z13recvRetNumberPjj) for recvRetNumber(unsigned*, unsigned)
    nexslider.o(i._ZN9NexSlider21Get_cursor_height_higEPj) refers to sys.o(i._ZN6StringD1Ev) for String::~String()
    nexslider.o(i._ZN9NexSlider21Set_cursor_height_higEj) refers to sys.o(i._ZN6StringC1EPKc) for String::String(const char*)
    nexslider.o(i._ZN9NexSlider21Set_cursor_height_higEj) refers to sys.o(i.utoa) for utoa
    nexslider.o(i._ZN9NexSlider21Set_cursor_height_higEj) refers to nexobject.o(i._ZN9NexObject10getObjNameEv) for NexObject::getObjName()
    nexslider.o(i._ZN9NexSlider21Set_cursor_height_higEj) refers to nexbutton.o(i._ZN6StringpLEPKc) for String::operator +=(const char*)
    nexslider.o(i._ZN9NexSlider21Set_cursor_height_higEj) refers to nexbutton.o(i._ZNK6String5c_strEv) for String::c_str() const
    nexslider.o(i._ZN9NexSlider21Set_cursor_height_higEj) refers to nexhardware.o(i._Z11sendCommandPKc) for sendCommand(const char*)
    nexslider.o(i._ZN9NexSlider21Set_cursor_height_higEj) refers to sys.o(i._ZN6StringaSEPKc) for String::operator =(const char*)
    nexslider.o(i._ZN9NexSlider21Set_cursor_height_higEj) refers to nexhardware.o(i._Z22recvRetCommandFinishedj) for recvRetCommandFinished(unsigned)
    nexslider.o(i._ZN9NexSlider21Set_cursor_height_higEj) refers to sys.o(i._ZN6StringD1Ev) for String::~String()
    nexslider.o(i._ZN9NexSlider24Get_background_color_bcoEPj) refers to sys.o(i._ZN6StringC1EPKc) for String::String(const char*)
    nexslider.o(i._ZN9NexSlider24Get_background_color_bcoEPj) refers to nexbutton.o(i._ZN6StringpLEPKc) for String::operator +=(const char*)
    nexslider.o(i._ZN9NexSlider24Get_background_color_bcoEPj) refers to nexobject.o(i._ZN9NexObject10getObjNameEv) for NexObject::getObjName()
    nexslider.o(i._ZN9NexSlider24Get_background_color_bcoEPj) refers to nexbutton.o(i._ZNK6String5c_strEv) for String::c_str() const
    nexslider.o(i._ZN9NexSlider24Get_background_color_bcoEPj) refers to nexhardware.o(i._Z11sendCommandPKc) for sendCommand(const char*)
    nexslider.o(i._ZN9NexSlider24Get_background_color_bcoEPj) refers to nexhardware.o(i._Z13recvRetNumberPjj) for recvRetNumber(unsigned*, unsigned)
    nexslider.o(i._ZN9NexSlider24Get_background_color_bcoEPj) refers to sys.o(i._ZN6StringD1Ev) for String::~String()
    nexslider.o(i._ZN9NexSlider24Set_background_color_bcoEj) refers to sys.o(i._ZN6StringC1EPKc) for String::String(const char*)
    nexslider.o(i._ZN9NexSlider24Set_background_color_bcoEj) refers to sys.o(i.utoa) for utoa
    nexslider.o(i._ZN9NexSlider24Set_background_color_bcoEj) refers to nexobject.o(i._ZN9NexObject10getObjNameEv) for NexObject::getObjName()
    nexslider.o(i._ZN9NexSlider24Set_background_color_bcoEj) refers to nexbutton.o(i._ZN6StringpLEPKc) for String::operator +=(const char*)
    nexslider.o(i._ZN9NexSlider24Set_background_color_bcoEj) refers to nexbutton.o(i._ZNK6String5c_strEv) for String::c_str() const
    nexslider.o(i._ZN9NexSlider24Set_background_color_bcoEj) refers to nexhardware.o(i._Z11sendCommandPKc) for sendCommand(const char*)
    nexslider.o(i._ZN9NexSlider24Set_background_color_bcoEj) refers to sys.o(i._ZN6StringaSEPKc) for String::operator =(const char*)
    nexslider.o(i._ZN9NexSlider24Set_background_color_bcoEj) refers to nexhardware.o(i._Z22recvRetCommandFinishedj) for recvRetCommandFinished(unsigned)
    nexslider.o(i._ZN9NexSlider24Set_background_color_bcoEj) refers to sys.o(i._ZN6StringD1Ev) for String::~String()
    nexslider.o(i._ZN9NexSlider25Get_pointer_thickness_widEPj) refers to sys.o(i._ZN6StringC1EPKc) for String::String(const char*)
    nexslider.o(i._ZN9NexSlider25Get_pointer_thickness_widEPj) refers to nexbutton.o(i._ZN6StringpLEPKc) for String::operator +=(const char*)
    nexslider.o(i._ZN9NexSlider25Get_pointer_thickness_widEPj) refers to nexobject.o(i._ZN9NexObject10getObjNameEv) for NexObject::getObjName()
    nexslider.o(i._ZN9NexSlider25Get_pointer_thickness_widEPj) refers to nexbutton.o(i._ZNK6String5c_strEv) for String::c_str() const
    nexslider.o(i._ZN9NexSlider25Get_pointer_thickness_widEPj) refers to nexhardware.o(i._Z11sendCommandPKc) for sendCommand(const char*)
    nexslider.o(i._ZN9NexSlider25Get_pointer_thickness_widEPj) refers to nexhardware.o(i._Z13recvRetNumberPjj) for recvRetNumber(unsigned*, unsigned)
    nexslider.o(i._ZN9NexSlider25Get_pointer_thickness_widEPj) refers to sys.o(i._ZN6StringD1Ev) for String::~String()
    nexslider.o(i._ZN9NexSlider25Set_pointer_thickness_widEj) refers to sys.o(i._ZN6StringC1EPKc) for String::String(const char*)
    nexslider.o(i._ZN9NexSlider25Set_pointer_thickness_widEj) refers to sys.o(i.utoa) for utoa
    nexslider.o(i._ZN9NexSlider25Set_pointer_thickness_widEj) refers to nexobject.o(i._ZN9NexObject10getObjNameEv) for NexObject::getObjName()
    nexslider.o(i._ZN9NexSlider25Set_pointer_thickness_widEj) refers to nexbutton.o(i._ZN6StringpLEPKc) for String::operator +=(const char*)
    nexslider.o(i._ZN9NexSlider25Set_pointer_thickness_widEj) refers to nexbutton.o(i._ZNK6String5c_strEv) for String::c_str() const
    nexslider.o(i._ZN9NexSlider25Set_pointer_thickness_widEj) refers to nexhardware.o(i._Z11sendCommandPKc) for sendCommand(const char*)
    nexslider.o(i._ZN9NexSlider25Set_pointer_thickness_widEj) refers to sys.o(i._ZN6StringaSEPKc) for String::operator =(const char*)
    nexslider.o(i._ZN9NexSlider25Set_pointer_thickness_widEj) refers to nexhardware.o(i._Z22recvRetCommandFinishedj) for recvRetCommandFinished(unsigned)
    nexslider.o(i._ZN9NexSlider25Set_pointer_thickness_widEj) refers to sys.o(i._ZN6StringD1Ev) for String::~String()
    nexslider.o(i._ZN9NexSlider8getValueEPj) refers to sys.o(i._ZN6StringC1EPKc) for String::String(const char*)
    nexslider.o(i._ZN9NexSlider8getValueEPj) refers to nexobject.o(i._ZN9NexObject10getObjNameEv) for NexObject::getObjName()
    nexslider.o(i._ZN9NexSlider8getValueEPj) refers to nexbutton.o(i._ZN6StringpLEPKc) for String::operator +=(const char*)
    nexslider.o(i._ZN9NexSlider8getValueEPj) refers to nexbutton.o(i._ZNK6String5c_strEv) for String::c_str() const
    nexslider.o(i._ZN9NexSlider8getValueEPj) refers to nexhardware.o(i._Z11sendCommandPKc) for sendCommand(const char*)
    nexslider.o(i._ZN9NexSlider8getValueEPj) refers to nexhardware.o(i._Z13recvRetNumberPjj) for recvRetNumber(unsigned*, unsigned)
    nexslider.o(i._ZN9NexSlider8getValueEPj) refers to sys.o(i._ZN6StringD1Ev) for String::~String()
    nexslider.o(i._ZN9NexSlider8setValueEj) refers to sys.o(i._ZN6StringC1EPKc) for String::String(const char*)
    nexslider.o(i._ZN9NexSlider8setValueEj) refers to sys.o(i.utoa) for utoa
    nexslider.o(i._ZN9NexSlider8setValueEj) refers to nexobject.o(i._ZN9NexObject10getObjNameEv) for NexObject::getObjName()
    nexslider.o(i._ZN9NexSlider8setValueEj) refers to nexbutton.o(i._ZN6StringpLEPKc) for String::operator +=(const char*)
    nexslider.o(i._ZN9NexSlider8setValueEj) refers to nexbutton.o(i._ZNK6String5c_strEv) for String::c_str() const
    nexslider.o(i._ZN9NexSlider8setValueEj) refers to nexhardware.o(i._Z11sendCommandPKc) for sendCommand(const char*)
    nexslider.o(i._ZN9NexSlider8setValueEj) refers to nexhardware.o(i._Z22recvRetCommandFinishedj) for recvRetCommandFinished(unsigned)
    nexslider.o(i._ZN9NexSlider8setValueEj) refers to sys.o(i._ZN6StringD1Ev) for String::~String()
    nexslider.o(i._ZN9NexSlider9getMaxvalEPj) refers to sys.o(i._ZN6StringC1EPKc) for String::String(const char*)
    nexslider.o(i._ZN9NexSlider9getMaxvalEPj) refers to nexbutton.o(i._ZN6StringpLEPKc) for String::operator +=(const char*)
    nexslider.o(i._ZN9NexSlider9getMaxvalEPj) refers to nexobject.o(i._ZN9NexObject10getObjNameEv) for NexObject::getObjName()
    nexslider.o(i._ZN9NexSlider9getMaxvalEPj) refers to nexbutton.o(i._ZNK6String5c_strEv) for String::c_str() const
    nexslider.o(i._ZN9NexSlider9getMaxvalEPj) refers to nexhardware.o(i._Z11sendCommandPKc) for sendCommand(const char*)
    nexslider.o(i._ZN9NexSlider9getMaxvalEPj) refers to nexhardware.o(i._Z13recvRetNumberPjj) for recvRetNumber(unsigned*, unsigned)
    nexslider.o(i._ZN9NexSlider9getMaxvalEPj) refers to sys.o(i._ZN6StringD1Ev) for String::~String()
    nexslider.o(i._ZN9NexSlider9getMinvalEPj) refers to sys.o(i._ZN6StringC1EPKc) for String::String(const char*)
    nexslider.o(i._ZN9NexSlider9getMinvalEPj) refers to nexbutton.o(i._ZN6StringpLEPKc) for String::operator +=(const char*)
    nexslider.o(i._ZN9NexSlider9getMinvalEPj) refers to nexobject.o(i._ZN9NexObject10getObjNameEv) for NexObject::getObjName()
    nexslider.o(i._ZN9NexSlider9getMinvalEPj) refers to nexbutton.o(i._ZNK6String5c_strEv) for String::c_str() const
    nexslider.o(i._ZN9NexSlider9getMinvalEPj) refers to nexhardware.o(i._Z11sendCommandPKc) for sendCommand(const char*)
    nexslider.o(i._ZN9NexSlider9getMinvalEPj) refers to nexhardware.o(i._Z13recvRetNumberPjj) for recvRetNumber(unsigned*, unsigned)
    nexslider.o(i._ZN9NexSlider9getMinvalEPj) refers to sys.o(i._ZN6StringD1Ev) for String::~String()
    nexslider.o(i._ZN9NexSlider9setMaxvalEj) refers to sys.o(i._ZN6StringC1EPKc) for String::String(const char*)
    nexslider.o(i._ZN9NexSlider9setMaxvalEj) refers to sys.o(i.utoa) for utoa
    nexslider.o(i._ZN9NexSlider9setMaxvalEj) refers to nexobject.o(i._ZN9NexObject10getObjNameEv) for NexObject::getObjName()
    nexslider.o(i._ZN9NexSlider9setMaxvalEj) refers to nexbutton.o(i._ZN6StringpLEPKc) for String::operator +=(const char*)
    nexslider.o(i._ZN9NexSlider9setMaxvalEj) refers to nexbutton.o(i._ZNK6String5c_strEv) for String::c_str() const
    nexslider.o(i._ZN9NexSlider9setMaxvalEj) refers to nexhardware.o(i._Z11sendCommandPKc) for sendCommand(const char*)
    nexslider.o(i._ZN9NexSlider9setMaxvalEj) refers to sys.o(i._ZN6StringaSEPKc) for String::operator =(const char*)
    nexslider.o(i._ZN9NexSlider9setMaxvalEj) refers to nexhardware.o(i._Z22recvRetCommandFinishedj) for recvRetCommandFinished(unsigned)
    nexslider.o(i._ZN9NexSlider9setMaxvalEj) refers to sys.o(i._ZN6StringD1Ev) for String::~String()
    nexslider.o(i._ZN9NexSlider9setMinvalEj) refers to sys.o(i._ZN6StringC1EPKc) for String::String(const char*)
    nexslider.o(i._ZN9NexSlider9setMinvalEj) refers to sys.o(i.utoa) for utoa
    nexslider.o(i._ZN9NexSlider9setMinvalEj) refers to nexobject.o(i._ZN9NexObject10getObjNameEv) for NexObject::getObjName()
    nexslider.o(i._ZN9NexSlider9setMinvalEj) refers to nexbutton.o(i._ZN6StringpLEPKc) for String::operator +=(const char*)
    nexslider.o(i._ZN9NexSlider9setMinvalEj) refers to nexbutton.o(i._ZNK6String5c_strEv) for String::c_str() const
    nexslider.o(i._ZN9NexSlider9setMinvalEj) refers to nexhardware.o(i._Z11sendCommandPKc) for sendCommand(const char*)
    nexslider.o(i._ZN9NexSlider9setMinvalEj) refers to sys.o(i._ZN6StringaSEPKc) for String::operator =(const char*)
    nexslider.o(i._ZN9NexSlider9setMinvalEj) refers to nexhardware.o(i._Z22recvRetCommandFinishedj) for recvRetCommandFinished(unsigned)
    nexslider.o(i._ZN9NexSlider9setMinvalEj) refers to sys.o(i._ZN6StringD1Ev) for String::~String()
    nexslider.o(i._ZN9NexSliderC1EhhPKc) refers to nextouch.o(i._ZN8NexTouchC1EhhPKc) for NexTouch::NexTouch(unsigned char, unsigned char, const char*)
    nexslider.o(.ARM.exidx) refers to nexslider.o(i._ZN9NexSliderC1EhhPKc) for i._ZN9NexSliderC1EhhPKc
    nexslider.o(.ARM.exidx) refers to nexslider.o(i._ZN9NexSlider8getValueEPj) for i._ZN9NexSlider8getValueEPj
    nexslider.o(.ARM.exidx) refers to nexslider.o(i._ZN9NexSlider8setValueEj) for i._ZN9NexSlider8setValueEj
    nexslider.o(.ARM.exidx) refers to nexslider.o(i._ZN9NexSlider24Get_background_color_bcoEPj) for i._ZN9NexSlider24Get_background_color_bcoEPj
    nexslider.o(.ARM.exidx) refers to nexslider.o(i._ZN9NexSlider24Set_background_color_bcoEj) for i._ZN9NexSlider24Set_background_color_bcoEj
    nexslider.o(.ARM.exidx) refers to nexslider.o(i._ZN9NexSlider18Get_font_color_pcoEPj) for i._ZN9NexSlider18Get_font_color_pcoEPj
    nexslider.o(.ARM.exidx) refers to nexslider.o(i._ZN9NexSlider18Set_font_color_pcoEj) for i._ZN9NexSlider18Set_font_color_pcoEj
    nexslider.o(.ARM.exidx) refers to nexslider.o(i._ZN9NexSlider25Get_pointer_thickness_widEPj) for i._ZN9NexSlider25Get_pointer_thickness_widEPj
    nexslider.o(.ARM.exidx) refers to nexslider.o(i._ZN9NexSlider25Set_pointer_thickness_widEj) for i._ZN9NexSlider25Set_pointer_thickness_widEj
    nexslider.o(.ARM.exidx) refers to nexslider.o(i._ZN9NexSlider21Get_cursor_height_higEPj) for i._ZN9NexSlider21Get_cursor_height_higEPj
    nexslider.o(.ARM.exidx) refers to nexslider.o(i._ZN9NexSlider21Set_cursor_height_higEj) for i._ZN9NexSlider21Set_cursor_height_higEj
    nexslider.o(.ARM.exidx) refers to nexslider.o(i._ZN9NexSlider9getMaxvalEPj) for i._ZN9NexSlider9getMaxvalEPj
    nexslider.o(.ARM.exidx) refers to nexslider.o(i._ZN9NexSlider9setMaxvalEj) for i._ZN9NexSlider9setMaxvalEj
    nexslider.o(.ARM.exidx) refers to nexslider.o(i._ZN9NexSlider9getMinvalEPj) for i._ZN9NexSlider9getMinvalEPj
    nexslider.o(.ARM.exidx) refers to nexslider.o(i._ZN9NexSlider9setMinvalEj) for i._ZN9NexSlider9setMinvalEj
    nextext.o(i._ZN7NexText14Get_place_xcenEPj) refers to sys.o(i._ZN6StringC1EPKc) for String::String(const char*)
    nextext.o(i._ZN7NexText14Get_place_xcenEPj) refers to nexbutton.o(i._ZN6StringpLEPKc) for String::operator +=(const char*)
    nextext.o(i._ZN7NexText14Get_place_xcenEPj) refers to nexobject.o(i._ZN9NexObject10getObjNameEv) for NexObject::getObjName()
    nextext.o(i._ZN7NexText14Get_place_xcenEPj) refers to nexbutton.o(i._ZNK6String5c_strEv) for String::c_str() const
    nextext.o(i._ZN7NexText14Get_place_xcenEPj) refers to nexhardware.o(i._Z11sendCommandPKc) for sendCommand(const char*)
    nextext.o(i._ZN7NexText14Get_place_xcenEPj) refers to nexhardware.o(i._Z13recvRetNumberPjj) for recvRetNumber(unsigned*, unsigned)
    nextext.o(i._ZN7NexText14Get_place_xcenEPj) refers to sys.o(i._ZN6StringD1Ev) for String::~String()
    nextext.o(i._ZN7NexText14Get_place_ycenEPj) refers to sys.o(i._ZN6StringC1EPKc) for String::String(const char*)
    nextext.o(i._ZN7NexText14Get_place_ycenEPj) refers to nexbutton.o(i._ZN6StringpLEPKc) for String::operator +=(const char*)
    nextext.o(i._ZN7NexText14Get_place_ycenEPj) refers to nexobject.o(i._ZN9NexObject10getObjNameEv) for NexObject::getObjName()
    nextext.o(i._ZN7NexText14Get_place_ycenEPj) refers to nexbutton.o(i._ZNK6String5c_strEv) for String::c_str() const
    nextext.o(i._ZN7NexText14Get_place_ycenEPj) refers to nexhardware.o(i._Z11sendCommandPKc) for sendCommand(const char*)
    nextext.o(i._ZN7NexText14Get_place_ycenEPj) refers to nexhardware.o(i._Z13recvRetNumberPjj) for recvRetNumber(unsigned*, unsigned)
    nextext.o(i._ZN7NexText14Get_place_ycenEPj) refers to sys.o(i._ZN6StringD1Ev) for String::~String()
    nextext.o(i._ZN7NexText14Set_place_xcenEj) refers to sys.o(i._ZN6StringC1EPKc) for String::String(const char*)
    nextext.o(i._ZN7NexText14Set_place_xcenEj) refers to sys.o(i.utoa) for utoa
    nextext.o(i._ZN7NexText14Set_place_xcenEj) refers to nexobject.o(i._ZN9NexObject10getObjNameEv) for NexObject::getObjName()
    nextext.o(i._ZN7NexText14Set_place_xcenEj) refers to nexbutton.o(i._ZN6StringpLEPKc) for String::operator +=(const char*)
    nextext.o(i._ZN7NexText14Set_place_xcenEj) refers to nexbutton.o(i._ZNK6String5c_strEv) for String::c_str() const
    nextext.o(i._ZN7NexText14Set_place_xcenEj) refers to nexhardware.o(i._Z11sendCommandPKc) for sendCommand(const char*)
    nextext.o(i._ZN7NexText14Set_place_xcenEj) refers to sys.o(i._ZN6StringaSEPKc) for String::operator =(const char*)
    nextext.o(i._ZN7NexText14Set_place_xcenEj) refers to nexhardware.o(i._Z22recvRetCommandFinishedj) for recvRetCommandFinished(unsigned)
    nextext.o(i._ZN7NexText14Set_place_xcenEj) refers to sys.o(i._ZN6StringD1Ev) for String::~String()
    nextext.o(i._ZN7NexText14Set_place_ycenEj) refers to sys.o(i._ZN6StringC1EPKc) for String::String(const char*)
    nextext.o(i._ZN7NexText14Set_place_ycenEj) refers to sys.o(i.utoa) for utoa
    nextext.o(i._ZN7NexText14Set_place_ycenEj) refers to nexobject.o(i._ZN9NexObject10getObjNameEv) for NexObject::getObjName()
    nextext.o(i._ZN7NexText14Set_place_ycenEj) refers to nexbutton.o(i._ZN6StringpLEPKc) for String::operator +=(const char*)
    nextext.o(i._ZN7NexText14Set_place_ycenEj) refers to nexbutton.o(i._ZNK6String5c_strEv) for String::c_str() const
    nextext.o(i._ZN7NexText14Set_place_ycenEj) refers to nexhardware.o(i._Z11sendCommandPKc) for sendCommand(const char*)
    nextext.o(i._ZN7NexText14Set_place_ycenEj) refers to sys.o(i._ZN6StringaSEPKc) for String::operator =(const char*)
    nextext.o(i._ZN7NexText14Set_place_ycenEj) refers to nexhardware.o(i._Z22recvRetCommandFinishedj) for recvRetCommandFinished(unsigned)
    nextext.o(i._ZN7NexText14Set_place_ycenEj) refers to sys.o(i._ZN6StringD1Ev) for String::~String()
    nextext.o(i._ZN7NexText18Get_font_color_pcoEPj) refers to sys.o(i._ZN6StringC1EPKc) for String::String(const char*)
    nextext.o(i._ZN7NexText18Get_font_color_pcoEPj) refers to nexbutton.o(i._ZN6StringpLEPKc) for String::operator +=(const char*)
    nextext.o(i._ZN7NexText18Get_font_color_pcoEPj) refers to nexobject.o(i._ZN9NexObject10getObjNameEv) for NexObject::getObjName()
    nextext.o(i._ZN7NexText18Get_font_color_pcoEPj) refers to nexbutton.o(i._ZNK6String5c_strEv) for String::c_str() const
    nextext.o(i._ZN7NexText18Get_font_color_pcoEPj) refers to nexhardware.o(i._Z11sendCommandPKc) for sendCommand(const char*)
    nextext.o(i._ZN7NexText18Get_font_color_pcoEPj) refers to nexhardware.o(i._Z13recvRetNumberPjj) for recvRetNumber(unsigned*, unsigned)
    nextext.o(i._ZN7NexText18Get_font_color_pcoEPj) refers to sys.o(i._ZN6StringD1Ev) for String::~String()
    nextext.o(i._ZN7NexText18Set_font_color_pcoEj) refers to sys.o(i._ZN6StringC1EPKc) for String::String(const char*)
    nextext.o(i._ZN7NexText18Set_font_color_pcoEj) refers to sys.o(i.utoa) for utoa
    nextext.o(i._ZN7NexText18Set_font_color_pcoEj) refers to nexobject.o(i._ZN9NexObject10getObjNameEv) for NexObject::getObjName()
    nextext.o(i._ZN7NexText18Set_font_color_pcoEj) refers to nexbutton.o(i._ZN6StringpLEPKc) for String::operator +=(const char*)
    nextext.o(i._ZN7NexText18Set_font_color_pcoEj) refers to nexbutton.o(i._ZNK6String5c_strEv) for String::c_str() const
    nextext.o(i._ZN7NexText18Set_font_color_pcoEj) refers to nexhardware.o(i._Z11sendCommandPKc) for sendCommand(const char*)
    nextext.o(i._ZN7NexText18Set_font_color_pcoEj) refers to sys.o(i._ZN6StringaSEPKc) for String::operator =(const char*)
    nextext.o(i._ZN7NexText18Set_font_color_pcoEj) refers to nexhardware.o(i._Z22recvRetCommandFinishedj) for recvRetCommandFinished(unsigned)
    nextext.o(i._ZN7NexText18Set_font_color_pcoEj) refers to sys.o(i._ZN6StringD1Ev) for String::~String()
    nextext.o(i._ZN7NexText24Get_background_color_bcoEPj) refers to sys.o(i._ZN6StringC1EPKc) for String::String(const char*)
    nextext.o(i._ZN7NexText24Get_background_color_bcoEPj) refers to nexbutton.o(i._ZN6StringpLEPKc) for String::operator +=(const char*)
    nextext.o(i._ZN7NexText24Get_background_color_bcoEPj) refers to nexobject.o(i._ZN9NexObject10getObjNameEv) for NexObject::getObjName()
    nextext.o(i._ZN7NexText24Get_background_color_bcoEPj) refers to nexbutton.o(i._ZNK6String5c_strEv) for String::c_str() const
    nextext.o(i._ZN7NexText24Get_background_color_bcoEPj) refers to nexhardware.o(i._Z11sendCommandPKc) for sendCommand(const char*)
    nextext.o(i._ZN7NexText24Get_background_color_bcoEPj) refers to nexhardware.o(i._Z13recvRetNumberPjj) for recvRetNumber(unsigned*, unsigned)
    nextext.o(i._ZN7NexText24Get_background_color_bcoEPj) refers to sys.o(i._ZN6StringD1Ev) for String::~String()
    nextext.o(i._ZN7NexText24Get_background_crop_piccEPj) refers to sys.o(i._ZN6StringC1EPKc) for String::String(const char*)
    nextext.o(i._ZN7NexText24Get_background_crop_piccEPj) refers to nexbutton.o(i._ZN6StringpLEPKc) for String::operator +=(const char*)
    nextext.o(i._ZN7NexText24Get_background_crop_piccEPj) refers to nexobject.o(i._ZN9NexObject10getObjNameEv) for NexObject::getObjName()
    nextext.o(i._ZN7NexText24Get_background_crop_piccEPj) refers to nexbutton.o(i._ZNK6String5c_strEv) for String::c_str() const
    nextext.o(i._ZN7NexText24Get_background_crop_piccEPj) refers to nexhardware.o(i._Z11sendCommandPKc) for sendCommand(const char*)
    nextext.o(i._ZN7NexText24Get_background_crop_piccEPj) refers to nexhardware.o(i._Z13recvRetNumberPjj) for recvRetNumber(unsigned*, unsigned)
    nextext.o(i._ZN7NexText24Get_background_crop_piccEPj) refers to sys.o(i._ZN6StringD1Ev) for String::~String()
    nextext.o(i._ZN7NexText24Get_background_image_picEPj) refers to sys.o(i._ZN6StringC1EPKc) for String::String(const char*)
    nextext.o(i._ZN7NexText24Get_background_image_picEPj) refers to nexobject.o(i._ZN9NexObject10getObjNameEv) for NexObject::getObjName()
    nextext.o(i._ZN7NexText24Get_background_image_picEPj) refers to nexbutton.o(i._ZN6StringpLEPKc) for String::operator +=(const char*)
    nextext.o(i._ZN7NexText24Get_background_image_picEPj) refers to nexbutton.o(i._ZNK6String5c_strEv) for String::c_str() const
    nextext.o(i._ZN7NexText24Get_background_image_picEPj) refers to nexhardware.o(i._Z11sendCommandPKc) for sendCommand(const char*)
    nextext.o(i._ZN7NexText24Get_background_image_picEPj) refers to nexhardware.o(i._Z13recvRetNumberPjj) for recvRetNumber(unsigned*, unsigned)
    nextext.o(i._ZN7NexText24Get_background_image_picEPj) refers to sys.o(i._ZN6StringD1Ev) for String::~String()
    nextext.o(i._ZN7NexText24Set_background_color_bcoEj) refers to sys.o(i._ZN6StringC1EPKc) for String::String(const char*)
    nextext.o(i._ZN7NexText24Set_background_color_bcoEj) refers to sys.o(i.utoa) for utoa
    nextext.o(i._ZN7NexText24Set_background_color_bcoEj) refers to nexobject.o(i._ZN9NexObject10getObjNameEv) for NexObject::getObjName()
    nextext.o(i._ZN7NexText24Set_background_color_bcoEj) refers to nexbutton.o(i._ZN6StringpLEPKc) for String::operator +=(const char*)
    nextext.o(i._ZN7NexText24Set_background_color_bcoEj) refers to nexbutton.o(i._ZNK6String5c_strEv) for String::c_str() const
    nextext.o(i._ZN7NexText24Set_background_color_bcoEj) refers to nexhardware.o(i._Z11sendCommandPKc) for sendCommand(const char*)
    nextext.o(i._ZN7NexText24Set_background_color_bcoEj) refers to sys.o(i._ZN6StringaSEPKc) for String::operator =(const char*)
    nextext.o(i._ZN7NexText24Set_background_color_bcoEj) refers to nexhardware.o(i._Z22recvRetCommandFinishedj) for recvRetCommandFinished(unsigned)
    nextext.o(i._ZN7NexText24Set_background_color_bcoEj) refers to sys.o(i._ZN6StringD1Ev) for String::~String()
    nextext.o(i._ZN7NexText24Set_background_crop_piccEj) refers to sys.o(i._ZN6StringC1EPKc) for String::String(const char*)
    nextext.o(i._ZN7NexText24Set_background_crop_piccEj) refers to sys.o(i.utoa) for utoa
    nextext.o(i._ZN7NexText24Set_background_crop_piccEj) refers to nexobject.o(i._ZN9NexObject10getObjNameEv) for NexObject::getObjName()
    nextext.o(i._ZN7NexText24Set_background_crop_piccEj) refers to nexbutton.o(i._ZN6StringpLEPKc) for String::operator +=(const char*)
    nextext.o(i._ZN7NexText24Set_background_crop_piccEj) refers to nexbutton.o(i._ZNK6String5c_strEv) for String::c_str() const
    nextext.o(i._ZN7NexText24Set_background_crop_piccEj) refers to nexhardware.o(i._Z11sendCommandPKc) for sendCommand(const char*)
    nextext.o(i._ZN7NexText24Set_background_crop_piccEj) refers to sys.o(i._ZN6StringaSEPKc) for String::operator =(const char*)
    nextext.o(i._ZN7NexText24Set_background_crop_piccEj) refers to nexhardware.o(i._Z22recvRetCommandFinishedj) for recvRetCommandFinished(unsigned)
    nextext.o(i._ZN7NexText24Set_background_crop_piccEj) refers to sys.o(i._ZN6StringD1Ev) for String::~String()
    nextext.o(i._ZN7NexText24Set_background_image_picEj) refers to sys.o(i._ZN6StringC1EPKc) for String::String(const char*)
    nextext.o(i._ZN7NexText24Set_background_image_picEj) refers to sys.o(i.utoa) for utoa
    nextext.o(i._ZN7NexText24Set_background_image_picEj) refers to nexobject.o(i._ZN9NexObject10getObjNameEv) for NexObject::getObjName()
    nextext.o(i._ZN7NexText24Set_background_image_picEj) refers to nexbutton.o(i._ZN6StringpLEPKc) for String::operator +=(const char*)
    nextext.o(i._ZN7NexText24Set_background_image_picEj) refers to nexbutton.o(i._ZNK6String5c_strEv) for String::c_str() const
    nextext.o(i._ZN7NexText24Set_background_image_picEj) refers to nexhardware.o(i._Z11sendCommandPKc) for sendCommand(const char*)
    nextext.o(i._ZN7NexText24Set_background_image_picEj) refers to nexhardware.o(i._Z22recvRetCommandFinishedj) for recvRetCommandFinished(unsigned)
    nextext.o(i._ZN7NexText24Set_background_image_picEj) refers to sys.o(i._ZN6StringD1Ev) for String::~String()
    nextext.o(i._ZN7NexText7getFontEPj) refers to sys.o(i._ZN6StringC1EPKc) for String::String(const char*)
    nextext.o(i._ZN7NexText7getFontEPj) refers to nexbutton.o(i._ZN6StringpLEPKc) for String::operator +=(const char*)
    nextext.o(i._ZN7NexText7getFontEPj) refers to nexobject.o(i._ZN9NexObject10getObjNameEv) for NexObject::getObjName()
    nextext.o(i._ZN7NexText7getFontEPj) refers to nexbutton.o(i._ZNK6String5c_strEv) for String::c_str() const
    nextext.o(i._ZN7NexText7getFontEPj) refers to nexhardware.o(i._Z11sendCommandPKc) for sendCommand(const char*)
    nextext.o(i._ZN7NexText7getFontEPj) refers to nexhardware.o(i._Z13recvRetNumberPjj) for recvRetNumber(unsigned*, unsigned)
    nextext.o(i._ZN7NexText7getFontEPj) refers to sys.o(i._ZN6StringD1Ev) for String::~String()
    nextext.o(i._ZN7NexText7getTextEPct) refers to sys.o(i._ZN6StringC1EPKc) for String::String(const char*)
    nextext.o(i._ZN7NexText7getTextEPct) refers to nexbutton.o(i._ZN6StringpLEPKc) for String::operator +=(const char*)
    nextext.o(i._ZN7NexText7getTextEPct) refers to nexobject.o(i._ZN9NexObject10getObjNameEv) for NexObject::getObjName()
    nextext.o(i._ZN7NexText7getTextEPct) refers to nexbutton.o(i._ZNK6String5c_strEv) for String::c_str() const
    nextext.o(i._ZN7NexText7getTextEPct) refers to nexhardware.o(i._Z11sendCommandPKc) for sendCommand(const char*)
    nextext.o(i._ZN7NexText7getTextEPct) refers to nexhardware.o(i._Z13recvRetStringPctj) for recvRetString(char*, unsigned short, unsigned)
    nextext.o(i._ZN7NexText7getTextEPct) refers to sys.o(i._ZN6StringD1Ev) for String::~String()
    nextext.o(i._ZN7NexText7setFontEj) refers to sys.o(i._ZN6StringC1EPKc) for String::String(const char*)
    nextext.o(i._ZN7NexText7setFontEj) refers to sys.o(i.utoa) for utoa
    nextext.o(i._ZN7NexText7setFontEj) refers to nexobject.o(i._ZN9NexObject10getObjNameEv) for NexObject::getObjName()
    nextext.o(i._ZN7NexText7setFontEj) refers to nexbutton.o(i._ZN6StringpLEPKc) for String::operator +=(const char*)
    nextext.o(i._ZN7NexText7setFontEj) refers to nexbutton.o(i._ZNK6String5c_strEv) for String::c_str() const
    nextext.o(i._ZN7NexText7setFontEj) refers to nexhardware.o(i._Z11sendCommandPKc) for sendCommand(const char*)
    nextext.o(i._ZN7NexText7setFontEj) refers to sys.o(i._ZN6StringaSEPKc) for String::operator =(const char*)
    nextext.o(i._ZN7NexText7setFontEj) refers to nexhardware.o(i._Z22recvRetCommandFinishedj) for recvRetCommandFinished(unsigned)
    nextext.o(i._ZN7NexText7setFontEj) refers to sys.o(i._ZN6StringD1Ev) for String::~String()
    nextext.o(i._ZN7NexText7setTextEPKc) refers to sys.o(i._ZN6StringC1EPKc) for String::String(const char*)
    nextext.o(i._ZN7NexText7setTextEPKc) refers to nexobject.o(i._ZN9NexObject10getObjNameEv) for NexObject::getObjName()
    nextext.o(i._ZN7NexText7setTextEPKc) refers to nexbutton.o(i._ZN6StringpLEPKc) for String::operator +=(const char*)
    nextext.o(i._ZN7NexText7setTextEPKc) refers to nexbutton.o(i._ZNK6String5c_strEv) for String::c_str() const
    nextext.o(i._ZN7NexText7setTextEPKc) refers to nexhardware.o(i._Z11sendCommandPKc) for sendCommand(const char*)
    nextext.o(i._ZN7NexText7setTextEPKc) refers to nexhardware.o(i._Z22recvRetCommandFinishedj) for recvRetCommandFinished(unsigned)
    nextext.o(i._ZN7NexText7setTextEPKc) refers to sys.o(i._ZN6StringD1Ev) for String::~String()
    nextext.o(i._ZN7NexTextC1EhhPKc) refers to nextouch.o(i._ZN8NexTouchC1EhhPKc) for NexTouch::NexTouch(unsigned char, unsigned char, const char*)
    nextext.o(.ARM.exidx) refers to nextext.o(i._ZN7NexTextC1EhhPKc) for i._ZN7NexTextC1EhhPKc
    nextext.o(.ARM.exidx) refers to nextext.o(i._ZN7NexText7getTextEPct) for i._ZN7NexText7getTextEPct
    nextext.o(.ARM.exidx) refers to nextext.o(i._ZN7NexText7setTextEPKc) for i._ZN7NexText7setTextEPKc
    nextext.o(.ARM.exidx) refers to nextext.o(i._ZN7NexText24Get_background_color_bcoEPj) for i._ZN7NexText24Get_background_color_bcoEPj
    nextext.o(.ARM.exidx) refers to nextext.o(i._ZN7NexText24Set_background_color_bcoEj) for i._ZN7NexText24Set_background_color_bcoEj
    nextext.o(.ARM.exidx) refers to nextext.o(i._ZN7NexText18Get_font_color_pcoEPj) for i._ZN7NexText18Get_font_color_pcoEPj
    nextext.o(.ARM.exidx) refers to nextext.o(i._ZN7NexText18Set_font_color_pcoEj) for i._ZN7NexText18Set_font_color_pcoEj
    nextext.o(.ARM.exidx) refers to nextext.o(i._ZN7NexText14Get_place_xcenEPj) for i._ZN7NexText14Get_place_xcenEPj
    nextext.o(.ARM.exidx) refers to nextext.o(i._ZN7NexText14Set_place_xcenEj) for i._ZN7NexText14Set_place_xcenEj
    nextext.o(.ARM.exidx) refers to nextext.o(i._ZN7NexText14Get_place_ycenEPj) for i._ZN7NexText14Get_place_ycenEPj
    nextext.o(.ARM.exidx) refers to nextext.o(i._ZN7NexText14Set_place_ycenEj) for i._ZN7NexText14Set_place_ycenEj
    nextext.o(.ARM.exidx) refers to nextext.o(i._ZN7NexText7getFontEPj) for i._ZN7NexText7getFontEPj
    nextext.o(.ARM.exidx) refers to nextext.o(i._ZN7NexText7setFontEj) for i._ZN7NexText7setFontEj
    nextext.o(.ARM.exidx) refers to nextext.o(i._ZN7NexText24Get_background_crop_piccEPj) for i._ZN7NexText24Get_background_crop_piccEPj
    nextext.o(.ARM.exidx) refers to nextext.o(i._ZN7NexText24Set_background_crop_piccEj) for i._ZN7NexText24Set_background_crop_piccEj
    nextext.o(.ARM.exidx) refers to nextext.o(i._ZN7NexText24Get_background_image_picEPj) for i._ZN7NexText24Get_background_image_picEPj
    nextext.o(.ARM.exidx) refers to nextext.o(i._ZN7NexText24Set_background_image_picEj) for i._ZN7NexText24Set_background_image_picEj
    nextimer.o(i._ZN8NexTimer11attachTimerEPFvPvES0_) refers to nextouch.o(i._ZN8NexTouch9attachPopEPFvPvES0_) for NexTouch::attachPop(void(*)(void*), void*)
    nextimer.o(i._ZN8NexTimer11detachTimerEv) refers to nextouch.o(i._ZN8NexTouch9detachPopEv) for NexTouch::detachPop()
    nextimer.o(i._ZN8NexTimer13Get_cycle_timEPj) refers to sys.o(i._ZN6StringC1EPKc) for String::String(const char*)
    nextimer.o(i._ZN8NexTimer13Get_cycle_timEPj) refers to nexobject.o(i._ZN9NexObject10getObjNameEv) for NexObject::getObjName()
    nextimer.o(i._ZN8NexTimer13Get_cycle_timEPj) refers to nexbutton.o(i._ZN6StringpLEPKc) for String::operator +=(const char*)
    nextimer.o(i._ZN8NexTimer13Get_cycle_timEPj) refers to nexbutton.o(i._ZNK6String5c_strEv) for String::c_str() const
    nextimer.o(i._ZN8NexTimer13Get_cycle_timEPj) refers to nexhardware.o(i._Z11sendCommandPKc) for sendCommand(const char*)
    nextimer.o(i._ZN8NexTimer13Get_cycle_timEPj) refers to nexhardware.o(i._Z13recvRetNumberPjj) for recvRetNumber(unsigned*, unsigned)
    nextimer.o(i._ZN8NexTimer13Get_cycle_timEPj) refers to sys.o(i._ZN6StringD1Ev) for String::~String()
    nextimer.o(i._ZN8NexTimer13Set_cycle_timEj) refers to sys.o(i._ZN6StringC1EPKc) for String::String(const char*)
    nextimer.o(i._ZN8NexTimer13Set_cycle_timEj) refers to sys.o(i.utoa) for utoa
    nextimer.o(i._ZN8NexTimer13Set_cycle_timEj) refers to nexobject.o(i._ZN9NexObject10getObjNameEv) for NexObject::getObjName()
    nextimer.o(i._ZN8NexTimer13Set_cycle_timEj) refers to nexbutton.o(i._ZN6StringpLEPKc) for String::operator +=(const char*)
    nextimer.o(i._ZN8NexTimer13Set_cycle_timEj) refers to nexbutton.o(i._ZNK6String5c_strEv) for String::c_str() const
    nextimer.o(i._ZN8NexTimer13Set_cycle_timEj) refers to nexhardware.o(i._Z11sendCommandPKc) for sendCommand(const char*)
    nextimer.o(i._ZN8NexTimer13Set_cycle_timEj) refers to sys.o(i._ZN6StringaSEPKc) for String::operator =(const char*)
    nextimer.o(i._ZN8NexTimer13Set_cycle_timEj) refers to nexhardware.o(i._Z22recvRetCommandFinishedj) for recvRetCommandFinished(unsigned)
    nextimer.o(i._ZN8NexTimer13Set_cycle_timEj) refers to sys.o(i._ZN6StringD1Ev) for String::~String()
    nextimer.o(i._ZN8NexTimer6enableEv) refers to sys.o(i._ZN6StringC1EPKc) for String::String(const char*)
    nextimer.o(i._ZN8NexTimer6enableEv) refers to sys.o(i.utoa) for utoa
    nextimer.o(i._ZN8NexTimer6enableEv) refers to nexobject.o(i._ZN9NexObject10getObjNameEv) for NexObject::getObjName()
    nextimer.o(i._ZN8NexTimer6enableEv) refers to nexbutton.o(i._ZN6StringpLEPKc) for String::operator +=(const char*)
    nextimer.o(i._ZN8NexTimer6enableEv) refers to nexbutton.o(i._ZNK6String5c_strEv) for String::c_str() const
    nextimer.o(i._ZN8NexTimer6enableEv) refers to nexhardware.o(i._Z11sendCommandPKc) for sendCommand(const char*)
    nextimer.o(i._ZN8NexTimer6enableEv) refers to nexhardware.o(i._Z22recvRetCommandFinishedj) for recvRetCommandFinished(unsigned)
    nextimer.o(i._ZN8NexTimer6enableEv) refers to sys.o(i._ZN6StringD1Ev) for String::~String()
    nextimer.o(i._ZN8NexTimer7disableEv) refers to sys.o(i._ZN6StringC1EPKc) for String::String(const char*)
    nextimer.o(i._ZN8NexTimer7disableEv) refers to sys.o(i.utoa) for utoa
    nextimer.o(i._ZN8NexTimer7disableEv) refers to nexobject.o(i._ZN9NexObject10getObjNameEv) for NexObject::getObjName()
    nextimer.o(i._ZN8NexTimer7disableEv) refers to nexbutton.o(i._ZN6StringpLEPKc) for String::operator +=(const char*)
    nextimer.o(i._ZN8NexTimer7disableEv) refers to nexbutton.o(i._ZNK6String5c_strEv) for String::c_str() const
    nextimer.o(i._ZN8NexTimer7disableEv) refers to nexhardware.o(i._Z11sendCommandPKc) for sendCommand(const char*)
    nextimer.o(i._ZN8NexTimer7disableEv) refers to nexhardware.o(i._Z22recvRetCommandFinishedj) for recvRetCommandFinished(unsigned)
    nextimer.o(i._ZN8NexTimer7disableEv) refers to sys.o(i._ZN6StringD1Ev) for String::~String()
    nextimer.o(i._ZN8NexTimer8getCycleEPj) refers to sys.o(i._ZN6StringC1EPKc) for String::String(const char*)
    nextimer.o(i._ZN8NexTimer8getCycleEPj) refers to nexobject.o(i._ZN9NexObject10getObjNameEv) for NexObject::getObjName()
    nextimer.o(i._ZN8NexTimer8getCycleEPj) refers to nexbutton.o(i._ZN6StringpLEPKc) for String::operator +=(const char*)
    nextimer.o(i._ZN8NexTimer8getCycleEPj) refers to nexbutton.o(i._ZNK6String5c_strEv) for String::c_str() const
    nextimer.o(i._ZN8NexTimer8getCycleEPj) refers to nexhardware.o(i._Z11sendCommandPKc) for sendCommand(const char*)
    nextimer.o(i._ZN8NexTimer8getCycleEPj) refers to nexhardware.o(i._Z13recvRetNumberPjj) for recvRetNumber(unsigned*, unsigned)
    nextimer.o(i._ZN8NexTimer8getCycleEPj) refers to sys.o(i._ZN6StringD1Ev) for String::~String()
    nextimer.o(i._ZN8NexTimer8setCycleEj) refers to sys.o(i._ZN6StringC1EPKc) for String::String(const char*)
    nextimer.o(i._ZN8NexTimer8setCycleEj) refers to sys.o(i.utoa) for utoa
    nextimer.o(i._ZN8NexTimer8setCycleEj) refers to nexobject.o(i._ZN9NexObject10getObjNameEv) for NexObject::getObjName()
    nextimer.o(i._ZN8NexTimer8setCycleEj) refers to nexbutton.o(i._ZN6StringpLEPKc) for String::operator +=(const char*)
    nextimer.o(i._ZN8NexTimer8setCycleEj) refers to nexbutton.o(i._ZNK6String5c_strEv) for String::c_str() const
    nextimer.o(i._ZN8NexTimer8setCycleEj) refers to nexhardware.o(i._Z11sendCommandPKc) for sendCommand(const char*)
    nextimer.o(i._ZN8NexTimer8setCycleEj) refers to nexhardware.o(i._Z22recvRetCommandFinishedj) for recvRetCommandFinished(unsigned)
    nextimer.o(i._ZN8NexTimer8setCycleEj) refers to sys.o(i._ZN6StringD1Ev) for String::~String()
    nextimer.o(i._ZN8NexTimerC1EhhPKc) refers to nextouch.o(i._ZN8NexTouchC1EhhPKc) for NexTouch::NexTouch(unsigned char, unsigned char, const char*)
    nextimer.o(.ARM.exidx) refers to nextimer.o(i._ZN8NexTimerC1EhhPKc) for i._ZN8NexTimerC1EhhPKc
    nextimer.o(.ARM.exidx) refers to nextimer.o(i._ZN8NexTimer11attachTimerEPFvPvES0_) for i._ZN8NexTimer11attachTimerEPFvPvES0_
    nextimer.o(.ARM.exidx) refers to nextimer.o(i._ZN8NexTimer11detachTimerEv) for i._ZN8NexTimer11detachTimerEv
    nextimer.o(.ARM.exidx) refers to nextimer.o(i._ZN8NexTimer8getCycleEPj) for i._ZN8NexTimer8getCycleEPj
    nextimer.o(.ARM.exidx) refers to nextimer.o(i._ZN8NexTimer8setCycleEj) for i._ZN8NexTimer8setCycleEj
    nextimer.o(.ARM.exidx) refers to nextimer.o(i._ZN8NexTimer6enableEv) for i._ZN8NexTimer6enableEv
    nextimer.o(.ARM.exidx) refers to nextimer.o(i._ZN8NexTimer7disableEv) for i._ZN8NexTimer7disableEv
    nextimer.o(.ARM.exidx) refers to nextimer.o(i._ZN8NexTimer13Get_cycle_timEPj) for i._ZN8NexTimer13Get_cycle_timEPj
    nextimer.o(.ARM.exidx) refers to nextimer.o(i._ZN8NexTimer13Set_cycle_timEj) for i._ZN8NexTimer13Set_cycle_timEj
    nextouch.o(i._ZN8NexTouch7iterateEPPS_hhi) refers to nexobject.o(i._ZN9NexObject9getObjPidEv) for NexObject::getObjPid()
    nextouch.o(i._ZN8NexTouch7iterateEPPS_hhi) refers to nexobject.o(i._ZN9NexObject9getObjCidEv) for NexObject::getObjCid()
    nextouch.o(i._ZN8NexTouch7iterateEPPS_hhi) refers to nexobject.o(i._ZN9NexObject12printObjInfoEv) for NexObject::printObjInfo()
    nextouch.o(i._ZN8NexTouch7iterateEPPS_hhi) refers to nextouch.o(i._ZN8NexTouch4pushEv) for NexTouch::push()
    nextouch.o(i._ZN8NexTouch7iterateEPPS_hhi) refers to nextouch.o(i._ZN8NexTouch3popEv) for NexTouch::pop()
    nextouch.o(i._ZN8NexTouchC1EhhPKc) refers to nexobject.o(i._ZN9NexObjectC1EhhPKc) for NexObject::NexObject(unsigned char, unsigned char, const char*)
    nextouch.o(.ARM.exidx) refers to nextouch.o(i._ZN8NexTouch3popEv) for i._ZN8NexTouch3popEv
    nextouch.o(.ARM.exidx) refers to nextouch.o(i._ZN8NexTouch4pushEv) for i._ZN8NexTouch4pushEv
    nextouch.o(.ARM.exidx) refers to nextouch.o(i._ZN8NexTouch7iterateEPPS_hhi) for i._ZN8NexTouch7iterateEPPS_hhi
    nextouch.o(.ARM.exidx) refers to nextouch.o(i._ZN8NexTouchC1EhhPKc) for i._ZN8NexTouchC1EhhPKc
    nextouch.o(.ARM.exidx) refers to nextouch.o(i._ZN8NexTouch10attachPushEPFvPvES0_) for i._ZN8NexTouch10attachPushEPFvPvES0_
    nextouch.o(.ARM.exidx) refers to nextouch.o(i._ZN8NexTouch10detachPushEv) for i._ZN8NexTouch10detachPushEv
    nextouch.o(.ARM.exidx) refers to nextouch.o(i._ZN8NexTouch9attachPopEPFvPvES0_) for i._ZN8NexTouch9attachPopEPFvPvES0_
    nextouch.o(.ARM.exidx) refers to nextouch.o(i._ZN8NexTouch9detachPopEv) for i._ZN8NexTouch9detachPopEv
    nexupload.o(i._ZN9NexUpload10_checkFileEv) refers to print.o(i._ZN5Print7printlnEPKc) for Print::println(const char*)
    nexupload.o(i._ZN9NexUpload10_checkFileEv) refers to sd.o(i._ZN7SDClass5beginEh) for SDClass::begin(unsigned char)
    nexupload.o(i._ZN9NexUpload10_checkFileEv) refers to sd.o(i._ZN7SDClass6existsEPc) for SDClass::exists(char*)
    nexupload.o(i._ZN9NexUpload10_checkFileEv) refers to sd.o(i._ZN7SDClass4openEPKch) for SDClass::open(const char*, unsigned char)
    nexupload.o(i._ZN9NexUpload10_checkFileEv) refers to memmovea.o(.text) for __aeabi_memcpy4
    nexupload.o(i._ZN9NexUpload10_checkFileEv) refers to file.o(i._ZN4File4sizeEv) for File::size()
    nexupload.o(i._ZN9NexUpload10_checkFileEv) refers to print.o(i._ZN5Print7printlnEji) for Print::println(unsigned, int)
    nexupload.o(i._ZN9NexUpload10_checkFileEv) refers to sys.o(.bss) for Serial
    nexupload.o(i._ZN9NexUpload10_checkFileEv) refers to sd.o(.bss) for SD
    nexupload.o(i._ZN9NexUpload11sendCommandEPKc) refers to usartclass.o(i._ZN10USARTClass4readEv) for USARTClass::read()
    nexupload.o(i._ZN9NexUpload11sendCommandEPKc) refers to usartclass.o(i._ZN10USARTClass9availableEv) for USARTClass::available()
    nexupload.o(i._ZN9NexUpload11sendCommandEPKc) refers to print.o(i._ZN5Print5printEPKc) for Print::print(const char*)
    nexupload.o(i._ZN9NexUpload11sendCommandEPKc) refers to usartclass.o(i._ZN10USARTClass5writeEh) for USARTClass::write(unsigned char)
    nexupload.o(i._ZN9NexUpload11sendCommandEPKc) refers to sys.o(.bss) for Serial2
    nexupload.o(i._ZN9NexUpload12_getBaudrateEv) refers to memmovea.o(.text) for __aeabi_memcpy4
    nexupload.o(i._ZN9NexUpload12_getBaudrateEv) refers to nexupload.o(i._ZN9NexUpload15_searchBaudrateEj) for NexUpload::_searchBaudrate(unsigned)
    nexupload.o(i._ZN9NexUpload12_getBaudrateEv) refers to print.o(i._ZN5Print7printlnEPKc) for Print::println(const char*)
    nexupload.o(i._ZN9NexUpload12_getBaudrateEv) refers to nexupload.o(.constdata) for .constdata
    nexupload.o(i._ZN9NexUpload12_getBaudrateEv) refers to sys.o(.bss) for Serial
    nexupload.o(i._ZN9NexUpload13recvRetStringER6Stringjb) refers to sys.o(i.millis) for millis
    nexupload.o(i._ZN9NexUpload13recvRetStringER6Stringjb) refers to usartclass.o(i._ZN10USARTClass4readEv) for USARTClass::read()
    nexupload.o(i._ZN9NexUpload13recvRetStringER6Stringjb) refers to sys.o(i._ZN6String6concatEc) for String::concat(char)
    nexupload.o(i._ZN9NexUpload13recvRetStringER6Stringjb) refers to sys.o(i._ZNK6String7indexOfEc) for String::indexOf(char) const
    nexupload.o(i._ZN9NexUpload13recvRetStringER6Stringjb) refers to usartclass.o(i._ZN10USARTClass9availableEv) for USARTClass::available()
    nexupload.o(i._ZN9NexUpload13recvRetStringER6Stringjb) refers to sys.o(.bss) for Serial2
    nexupload.o(i._ZN9NexUpload15_searchBaudrateEj) refers to sys.o(i._ZN6StringC1EPKc) for String::String(const char*)
    nexupload.o(i._ZN9NexUpload15_searchBaudrateEj) refers to usartclass.o(i._ZN10USARTClass5beginEj) for USARTClass::begin(unsigned)
    nexupload.o(i._ZN9NexUpload15_searchBaudrateEj) refers to nexupload.o(i._ZN9NexUpload11sendCommandEPKc) for NexUpload::sendCommand(const char*)
    nexupload.o(i._ZN9NexUpload15_searchBaudrateEj) refers to nexupload.o(i._ZN9NexUpload13recvRetStringER6Stringjb) for NexUpload::recvRetString(String&, unsigned, bool)
    nexupload.o(i._ZN9NexUpload15_searchBaudrateEj) refers to sys.o(i._ZNK6String7indexOfERKS_) for String::indexOf(const String&) const
    nexupload.o(i._ZN9NexUpload15_searchBaudrateEj) refers to sys.o(i._ZN6StringD1Ev) for String::~String()
    nexupload.o(i._ZN9NexUpload15_searchBaudrateEj) refers to sys.o(.bss) for Serial2
    nexupload.o(i._ZN9NexUpload16_downloadTftFileEv) refers to sys.o(i._ZN6StringC1EPKc) for String::String(const char*)
    nexupload.o(i._ZN9NexUpload16_downloadTftFileEv) refers to file.o(i._ZN4File4readEv) for File::read()
    nexupload.o(i._ZN9NexUpload16_downloadTftFileEv) refers to usartclass.o(i._ZN10USARTClass5writeEh) for USARTClass::write(unsigned char)
    nexupload.o(i._ZN9NexUpload16_downloadTftFileEv) refers to nexupload.o(i._ZN9NexUpload13recvRetStringER6Stringjb) for NexUpload::recvRetString(String&, unsigned, bool)
    nexupload.o(i._ZN9NexUpload16_downloadTftFileEv) refers to sys.o(i._ZNK6String7indexOfEc) for String::indexOf(char) const
    nexupload.o(i._ZN9NexUpload16_downloadTftFileEv) refers to sys.o(i._ZN6StringaSEPKc) for String::operator =(const char*)
    nexupload.o(i._ZN9NexUpload16_downloadTftFileEv) refers to sys.o(i._ZN6StringD1Ev) for String::~String()
    nexupload.o(i._ZN9NexUpload16_downloadTftFileEv) refers to sys.o(.bss) for Serial2
    nexupload.o(i._ZN9NexUpload20_setDownloadBaudrateEj) refers to sys.o(i._ZN6StringC1EPKc) for String::String(const char*)
    nexupload.o(i._ZN9NexUpload20_setDownloadBaudrateEj) refers to sys.o(i._ZN6StringC1Ejh) for String::String(unsigned, unsigned char)
    nexupload.o(i._ZN9NexUpload20_setDownloadBaudrateEj) refers to sys.o(i._ZplRK15StringSumHelperRK6String) for operator +(const StringSumHelper&, const String&)
    nexupload.o(i._ZN9NexUpload20_setDownloadBaudrateEj) refers to sys.o(i._ZplRK15StringSumHelperPKc) for operator +(const StringSumHelper&, const char*)
    nexupload.o(i._ZN9NexUpload20_setDownloadBaudrateEj) refers to sys.o(i._ZN6StringaSERKS_) for String::operator =(const String&)
    nexupload.o(i._ZN9NexUpload20_setDownloadBaudrateEj) refers to sys.o(i._ZN6StringD1Ev) for String::~String()
    nexupload.o(i._ZN9NexUpload20_setDownloadBaudrateEj) refers to print.o(i._ZN5Print7printlnERK6String) for Print::println(const String&)
    nexupload.o(i._ZN9NexUpload20_setDownloadBaudrateEj) refers to nexupload.o(i._ZN9NexUpload11sendCommandEPKc) for NexUpload::sendCommand(const char*)
    nexupload.o(i._ZN9NexUpload20_setDownloadBaudrateEj) refers to sys.o(i.delay) for delay
    nexupload.o(i._ZN9NexUpload20_setDownloadBaudrateEj) refers to usartclass.o(i._ZN10USARTClass5beginEj) for USARTClass::begin(unsigned)
    nexupload.o(i._ZN9NexUpload20_setDownloadBaudrateEj) refers to nexupload.o(i._ZN9NexUpload13recvRetStringER6Stringjb) for NexUpload::recvRetString(String&, unsigned, bool)
    nexupload.o(i._ZN9NexUpload20_setDownloadBaudrateEj) refers to sys.o(i._ZNK6String7indexOfEc) for String::indexOf(char) const
    nexupload.o(i._ZN9NexUpload20_setDownloadBaudrateEj) refers to sys.o(.bss) for Serial
    nexupload.o(i._ZN9NexUpload6uploadEv) refers to usartclass.o(i._ZN10USARTClass5beginEj) for USARTClass::begin(unsigned)
    nexupload.o(i._ZN9NexUpload6uploadEv) refers to nexupload.o(i._ZN9NexUpload10_checkFileEv) for NexUpload::_checkFile()
    nexupload.o(i._ZN9NexUpload6uploadEv) refers to print.o(i._ZN5Print7printlnEPKc) for Print::println(const char*)
    nexupload.o(i._ZN9NexUpload6uploadEv) refers to nexupload.o(i._ZN9NexUpload12_getBaudrateEv) for NexUpload::_getBaudrate()
    nexupload.o(i._ZN9NexUpload6uploadEv) refers to nexupload.o(i._ZN9NexUpload20_setDownloadBaudrateEj) for NexUpload::_setDownloadBaudrate(unsigned)
    nexupload.o(i._ZN9NexUpload6uploadEv) refers to nexupload.o(i._ZN9NexUpload16_downloadTftFileEv) for NexUpload::_downloadTftFile()
    nexupload.o(i._ZN9NexUpload6uploadEv) refers to sys.o(.bss) for Serial
    nexupload.o(i._ZN9NexUploadC1E6Stringhj) refers to file.o(i._ZN4FileC1Ev) for File::File()
    nexupload.o(i._ZN9NexUploadC1E6Stringhj) refers to nexupload.o(i._ZN9NexUploadC1EPKchj) for NexUpload::NexUpload(const char*, unsigned char, unsigned)
    nexupload.o(i._ZN9NexUploadC1EPKchj) refers to file.o(i._ZN4FileC1Ev) for File::File()
    nexupload.o(.ARM.exidx) refers to nexupload.o(i._Z7FreeRamv) for i._Z7FreeRamv
    nexupload.o(.ARM.exidx) refers to nexupload.o(i._ZN9NexUploadC1EPKchj) for i._ZN9NexUploadC1EPKchj
    nexupload.o(.ARM.exidx) refers to nexupload.o(i._ZN9NexUploadC1E6Stringhj) for i._ZN9NexUploadC1E6Stringhj
    nexupload.o(.ARM.exidx) refers to nexupload.o(i._ZN9NexUpload13recvRetStringER6Stringjb) for i._ZN9NexUpload13recvRetStringER6Stringjb
    nexupload.o(.ARM.exidx) refers to nexupload.o(i._ZN9NexUpload16_downloadTftFileEv) for i._ZN9NexUpload16_downloadTftFileEv
    nexupload.o(.ARM.exidx) refers to nexupload.o(i._ZN9NexUpload11sendCommandEPKc) for i._ZN9NexUpload11sendCommandEPKc
    nexupload.o(.ARM.exidx) refers to nexupload.o(i._ZN9NexUpload20_setDownloadBaudrateEj) for i._ZN9NexUpload20_setDownloadBaudrateEj
    nexupload.o(.ARM.exidx) refers to nexupload.o(i._ZN9NexUpload15_searchBaudrateEj) for i._ZN9NexUpload15_searchBaudrateEj
    nexupload.o(.ARM.exidx) refers to nexupload.o(i._ZN9NexUpload12_getBaudrateEv) for i._ZN9NexUpload12_getBaudrateEv
    nexupload.o(.ARM.exidx) refers to nexupload.o(i._ZN9NexUpload10_checkFileEv) for i._ZN9NexUpload10_checkFileEv
    nexupload.o(.ARM.exidx) refers to nexupload.o(i._ZN9NexUpload6uploadEv) for i._ZN9NexUpload6uploadEv
    nexvariable.o(i._ZN11NexVariable7getTextEPcj) refers to sys.o(i._ZN6StringC1EPKc) for String::String(const char*)
    nexvariable.o(i._ZN11NexVariable7getTextEPcj) refers to nexbutton.o(i._ZN6StringpLEPKc) for String::operator +=(const char*)
    nexvariable.o(i._ZN11NexVariable7getTextEPcj) refers to nexobject.o(i._ZN9NexObject10getObjNameEv) for NexObject::getObjName()
    nexvariable.o(i._ZN11NexVariable7getTextEPcj) refers to nexbutton.o(i._ZNK6String5c_strEv) for String::c_str() const
    nexvariable.o(i._ZN11NexVariable7getTextEPcj) refers to nexhardware.o(i._Z11sendCommandPKc) for sendCommand(const char*)
    nexvariable.o(i._ZN11NexVariable7getTextEPcj) refers to nexhardware.o(i._Z13recvRetStringPctj) for recvRetString(char*, unsigned short, unsigned)
    nexvariable.o(i._ZN11NexVariable7getTextEPcj) refers to sys.o(i._ZN6StringD1Ev) for String::~String()
    nexvariable.o(i._ZN11NexVariable7setTextEPKc) refers to sys.o(i._ZN6StringC1EPKc) for String::String(const char*)
    nexvariable.o(i._ZN11NexVariable7setTextEPKc) refers to nexobject.o(i._ZN9NexObject10getObjNameEv) for NexObject::getObjName()
    nexvariable.o(i._ZN11NexVariable7setTextEPKc) refers to nexbutton.o(i._ZN6StringpLEPKc) for String::operator +=(const char*)
    nexvariable.o(i._ZN11NexVariable7setTextEPKc) refers to nexbutton.o(i._ZNK6String5c_strEv) for String::c_str() const
    nexvariable.o(i._ZN11NexVariable7setTextEPKc) refers to nexhardware.o(i._Z11sendCommandPKc) for sendCommand(const char*)
    nexvariable.o(i._ZN11NexVariable7setTextEPKc) refers to nexhardware.o(i._Z22recvRetCommandFinishedj) for recvRetCommandFinished(unsigned)
    nexvariable.o(i._ZN11NexVariable7setTextEPKc) refers to sys.o(i._ZN6StringD1Ev) for String::~String()
    nexvariable.o(i._ZN11NexVariable8getValueEPj) refers to sys.o(i._ZN6StringC1EPKc) for String::String(const char*)
    nexvariable.o(i._ZN11NexVariable8getValueEPj) refers to nexobject.o(i._ZN9NexObject10getObjNameEv) for NexObject::getObjName()
    nexvariable.o(i._ZN11NexVariable8getValueEPj) refers to nexbutton.o(i._ZN6StringpLEPKc) for String::operator +=(const char*)
    nexvariable.o(i._ZN11NexVariable8getValueEPj) refers to nexbutton.o(i._ZNK6String5c_strEv) for String::c_str() const
    nexvariable.o(i._ZN11NexVariable8getValueEPj) refers to nexhardware.o(i._Z11sendCommandPKc) for sendCommand(const char*)
    nexvariable.o(i._ZN11NexVariable8getValueEPj) refers to nexhardware.o(i._Z13recvRetNumberPjj) for recvRetNumber(unsigned*, unsigned)
    nexvariable.o(i._ZN11NexVariable8getValueEPj) refers to sys.o(i._ZN6StringD1Ev) for String::~String()
    nexvariable.o(i._ZN11NexVariable8setValueEj) refers to sys.o(i._ZN6StringC1EPKc) for String::String(const char*)
    nexvariable.o(i._ZN11NexVariable8setValueEj) refers to sys.o(i.utoa) for utoa
    nexvariable.o(i._ZN11NexVariable8setValueEj) refers to nexobject.o(i._ZN9NexObject10getObjNameEv) for NexObject::getObjName()
    nexvariable.o(i._ZN11NexVariable8setValueEj) refers to nexbutton.o(i._ZN6StringpLEPKc) for String::operator +=(const char*)
    nexvariable.o(i._ZN11NexVariable8setValueEj) refers to nexbutton.o(i._ZNK6String5c_strEv) for String::c_str() const
    nexvariable.o(i._ZN11NexVariable8setValueEj) refers to nexhardware.o(i._Z11sendCommandPKc) for sendCommand(const char*)
    nexvariable.o(i._ZN11NexVariable8setValueEj) refers to nexhardware.o(i._Z22recvRetCommandFinishedj) for recvRetCommandFinished(unsigned)
    nexvariable.o(i._ZN11NexVariable8setValueEj) refers to sys.o(i._ZN6StringD1Ev) for String::~String()
    nexvariable.o(i._ZN11NexVariableC1EhhPKc) refers to nextouch.o(i._ZN8NexTouchC1EhhPKc) for NexTouch::NexTouch(unsigned char, unsigned char, const char*)
    nexvariable.o(.ARM.exidx) refers to nexvariable.o(i._ZN11NexVariableC1EhhPKc) for i._ZN11NexVariableC1EhhPKc
    nexvariable.o(.ARM.exidx) refers to nexvariable.o(i._ZN11NexVariable7getTextEPcj) for i._ZN11NexVariable7getTextEPcj
    nexvariable.o(.ARM.exidx) refers to nexvariable.o(i._ZN11NexVariable7setTextEPKc) for i._ZN11NexVariable7setTextEPKc
    nexvariable.o(.ARM.exidx) refers to nexvariable.o(i._ZN11NexVariable8getValueEPj) for i._ZN11NexVariable8getValueEPj
    nexvariable.o(.ARM.exidx) refers to nexvariable.o(i._ZN11NexVariable8setValueEj) for i._ZN11NexVariable8setValueEj
    nexwaveform.o(i._ZN11NexWaveform18Get_grid_color_gdcEPj) refers to sys.o(i._ZN6StringC1EPKc) for String::String(const char*)
    nexwaveform.o(i._ZN11NexWaveform18Get_grid_color_gdcEPj) refers to nexbutton.o(i._ZN6StringpLEPKc) for String::operator +=(const char*)
    nexwaveform.o(i._ZN11NexWaveform18Get_grid_color_gdcEPj) refers to nexobject.o(i._ZN9NexObject10getObjNameEv) for NexObject::getObjName()
    nexwaveform.o(i._ZN11NexWaveform18Get_grid_color_gdcEPj) refers to nexbutton.o(i._ZNK6String5c_strEv) for String::c_str() const
    nexwaveform.o(i._ZN11NexWaveform18Get_grid_color_gdcEPj) refers to nexhardware.o(i._Z11sendCommandPKc) for sendCommand(const char*)
    nexwaveform.o(i._ZN11NexWaveform18Get_grid_color_gdcEPj) refers to nexhardware.o(i._Z13recvRetNumberPjj) for recvRetNumber(unsigned*, unsigned)
    nexwaveform.o(i._ZN11NexWaveform18Get_grid_color_gdcEPj) refers to sys.o(i._ZN6StringD1Ev) for String::~String()
    nexwaveform.o(i._ZN11NexWaveform18Get_grid_width_gdwEPj) refers to sys.o(i._ZN6StringC1EPKc) for String::String(const char*)
    nexwaveform.o(i._ZN11NexWaveform18Get_grid_width_gdwEPj) refers to nexbutton.o(i._ZN6StringpLEPKc) for String::operator +=(const char*)
    nexwaveform.o(i._ZN11NexWaveform18Get_grid_width_gdwEPj) refers to nexobject.o(i._ZN9NexObject10getObjNameEv) for NexObject::getObjName()
    nexwaveform.o(i._ZN11NexWaveform18Get_grid_width_gdwEPj) refers to nexbutton.o(i._ZNK6String5c_strEv) for String::c_str() const
    nexwaveform.o(i._ZN11NexWaveform18Get_grid_width_gdwEPj) refers to nexhardware.o(i._Z11sendCommandPKc) for sendCommand(const char*)
    nexwaveform.o(i._ZN11NexWaveform18Get_grid_width_gdwEPj) refers to nexhardware.o(i._Z13recvRetNumberPjj) for recvRetNumber(unsigned*, unsigned)
    nexwaveform.o(i._ZN11NexWaveform18Get_grid_width_gdwEPj) refers to sys.o(i._ZN6StringD1Ev) for String::~String()
    nexwaveform.o(i._ZN11NexWaveform18Set_grid_color_gdcEj) refers to sys.o(i._ZN6StringC1EPKc) for String::String(const char*)
    nexwaveform.o(i._ZN11NexWaveform18Set_grid_color_gdcEj) refers to sys.o(i.utoa) for utoa
    nexwaveform.o(i._ZN11NexWaveform18Set_grid_color_gdcEj) refers to nexobject.o(i._ZN9NexObject10getObjNameEv) for NexObject::getObjName()
    nexwaveform.o(i._ZN11NexWaveform18Set_grid_color_gdcEj) refers to nexbutton.o(i._ZN6StringpLEPKc) for String::operator +=(const char*)
    nexwaveform.o(i._ZN11NexWaveform18Set_grid_color_gdcEj) refers to nexbutton.o(i._ZNK6String5c_strEv) for String::c_str() const
    nexwaveform.o(i._ZN11NexWaveform18Set_grid_color_gdcEj) refers to nexhardware.o(i._Z11sendCommandPKc) for sendCommand(const char*)
    nexwaveform.o(i._ZN11NexWaveform18Set_grid_color_gdcEj) refers to sys.o(i._ZN6StringaSEPKc) for String::operator =(const char*)
    nexwaveform.o(i._ZN11NexWaveform18Set_grid_color_gdcEj) refers to nexhardware.o(i._Z22recvRetCommandFinishedj) for recvRetCommandFinished(unsigned)
    nexwaveform.o(i._ZN11NexWaveform18Set_grid_color_gdcEj) refers to sys.o(i._ZN6StringD1Ev) for String::~String()
    nexwaveform.o(i._ZN11NexWaveform18Set_grid_width_gdwEj) refers to sys.o(i._ZN6StringC1EPKc) for String::String(const char*)
    nexwaveform.o(i._ZN11NexWaveform18Set_grid_width_gdwEj) refers to sys.o(i.utoa) for utoa
    nexwaveform.o(i._ZN11NexWaveform18Set_grid_width_gdwEj) refers to nexobject.o(i._ZN9NexObject10getObjNameEv) for NexObject::getObjName()
    nexwaveform.o(i._ZN11NexWaveform18Set_grid_width_gdwEj) refers to nexbutton.o(i._ZN6StringpLEPKc) for String::operator +=(const char*)
    nexwaveform.o(i._ZN11NexWaveform18Set_grid_width_gdwEj) refers to nexbutton.o(i._ZNK6String5c_strEv) for String::c_str() const
    nexwaveform.o(i._ZN11NexWaveform18Set_grid_width_gdwEj) refers to nexhardware.o(i._Z11sendCommandPKc) for sendCommand(const char*)
    nexwaveform.o(i._ZN11NexWaveform18Set_grid_width_gdwEj) refers to sys.o(i._ZN6StringaSEPKc) for String::operator =(const char*)
    nexwaveform.o(i._ZN11NexWaveform18Set_grid_width_gdwEj) refers to nexhardware.o(i._Z22recvRetCommandFinishedj) for recvRetCommandFinished(unsigned)
    nexwaveform.o(i._ZN11NexWaveform18Set_grid_width_gdwEj) refers to sys.o(i._ZN6StringD1Ev) for String::~String()
    nexwaveform.o(i._ZN11NexWaveform19Get_grid_height_gdhEPj) refers to sys.o(i._ZN6StringC1EPKc) for String::String(const char*)
    nexwaveform.o(i._ZN11NexWaveform19Get_grid_height_gdhEPj) refers to nexbutton.o(i._ZN6StringpLEPKc) for String::operator +=(const char*)
    nexwaveform.o(i._ZN11NexWaveform19Get_grid_height_gdhEPj) refers to nexobject.o(i._ZN9NexObject10getObjNameEv) for NexObject::getObjName()
    nexwaveform.o(i._ZN11NexWaveform19Get_grid_height_gdhEPj) refers to nexbutton.o(i._ZNK6String5c_strEv) for String::c_str() const
    nexwaveform.o(i._ZN11NexWaveform19Get_grid_height_gdhEPj) refers to nexhardware.o(i._Z11sendCommandPKc) for sendCommand(const char*)
    nexwaveform.o(i._ZN11NexWaveform19Get_grid_height_gdhEPj) refers to nexhardware.o(i._Z13recvRetNumberPjj) for recvRetNumber(unsigned*, unsigned)
    nexwaveform.o(i._ZN11NexWaveform19Get_grid_height_gdhEPj) refers to sys.o(i._ZN6StringD1Ev) for String::~String()
    nexwaveform.o(i._ZN11NexWaveform19Set_grid_height_gdhEj) refers to sys.o(i._ZN6StringC1EPKc) for String::String(const char*)
    nexwaveform.o(i._ZN11NexWaveform19Set_grid_height_gdhEj) refers to sys.o(i.utoa) for utoa
    nexwaveform.o(i._ZN11NexWaveform19Set_grid_height_gdhEj) refers to nexobject.o(i._ZN9NexObject10getObjNameEv) for NexObject::getObjName()
    nexwaveform.o(i._ZN11NexWaveform19Set_grid_height_gdhEj) refers to nexbutton.o(i._ZN6StringpLEPKc) for String::operator +=(const char*)
    nexwaveform.o(i._ZN11NexWaveform19Set_grid_height_gdhEj) refers to nexbutton.o(i._ZNK6String5c_strEv) for String::c_str() const
    nexwaveform.o(i._ZN11NexWaveform19Set_grid_height_gdhEj) refers to nexhardware.o(i._Z11sendCommandPKc) for sendCommand(const char*)
    nexwaveform.o(i._ZN11NexWaveform19Set_grid_height_gdhEj) refers to sys.o(i._ZN6StringaSEPKc) for String::operator =(const char*)
    nexwaveform.o(i._ZN11NexWaveform19Set_grid_height_gdhEj) refers to nexhardware.o(i._Z22recvRetCommandFinishedj) for recvRetCommandFinished(unsigned)
    nexwaveform.o(i._ZN11NexWaveform19Set_grid_height_gdhEj) refers to sys.o(i._ZN6StringD1Ev) for String::~String()
    nexwaveform.o(i._ZN11NexWaveform24Get_background_color_bcoEPj) refers to sys.o(i._ZN6StringC1EPKc) for String::String(const char*)
    nexwaveform.o(i._ZN11NexWaveform24Get_background_color_bcoEPj) refers to nexbutton.o(i._ZN6StringpLEPKc) for String::operator +=(const char*)
    nexwaveform.o(i._ZN11NexWaveform24Get_background_color_bcoEPj) refers to nexobject.o(i._ZN9NexObject10getObjNameEv) for NexObject::getObjName()
    nexwaveform.o(i._ZN11NexWaveform24Get_background_color_bcoEPj) refers to nexbutton.o(i._ZNK6String5c_strEv) for String::c_str() const
    nexwaveform.o(i._ZN11NexWaveform24Get_background_color_bcoEPj) refers to nexhardware.o(i._Z11sendCommandPKc) for sendCommand(const char*)
    nexwaveform.o(i._ZN11NexWaveform24Get_background_color_bcoEPj) refers to nexhardware.o(i._Z13recvRetNumberPjj) for recvRetNumber(unsigned*, unsigned)
    nexwaveform.o(i._ZN11NexWaveform24Get_background_color_bcoEPj) refers to sys.o(i._ZN6StringD1Ev) for String::~String()
    nexwaveform.o(i._ZN11NexWaveform24Get_channel_0_color_pco0EPj) refers to sys.o(i._ZN6StringC1EPKc) for String::String(const char*)
    nexwaveform.o(i._ZN11NexWaveform24Get_channel_0_color_pco0EPj) refers to nexbutton.o(i._ZN6StringpLEPKc) for String::operator +=(const char*)
    nexwaveform.o(i._ZN11NexWaveform24Get_channel_0_color_pco0EPj) refers to nexobject.o(i._ZN9NexObject10getObjNameEv) for NexObject::getObjName()
    nexwaveform.o(i._ZN11NexWaveform24Get_channel_0_color_pco0EPj) refers to nexbutton.o(i._ZNK6String5c_strEv) for String::c_str() const
    nexwaveform.o(i._ZN11NexWaveform24Get_channel_0_color_pco0EPj) refers to nexhardware.o(i._Z11sendCommandPKc) for sendCommand(const char*)
    nexwaveform.o(i._ZN11NexWaveform24Get_channel_0_color_pco0EPj) refers to nexhardware.o(i._Z13recvRetNumberPjj) for recvRetNumber(unsigned*, unsigned)
    nexwaveform.o(i._ZN11NexWaveform24Get_channel_0_color_pco0EPj) refers to sys.o(i._ZN6StringD1Ev) for String::~String()
    nexwaveform.o(i._ZN11NexWaveform24Set_background_color_bcoEj) refers to sys.o(i._ZN6StringC1EPKc) for String::String(const char*)
    nexwaveform.o(i._ZN11NexWaveform24Set_background_color_bcoEj) refers to sys.o(i.utoa) for utoa
    nexwaveform.o(i._ZN11NexWaveform24Set_background_color_bcoEj) refers to nexobject.o(i._ZN9NexObject10getObjNameEv) for NexObject::getObjName()
    nexwaveform.o(i._ZN11NexWaveform24Set_background_color_bcoEj) refers to nexbutton.o(i._ZN6StringpLEPKc) for String::operator +=(const char*)
    nexwaveform.o(i._ZN11NexWaveform24Set_background_color_bcoEj) refers to nexbutton.o(i._ZNK6String5c_strEv) for String::c_str() const
    nexwaveform.o(i._ZN11NexWaveform24Set_background_color_bcoEj) refers to nexhardware.o(i._Z11sendCommandPKc) for sendCommand(const char*)
    nexwaveform.o(i._ZN11NexWaveform24Set_background_color_bcoEj) refers to sys.o(i._ZN6StringaSEPKc) for String::operator =(const char*)
    nexwaveform.o(i._ZN11NexWaveform24Set_background_color_bcoEj) refers to nexhardware.o(i._Z22recvRetCommandFinishedj) for recvRetCommandFinished(unsigned)
    nexwaveform.o(i._ZN11NexWaveform24Set_background_color_bcoEj) refers to sys.o(i._ZN6StringD1Ev) for String::~String()
    nexwaveform.o(i._ZN11NexWaveform24Set_channel_0_color_pco0Ej) refers to sys.o(i._ZN6StringC1EPKc) for String::String(const char*)
    nexwaveform.o(i._ZN11NexWaveform24Set_channel_0_color_pco0Ej) refers to sys.o(i.utoa) for utoa
    nexwaveform.o(i._ZN11NexWaveform24Set_channel_0_color_pco0Ej) refers to nexobject.o(i._ZN9NexObject10getObjNameEv) for NexObject::getObjName()
    nexwaveform.o(i._ZN11NexWaveform24Set_channel_0_color_pco0Ej) refers to nexbutton.o(i._ZN6StringpLEPKc) for String::operator +=(const char*)
    nexwaveform.o(i._ZN11NexWaveform24Set_channel_0_color_pco0Ej) refers to nexbutton.o(i._ZNK6String5c_strEv) for String::c_str() const
    nexwaveform.o(i._ZN11NexWaveform24Set_channel_0_color_pco0Ej) refers to nexhardware.o(i._Z11sendCommandPKc) for sendCommand(const char*)
    nexwaveform.o(i._ZN11NexWaveform24Set_channel_0_color_pco0Ej) refers to sys.o(i._ZN6StringaSEPKc) for String::operator =(const char*)
    nexwaveform.o(i._ZN11NexWaveform24Set_channel_0_color_pco0Ej) refers to nexhardware.o(i._Z22recvRetCommandFinishedj) for recvRetCommandFinished(unsigned)
    nexwaveform.o(i._ZN11NexWaveform24Set_channel_0_color_pco0Ej) refers to sys.o(i._ZN6StringD1Ev) for String::~String()
    nexwaveform.o(i._ZN11NexWaveform8addValueEhh) refers to nexobject.o(i._ZN9NexObject9getObjCidEv) for NexObject::getObjCid()
    nexwaveform.o(i._ZN11NexWaveform8addValueEhh) refers to printfa.o(i.__0sprintf) for __2sprintf
    nexwaveform.o(i._ZN11NexWaveform8addValueEhh) refers to nexhardware.o(i._Z11sendCommandPKc) for sendCommand(const char*)
    nexwaveform.o(i._ZN11NexWaveformC1EhhPKc) refers to nexobject.o(i._ZN9NexObjectC1EhhPKc) for NexObject::NexObject(unsigned char, unsigned char, const char*)
    nexwaveform.o(.ARM.exidx) refers to nexwaveform.o(i._ZN11NexWaveformC1EhhPKc) for i._ZN11NexWaveformC1EhhPKc
    nexwaveform.o(.ARM.exidx) refers to nexwaveform.o(i._ZN11NexWaveform8addValueEhh) for i._ZN11NexWaveform8addValueEhh
    nexwaveform.o(.ARM.exidx) refers to nexwaveform.o(i._ZN11NexWaveform24Get_background_color_bcoEPj) for i._ZN11NexWaveform24Get_background_color_bcoEPj
    nexwaveform.o(.ARM.exidx) refers to nexwaveform.o(i._ZN11NexWaveform24Set_background_color_bcoEj) for i._ZN11NexWaveform24Set_background_color_bcoEj
    nexwaveform.o(.ARM.exidx) refers to nexwaveform.o(i._ZN11NexWaveform18Get_grid_color_gdcEPj) for i._ZN11NexWaveform18Get_grid_color_gdcEPj
    nexwaveform.o(.ARM.exidx) refers to nexwaveform.o(i._ZN11NexWaveform18Set_grid_color_gdcEj) for i._ZN11NexWaveform18Set_grid_color_gdcEj
    nexwaveform.o(.ARM.exidx) refers to nexwaveform.o(i._ZN11NexWaveform18Get_grid_width_gdwEPj) for i._ZN11NexWaveform18Get_grid_width_gdwEPj
    nexwaveform.o(.ARM.exidx) refers to nexwaveform.o(i._ZN11NexWaveform18Set_grid_width_gdwEj) for i._ZN11NexWaveform18Set_grid_width_gdwEj
    nexwaveform.o(.ARM.exidx) refers to nexwaveform.o(i._ZN11NexWaveform19Get_grid_height_gdhEPj) for i._ZN11NexWaveform19Get_grid_height_gdhEPj
    nexwaveform.o(.ARM.exidx) refers to nexwaveform.o(i._ZN11NexWaveform19Set_grid_height_gdhEj) for i._ZN11NexWaveform19Set_grid_height_gdhEj
    nexwaveform.o(.ARM.exidx) refers to nexwaveform.o(i._ZN11NexWaveform24Get_channel_0_color_pco0EPj) for i._ZN11NexWaveform24Get_channel_0_color_pco0EPj
    nexwaveform.o(.ARM.exidx) refers to nexwaveform.o(i._ZN11NexWaveform24Set_channel_0_color_pco0Ej) for i._ZN11NexWaveform24Set_channel_0_color_pco0Ej
    stm32f4xx_it.o(i.SysTick_Handler) refers to stm32f4xx_hal.o(i.HAL_IncTick) for HAL_IncTick
    stm32f4xx_it.o(i.SysTick_Handler) refers to stm32f4xx_hal_cortex.o(i.HAL_SYSTICK_IRQHandler) for HAL_SYSTICK_IRQHandler
    stm32f4xx_it.o(.ARM.exidx) refers to stm32f4xx_it.o(i.SysTick_Handler) for i.SysTick_Handler
    stm32f4xx_hal_msp.o(i.HAL_MspInit) refers to stm32f4xx_hal_cortex.o(i.HAL_NVIC_SetPriorityGrouping) for HAL_NVIC_SetPriorityGrouping
    stm32f4xx_hal_msp.o(i.HAL_MspInit) refers to stm32f4xx_hal_cortex.o(i.HAL_NVIC_SetPriority) for HAL_NVIC_SetPriority
    stm32f4xx_hal_msp.o(.ARM.exidx) refers to stm32f4xx_hal_msp.o(i.HAL_MspInit) for i.HAL_MspInit
    main.o(i.SystemClock_Config) refers to stm32f4xx_hal_rcc.o(i.HAL_RCC_OscConfig) for HAL_RCC_OscConfig
    main.o(i.SystemClock_Config) refers to stm32f4xx_hal_rcc.o(i.HAL_RCC_ClockConfig) for HAL_RCC_ClockConfig
    main.o(i.SystemClock_Config) refers to stm32f4xx_hal.o(i.HAL_GetREVID) for HAL_GetREVID
    main.o(i.SystemClock_Config) refers to stm32f4xx_hal_rcc.o(i.HAL_RCC_GetHCLKFreq) for HAL_RCC_GetHCLKFreq
    main.o(i.SystemClock_Config) refers to stm32f4xx_hal_cortex.o(i.HAL_SYSTICK_Config) for HAL_SYSTICK_Config
    main.o(i.SystemClock_Config) refers to stm32f4xx_hal_cortex.o(i.HAL_SYSTICK_CLKSourceConfig) for HAL_SYSTICK_CLKSourceConfig
    main.o(i.SystemClock_Config) refers to stm32f4xx_hal_cortex.o(i.HAL_NVIC_SetPriority) for HAL_NVIC_SetPriority
    main.o(i._Z14b0PushCallbackPv) refers to print.o(i._ZN5Print5printEPKc) for Print::print(const char*)
    main.o(i._Z14b0PushCallbackPv) refers to print.o(i._ZN5Print5printEii) for Print::print(int, int)
    main.o(i._Z14b0PushCallbackPv) refers to usartclass.o(i._ZN10USARTClass5writeEh) for USARTClass::write(unsigned char)
    main.o(i._Z14b0PushCallbackPv) refers to sys.o(.bss) for Serial2
    main.o(i._Z14b1PushCallbackPv) refers to print.o(i._ZN5Print5printEPKc) for Print::print(const char*)
    main.o(i._Z14b1PushCallbackPv) refers to print.o(i._ZN5Print5printEii) for Print::print(int, int)
    main.o(i._Z14b1PushCallbackPv) refers to usartclass.o(i._ZN10USARTClass5writeEh) for USARTClass::write(unsigned char)
    main.o(i._Z14b1PushCallbackPv) refers to sys.o(.bss) for Serial2
    main.o(i._Z14b2PushCallbackPv) refers to print.o(i._ZN5Print5printEPKc) for Print::print(const char*)
    main.o(i._Z14b2PushCallbackPv) refers to print.o(i._ZN5Print5printEii) for Print::print(int, int)
    main.o(i._Z14b2PushCallbackPv) refers to usartclass.o(i._ZN10USARTClass5writeEh) for USARTClass::write(unsigned char)
    main.o(i._Z14b2PushCallbackPv) refers to sys.o(.bss) for Serial2
    main.o(i._Z14b3PushCallbackPv) refers to print.o(i._ZN5Print5printEPKc) for Print::print(const char*)
    main.o(i._Z14b3PushCallbackPv) refers to print.o(i._ZN5Print5printEii) for Print::print(int, int)
    main.o(i._Z14b3PushCallbackPv) refers to usartclass.o(i._ZN10USARTClass5writeEh) for USARTClass::write(unsigned char)
    main.o(i._Z14b3PushCallbackPv) refers to sys.o(.bss) for Serial2
    main.o(i.__sti___6_main_c_b0) refers to nexbutton.o(i._ZN9NexButtonC1EhhPKc) for NexButton::NexButton(unsigned char, unsigned char, const char*)
    main.o(i.__sti___6_main_c_b0) refers to main.o(.bss) for b0
    main.o(i.main) refers to stm32f4xx_hal.o(i.HAL_Init) for HAL_Init
    main.o(i.main) refers to main.o(i.SystemClock_Config) for SystemClock_Config
    main.o(i.main) refers to sys.o(i.pinMode) for pinMode
    main.o(i.main) refers to sys.o(i.digitalWrite) for digitalWrite
    main.o(i.main) refers to sys.o(i.delay) for delay
    main.o(i.main) refers to usartclass.o(i._ZN10USARTClass5beginEj) for USARTClass::begin(unsigned)
    main.o(i.main) refers to nextouch.o(i._ZN8NexTouch10attachPushEPFvPvES0_) for NexTouch::attachPush(void(*)(void*), void*)
    main.o(i.main) refers to sys.o(i.togglePin) for togglePin
    main.o(i.main) refers to nexhardware.o(i._Z7nexLoopPP8NexTouch) for nexLoop(NexTouch**)
    main.o(i.main) refers to sys.o(.bss) for Serial2
    main.o(i.main) refers to main.o(i._Z14b0PushCallbackPv) for b0PushCallback(void*)
    main.o(i.main) refers to main.o(.bss) for b0
    main.o(i.main) refers to main.o(i._Z14b1PushCallbackPv) for b1PushCallback(void*)
    main.o(i.main) refers to main.o(i._Z14b2PushCallbackPv) for b2PushCallback(void*)
    main.o(i.main) refers to main.o(i._Z14b3PushCallbackPv) for b3PushCallback(void*)
    main.o(i.main) refers to main.o(.data) for nex_listen_list
    main.o(.ARM.exidx) refers to main.o(i._Z14b0PushCallbackPv) for i._Z14b0PushCallbackPv
    main.o(.ARM.exidx) refers to main.o(i._Z14b1PushCallbackPv) for i._Z14b1PushCallbackPv
    main.o(.ARM.exidx) refers to main.o(i._Z14b2PushCallbackPv) for i._Z14b2PushCallbackPv
    main.o(.ARM.exidx) refers to main.o(i._Z14b3PushCallbackPv) for i._Z14b3PushCallbackPv
    main.o(.ARM.exidx) refers to main.o(i.SystemClock_Config) for i.SystemClock_Config
    main.o(.ARM.exidx) refers to main.o(i.main) for i.main
    main.o(.ARM.exidx) refers to main.o(i.HAL_SYSTICK_Callback) for i.HAL_SYSTICK_Callback
    main.o(.ARM.exidx) refers to main.o(i.HAL_UART_TxCpltCallback) for i.HAL_UART_TxCpltCallback
    main.o(.ARM.exidx) refers to main.o(i.HAL_UART_RxCpltCallback) for i.HAL_UART_RxCpltCallback
    main.o(.ARM.exidx) refers to main.o(i.Error_Handler) for i.Error_Handler
    main.o(.ARM.exidx) refers to main.o(i.__sti___6_main_c_b0) for i.__sti___6_main_c_b0
    main.o(.data) refers to main.o(.bss) for b0
    main.o(.init_array) refers to main.o(i.__sti___6_main_c_b0) for __sti___6_main_c_b0
    main.o(.init_array) refers to cpp_init.o(.text) for __cpp_initialize__aeabi_
    system_stm32f4xx.o(i.SystemCoreClockUpdate) refers to system_stm32f4xx.o(.data) for SystemCoreClock
    system_stm32f4xx.o(i.SystemCoreClockUpdate) refers to system_stm32f4xx.o(.constdata) for AHBPrescTable
    system_stm32f4xx.o(.ARM.exidx) refers to system_stm32f4xx.o(i.SystemInit) for i.SystemInit
    system_stm32f4xx.o(.ARM.exidx) refers to system_stm32f4xx.o(i.SystemCoreClockUpdate) for i.SystemCoreClockUpdate
    stm32f4xx_hal_gpio.o(i.HAL_GPIO_EXTI_IRQHandler) refers to stm32f4xx_hal_gpio.o(i.HAL_GPIO_EXTI_Callback) for HAL_GPIO_EXTI_Callback
    stm32f4xx_hal_gpio.o(.ARM.exidx) refers to stm32f4xx_hal_gpio.o(i.HAL_GPIO_Init) for i.HAL_GPIO_Init
    stm32f4xx_hal_gpio.o(.ARM.exidx) refers to stm32f4xx_hal_gpio.o(i.HAL_GPIO_DeInit) for i.HAL_GPIO_DeInit
    stm32f4xx_hal_gpio.o(.ARM.exidx) refers to stm32f4xx_hal_gpio.o(i.HAL_GPIO_ReadPin) for i.HAL_GPIO_ReadPin
    stm32f4xx_hal_gpio.o(.ARM.exidx) refers to stm32f4xx_hal_gpio.o(i.HAL_GPIO_WritePin) for i.HAL_GPIO_WritePin
    stm32f4xx_hal_gpio.o(.ARM.exidx) refers to stm32f4xx_hal_gpio.o(i.HAL_GPIO_TogglePin) for i.HAL_GPIO_TogglePin
    stm32f4xx_hal_gpio.o(.ARM.exidx) refers to stm32f4xx_hal_gpio.o(i.HAL_GPIO_LockPin) for i.HAL_GPIO_LockPin
    stm32f4xx_hal_gpio.o(.ARM.exidx) refers to stm32f4xx_hal_gpio.o(i.HAL_GPIO_EXTI_Callback) for i.HAL_GPIO_EXTI_Callback
    stm32f4xx_hal_gpio.o(.ARM.exidx) refers to stm32f4xx_hal_gpio.o(i.HAL_GPIO_EXTI_IRQHandler) for i.HAL_GPIO_EXTI_IRQHandler
    stm32f4xx_hal.o(i.HAL_DeInit) refers to stm32f4xx_hal.o(i.HAL_MspDeInit) for HAL_MspDeInit
    stm32f4xx_hal.o(i.HAL_Delay) refers to stm32f4xx_hal.o(i.HAL_GetTick) for HAL_GetTick
    stm32f4xx_hal.o(i.HAL_GetTick) refers to stm32f4xx_hal.o(.data) for .data
    stm32f4xx_hal.o(i.HAL_IncTick) refers to stm32f4xx_hal.o(.data) for .data
    stm32f4xx_hal.o(i.HAL_Init) refers to stm32f4xx_hal_cortex.o(i.HAL_NVIC_SetPriorityGrouping) for HAL_NVIC_SetPriorityGrouping
    stm32f4xx_hal.o(i.HAL_Init) refers to stm32f4xx_hal.o(i.HAL_InitTick) for HAL_InitTick
    stm32f4xx_hal.o(i.HAL_Init) refers to stm32f4xx_hal_msp.o(i.HAL_MspInit) for HAL_MspInit
    stm32f4xx_hal.o(i.HAL_InitTick) refers to stm32f4xx_hal_rcc.o(i.HAL_RCC_GetHCLKFreq) for HAL_RCC_GetHCLKFreq
    stm32f4xx_hal.o(i.HAL_InitTick) refers to stm32f4xx_hal_cortex.o(i.HAL_SYSTICK_Config) for HAL_SYSTICK_Config
    stm32f4xx_hal.o(i.HAL_InitTick) refers to stm32f4xx_hal_cortex.o(i.HAL_NVIC_SetPriority) for HAL_NVIC_SetPriority
    stm32f4xx_hal.o(.ARM.exidx) refers to stm32f4xx_hal.o(i.HAL_MspInit) for i.HAL_MspInit
    stm32f4xx_hal.o(.ARM.exidx) refers to stm32f4xx_hal.o(i.HAL_InitTick) for i.HAL_InitTick
    stm32f4xx_hal.o(.ARM.exidx) refers to stm32f4xx_hal.o(i.HAL_Init) for i.HAL_Init
    stm32f4xx_hal.o(.ARM.exidx) refers to stm32f4xx_hal.o(i.HAL_MspDeInit) for i.HAL_MspDeInit
    stm32f4xx_hal.o(.ARM.exidx) refers to stm32f4xx_hal.o(i.HAL_DeInit) for i.HAL_DeInit
    stm32f4xx_hal.o(.ARM.exidx) refers to stm32f4xx_hal.o(i.HAL_IncTick) for i.HAL_IncTick
    stm32f4xx_hal.o(.ARM.exidx) refers to stm32f4xx_hal.o(i.HAL_GetTick) for i.HAL_GetTick
    stm32f4xx_hal.o(.ARM.exidx) refers to stm32f4xx_hal.o(i.HAL_Delay) for i.HAL_Delay
    stm32f4xx_hal.o(.ARM.exidx) refers to stm32f4xx_hal.o(i.HAL_SuspendTick) for i.HAL_SuspendTick
    stm32f4xx_hal.o(.ARM.exidx) refers to stm32f4xx_hal.o(i.HAL_ResumeTick) for i.HAL_ResumeTick
    stm32f4xx_hal.o(.ARM.exidx) refers to stm32f4xx_hal.o(i.HAL_GetHalVersion) for i.HAL_GetHalVersion
    stm32f4xx_hal.o(.ARM.exidx) refers to stm32f4xx_hal.o(i.HAL_GetREVID) for i.HAL_GetREVID
    stm32f4xx_hal.o(.ARM.exidx) refers to stm32f4xx_hal.o(i.HAL_GetDEVID) for i.HAL_GetDEVID
    stm32f4xx_hal.o(.ARM.exidx) refers to stm32f4xx_hal.o(i.HAL_DBGMCU_EnableDBGSleepMode) for i.HAL_DBGMCU_EnableDBGSleepMode
    stm32f4xx_hal.o(.ARM.exidx) refers to stm32f4xx_hal.o(i.HAL_DBGMCU_DisableDBGSleepMode) for i.HAL_DBGMCU_DisableDBGSleepMode
    stm32f4xx_hal.o(.ARM.exidx) refers to stm32f4xx_hal.o(i.HAL_DBGMCU_EnableDBGStopMode) for i.HAL_DBGMCU_EnableDBGStopMode
    stm32f4xx_hal.o(.ARM.exidx) refers to stm32f4xx_hal.o(i.HAL_DBGMCU_DisableDBGStopMode) for i.HAL_DBGMCU_DisableDBGStopMode
    stm32f4xx_hal.o(.ARM.exidx) refers to stm32f4xx_hal.o(i.HAL_DBGMCU_EnableDBGStandbyMode) for i.HAL_DBGMCU_EnableDBGStandbyMode
    stm32f4xx_hal.o(.ARM.exidx) refers to stm32f4xx_hal.o(i.HAL_DBGMCU_DisableDBGStandbyMode) for i.HAL_DBGMCU_DisableDBGStandbyMode
    stm32f4xx_hal.o(.ARM.exidx) refers to stm32f4xx_hal.o(i.HAL_EnableCompensationCell) for i.HAL_EnableCompensationCell
    stm32f4xx_hal.o(.ARM.exidx) refers to stm32f4xx_hal.o(i.HAL_DisableCompensationCell) for i.HAL_DisableCompensationCell
    stm32f4xx_hal_cortex.o(i.HAL_NVIC_SetPriority) refers to stm32f4xx_hal_cortex.o(i._Z16NVIC_SetPriority9IRQn_Typej) for NVIC_SetPriority(IRQn_Type, unsigned)
    stm32f4xx_hal_cortex.o(i.HAL_SYSTICK_Config) refers to stm32f4xx_hal_cortex.o(i._Z16NVIC_SetPriority9IRQn_Typej) for NVIC_SetPriority(IRQn_Type, unsigned)
    stm32f4xx_hal_cortex.o(i.HAL_SYSTICK_IRQHandler) refers to main.o(i.HAL_SYSTICK_Callback) for HAL_SYSTICK_Callback
    stm32f4xx_hal_cortex.o(.ARM.exidx) refers to stm32f4xx_hal_cortex.o(i.HAL_NVIC_SetPriorityGrouping) for i.HAL_NVIC_SetPriorityGrouping
    stm32f4xx_hal_cortex.o(.ARM.exidx) refers to stm32f4xx_hal_cortex.o(i.HAL_NVIC_SetPriority) for i.HAL_NVIC_SetPriority
    stm32f4xx_hal_cortex.o(.ARM.exidx) refers to stm32f4xx_hal_cortex.o(i.HAL_NVIC_EnableIRQ) for i.HAL_NVIC_EnableIRQ
    stm32f4xx_hal_cortex.o(.ARM.exidx) refers to stm32f4xx_hal_cortex.o(i.HAL_NVIC_DisableIRQ) for i.HAL_NVIC_DisableIRQ
    stm32f4xx_hal_cortex.o(.ARM.exidx) refers to stm32f4xx_hal_cortex.o(i.HAL_NVIC_SystemReset) for i.HAL_NVIC_SystemReset
    stm32f4xx_hal_cortex.o(.ARM.exidx) refers to stm32f4xx_hal_cortex.o(i.HAL_SYSTICK_Config) for i.HAL_SYSTICK_Config
    stm32f4xx_hal_cortex.o(.ARM.exidx) refers to stm32f4xx_hal_cortex.o(i.HAL_NVIC_GetPriorityGrouping) for i.HAL_NVIC_GetPriorityGrouping
    stm32f4xx_hal_cortex.o(.ARM.exidx) refers to stm32f4xx_hal_cortex.o(i.HAL_NVIC_GetPriority) for i.HAL_NVIC_GetPriority
    stm32f4xx_hal_cortex.o(.ARM.exidx) refers to stm32f4xx_hal_cortex.o(i.HAL_NVIC_SetPendingIRQ) for i.HAL_NVIC_SetPendingIRQ
    stm32f4xx_hal_cortex.o(.ARM.exidx) refers to stm32f4xx_hal_cortex.o(i.HAL_NVIC_GetPendingIRQ) for i.HAL_NVIC_GetPendingIRQ
    stm32f4xx_hal_cortex.o(.ARM.exidx) refers to stm32f4xx_hal_cortex.o(i.HAL_NVIC_ClearPendingIRQ) for i.HAL_NVIC_ClearPendingIRQ
    stm32f4xx_hal_cortex.o(.ARM.exidx) refers to stm32f4xx_hal_cortex.o(i.HAL_NVIC_GetActive) for i.HAL_NVIC_GetActive
    stm32f4xx_hal_cortex.o(.ARM.exidx) refers to stm32f4xx_hal_cortex.o(i.HAL_SYSTICK_CLKSourceConfig) for i.HAL_SYSTICK_CLKSourceConfig
    stm32f4xx_hal_cortex.o(.ARM.exidx) refers to stm32f4xx_hal_cortex.o(i.HAL_SYSTICK_Callback) for i.HAL_SYSTICK_Callback
    stm32f4xx_hal_cortex.o(.ARM.exidx) refers to stm32f4xx_hal_cortex.o(i.HAL_SYSTICK_IRQHandler) for i.HAL_SYSTICK_IRQHandler
    stm32f4xx_hal_cortex.o(.ARM.exidx) refers to stm32f4xx_hal_cortex.o(i._Z16NVIC_SetPriority9IRQn_Typej) for i._Z16NVIC_SetPriority9IRQn_Typej
    sys.o(i.ADC_DMA_GetValue) refers to sys.o(i._Z21ADC_DMA_SearchChannelt) for ADC_DMA_SearchChannel(unsigned short)
    sys.o(i.ADC_DMA_GetValue) refers to sys.o(.bss) for .bss
    sys.o(i.EXTI0_IRQHandler) refers to stm32f4xx_hal_gpio.o(i.HAL_GPIO_EXTI_Callback) for HAL_GPIO_EXTI_Callback
    sys.o(i.EXTI0_IRQHandler) refers to sys.o(.bss) for .bss
    sys.o(i.EXTI15_10_IRQHandler) refers to stm32f4xx_hal_gpio.o(i.HAL_GPIO_EXTI_Callback) for HAL_GPIO_EXTI_Callback
    sys.o(i.EXTI15_10_IRQHandler) refers to sys.o(.bss) for .bss
    sys.o(i.EXTI1_IRQHandler) refers to stm32f4xx_hal_gpio.o(i.HAL_GPIO_EXTI_Callback) for HAL_GPIO_EXTI_Callback
    sys.o(i.EXTI1_IRQHandler) refers to sys.o(.bss) for .bss
    sys.o(i.EXTI2_IRQHandler) refers to stm32f4xx_hal_gpio.o(i.HAL_GPIO_EXTI_Callback) for HAL_GPIO_EXTI_Callback
    sys.o(i.EXTI2_IRQHandler) refers to sys.o(.bss) for .bss
    sys.o(i.EXTI3_IRQHandler) refers to stm32f4xx_hal_gpio.o(i.HAL_GPIO_EXTI_Callback) for HAL_GPIO_EXTI_Callback
    sys.o(i.EXTI3_IRQHandler) refers to sys.o(.bss) for .bss
    sys.o(i.EXTI4_IRQHandler) refers to stm32f4xx_hal_gpio.o(i.HAL_GPIO_EXTI_Callback) for HAL_GPIO_EXTI_Callback
    sys.o(i.EXTI4_IRQHandler) refers to sys.o(.bss) for .bss
    sys.o(i.EXTI9_5_IRQHandler) refers to stm32f4xx_hal_gpio.o(i.HAL_GPIO_EXTI_Callback) for HAL_GPIO_EXTI_Callback
    sys.o(i.EXTI9_5_IRQHandler) refers to sys.o(.bss) for .bss
    sys.o(i.GPIO_Set) refers to pinmap.o(.constdata) for g_APinDescription
    sys.o(i.UART4_IRQHandler) refers to usartclass.o(i._ZN10USARTClass10IrqHandlerEv) for USARTClass::IrqHandler()
    sys.o(i.UART4_IRQHandler) refers to sys.o(.bss) for .bss
    sys.o(i.UART5_IRQHandler) refers to usartclass.o(i._ZN10USARTClass10IrqHandlerEv) for USARTClass::IrqHandler()
    sys.o(i.UART5_IRQHandler) refers to sys.o(.bss) for .bss
    sys.o(i.USART1_IRQHandler) refers to usartclass.o(i._ZN10USARTClass10IrqHandlerEv) for USARTClass::IrqHandler()
    sys.o(i.USART1_IRQHandler) refers to sys.o(.bss) for .bss
    sys.o(i.USART2_IRQHandler) refers to usartclass.o(i._ZN10USARTClass10IrqHandlerEv) for USARTClass::IrqHandler()
    sys.o(i.USART2_IRQHandler) refers to sys.o(.bss) for .bss
    sys.o(i.USART3_IRQHandler) refers to usartclass.o(i._ZN10USARTClass10IrqHandlerEv) for USARTClass::IrqHandler()
    sys.o(i.USART3_IRQHandler) refers to sys.o(.bss) for .bss
    sys.o(i.USART6_IRQHandler) refers to usartclass.o(i._ZN10USARTClass10IrqHandlerEv) for USARTClass::IrqHandler()
    sys.o(i.USART6_IRQHandler) refers to sys.o(.bss) for .bss
    sys.o(i._Z10SPI_1_Initv) refers to sys.o(i.pinMode) for pinMode
    sys.o(i._Z10SPI_1_Initv) refers to stm32f4xx_hal_gpio.o(i.HAL_GPIO_Init) for HAL_GPIO_Init
    sys.o(i._Z10SPI_1_Initv) refers to pinmap.o(.constdata) for g_APinDescription
    sys.o(i._Z10SPI_2_Initv) refers to sys.o(i.pinMode) for pinMode
    sys.o(i._Z10SPI_2_Initv) refers to stm32f4xx_hal_gpio.o(i.HAL_GPIO_Init) for HAL_GPIO_Init
    sys.o(i._Z10SPI_2_Initv) refers to pinmap.o(.constdata) for g_APinDescription
    sys.o(i._Z10SPI_3_Initv) refers to sys.o(i.pinMode) for pinMode
    sys.o(i._Z10SPI_3_Initv) refers to stm32f4xx_hal_gpio.o(i.HAL_GPIO_Init) for HAL_GPIO_Init
    sys.o(i._Z10SPI_3_Initv) refers to pinmap.o(.constdata) for g_APinDescription
    sys.o(i._Z10interruptsv) refers to sys.o(i._Z14NVIC_EnableIRQ9IRQn_Type) for NVIC_EnableIRQ(IRQn_Type)
    sys.o(i._Z12noInterruptsv) refers to sys.o(i._Z15NVIC_DisableIRQ9IRQn_Type) for NVIC_DisableIRQ(IRQn_Type)
    sys.o(i._Z14serialEventRunv) refers to usartclass.o(i._ZN10USARTClass9availableEv) for USARTClass::available()
    sys.o(i._Z14serialEventRunv) refers to sys.o(i._Z12serialEvent1v) for serialEvent1()
    sys.o(i._Z14serialEventRunv) refers to sys.o(i._Z12serialEvent2v) for serialEvent2()
    sys.o(i._Z14serialEventRunv) refers to sys.o(i._Z12serialEvent3v) for serialEvent3()
    sys.o(i._Z14serialEventRunv) refers to sys.o(i._Z12serialEvent4v) for serialEvent4()
    sys.o(i._Z14serialEventRunv) refers to sys.o(i._Z12serialEvent5v) for serialEvent5()
    sys.o(i._Z14serialEventRunv) refers to sys.o(i._Z12serialEvent6v) for serialEvent6()
    sys.o(i._Z14serialEventRunv) refers to sys.o(.bss) for .bss
    sys.o(i._Z15attachInterruptjPFvvEj) refers to sys.o(i.pinMode) for pinMode
    sys.o(i._Z15attachInterruptjPFvvEj) refers to stm32f4xx_hal_cortex.o(i.HAL_NVIC_SetPriority) for HAL_NVIC_SetPriority
    sys.o(i._Z15attachInterruptjPFvvEj) refers to stm32f4xx_hal_cortex.o(i.HAL_NVIC_EnableIRQ) for HAL_NVIC_EnableIRQ
    sys.o(i._Z15attachInterruptjPFvvEj) refers to pinmap.o(.constdata) for g_APinDescription
    sys.o(i._Z15attachInterruptjPFvvEj) refers to sys.o(.data) for .data
    sys.o(i._Z15attachInterruptjPFvvEj) refers to sys.o(.bss) for .bss
    sys.o(i._Z15attachInterruptjPFvvEj) refers to sys.o(.constdata) for .constdata
    sys.o(i._Z15detachInterruptj) refers to pinmap.o(.constdata) for g_APinDescription
    sys.o(i._Z15detachInterruptj) refers to sys.o(.bss) for .bss
    sys.o(i._Z15get_dac_channelh) refers to main.o(i.Error_Handler) for Error_Handler
    sys.o(i._Z16ADC_DMA_Registerh) refers to sys.o(i._Z21ADC_DMA_SearchChannelt) for ADC_DMA_SearchChannel(unsigned short)
    sys.o(i._Z16ADC_DMA_Registerh) refers to sys.o(.data) for .data
    sys.o(i._Z16ADC_DMA_Registerh) refers to sys.o(.bss) for .bss
    sys.o(i._Z16Stm32_Clock_Initjjjj) refers to sys.o(i._Z13Sys_Clock_Setjjjj) for Sys_Clock_Set(unsigned, unsigned, unsigned, unsigned)
    sys.o(i._Z16Stm32_Clock_Initjjjj) refers to sys.o(i._Z22MY_NVIC_SetVectorTablejj) for MY_NVIC_SetVectorTable(unsigned, unsigned)
    sys.o(i._Z19determine_baud_rateP11SPI_TypeDefj) refers to stm32f4xx_hal_rcc.o(i.HAL_RCC_GetPCLK2Freq) for HAL_RCC_GetPCLK2Freq
    sys.o(i._Z19determine_baud_rateP11SPI_TypeDefj) refers to stm32f4xx_hal_rcc.o(i.HAL_RCC_GetPCLK1Freq) for HAL_RCC_GetPCLK1Freq
    sys.o(i._Z19determine_baud_rateP11SPI_TypeDefj) refers to sys.o(.constdata) for .constdata
    sys.o(i._Z19fsmc_lcd_init_gpiosv) refers to sys.o(i.pinModeEX) for pinModeEX
    sys.o(i._Z19fsmc_lcd_init_gpiosv) refers to sys.o(.constdata) for .constdata
    sys.o(i._Z21ADC_DMA_SearchChannelt) refers to sys.o(.bss) for .bss
    sys.o(i._Z21ADC_DMA_SearchChannelt) refers to sys.o(.data) for .data
    sys.o(i._Z7pwmStoph) refers to hardwaretimer.o(i._Z15get_timer_indexP11TIM_TypeDef) for get_timer_index(TIM_TypeDef*)
    sys.o(i._Z7pwmStoph) refers to new.o(i._Znwj) for operator new(unsigned)
    sys.o(i._Z7pwmStoph) refers to hardwaretimer.o(i._ZN13HardwareTimerC1EP11TIM_TypeDef) for HardwareTimer::HardwareTimer(TIM_TypeDef*)
    sys.o(i._Z7pwmStoph) refers to hardwaretimer.o(i._ZN13HardwareTimerD1Ev) for HardwareTimer::~HardwareTimer()
    sys.o(i._Z7pwmStoph) refers to delete.o(i._ZdlPv) for operator delete (void*)
    sys.o(i._Z7pwmStoph) refers to pinmap.o(.constdata) for g_APinDescription
    sys.o(i._Z7pwmStoph) refers to hardwaretimer.o(.bss) for HardwareTimer_Handle
    sys.o(i._Z8dma_initPK11DMA_TypeDefP18DMA_Stream_TypeDef) refers to stm32f4xx_hal_cortex.o(i.HAL_NVIC_SetPriority) for HAL_NVIC_SetPriority
    sys.o(i._Z8dma_initPK11DMA_TypeDefP18DMA_Stream_TypeDef) refers to stm32f4xx_hal_cortex.o(i.HAL_NVIC_EnableIRQ) for HAL_NVIC_EnableIRQ
    sys.o(i._Z8pwmStarthjj20TimerCompareFormat_t) refers to hardwaretimer.o(i._Z15get_timer_indexP11TIM_TypeDef) for get_timer_index(TIM_TypeDef*)
    sys.o(i._Z8pwmStarthjj20TimerCompareFormat_t) refers to new.o(i._Znwj) for operator new(unsigned)
    sys.o(i._Z8pwmStarthjj20TimerCompareFormat_t) refers to hardwaretimer.o(i._ZN13HardwareTimerC1EP11TIM_TypeDef) for HardwareTimer::HardwareTimer(TIM_TypeDef*)
    sys.o(i._Z8pwmStarthjj20TimerCompareFormat_t) refers to hardwaretimer.o(i._ZN13HardwareTimer7getModeEj) for HardwareTimer::getMode(unsigned)
    sys.o(i._Z8pwmStarthjj20TimerCompareFormat_t) refers to hardwaretimer.o(i._ZN13HardwareTimer7setModeEj12TimerModes_tj) for HardwareTimer::setMode(unsigned, TimerModes_t, unsigned)
    sys.o(i._Z8pwmStarthjj20TimerCompareFormat_t) refers to hardwaretimer.o(i._ZN13HardwareTimer11setOverflowEj13TimerFormat_t) for HardwareTimer::setOverflow(unsigned, TimerFormat_t)
    sys.o(i._Z8pwmStarthjj20TimerCompareFormat_t) refers to hardwaretimer.o(i._ZN13HardwareTimer17setCaptureCompareEjj20TimerCompareFormat_t) for HardwareTimer::setCaptureCompare(unsigned, unsigned, TimerCompareFormat_t)
    sys.o(i._Z8pwmStarthjj20TimerCompareFormat_t) refers to hardwaretimer.o(i._ZN13HardwareTimer6resumeEv) for HardwareTimer::resume()
    sys.o(i._Z8pwmStarthjj20TimerCompareFormat_t) refers to pinmap.o(.constdata) for g_APinDescription
    sys.o(i._Z8pwmStarthjj20TimerCompareFormat_t) refers to hardwaretimer.o(.bss) for HardwareTimer_Handle
    sys.o(i._ZN6String10invalidateEv) refers to mallocr.o(i.__free$realloc) for free
    sys.o(i._ZN6String11toLowerCaseEv) refers to tolower.o(.text) for tolower
    sys.o(i._ZN6String11toUpperCaseEv) refers to toupper.o(.text) for toupper
    sys.o(i._ZN6String12changeBufferEj) refers to mallocr.o(i.realloc) for realloc
    sys.o(i._ZN6String4copyEPK19__FlashStringHelperj) refers to sys.o(i._ZN6String7reserveEj) for String::reserve(unsigned)
    sys.o(i._ZN6String4copyEPK19__FlashStringHelperj) refers to strcpy.o(.text) for strcpy
    sys.o(i._ZN6String4copyEPK19__FlashStringHelperj) refers to sys.o(i._ZN6String10invalidateEv) for String::invalidate()
    sys.o(i._ZN6String4copyEPKcj) refers to sys.o(i._ZN6String7reserveEj) for String::reserve(unsigned)
    sys.o(i._ZN6String4copyEPKcj) refers to strcpy.o(.text) for strcpy
    sys.o(i._ZN6String4copyEPKcj) refers to sys.o(i._ZN6String10invalidateEv) for String::invalidate()
    sys.o(i._ZN6String4trimEv) refers to ctype_o.o(.text) for __rt_ctype_table
    sys.o(i._ZN6String4trimEv) refers to memmovea.o(.text) for __aeabi_memcpy
    sys.o(i._ZN6String6concatEPK19__FlashStringHelper) refers to strlen.o(.text) for strlen
    sys.o(i._ZN6String6concatEPK19__FlashStringHelper) refers to sys.o(i._ZN6String7reserveEj) for String::reserve(unsigned)
    sys.o(i._ZN6String6concatEPK19__FlashStringHelper) refers to strcpy.o(.text) for strcpy
    sys.o(i._ZN6String6concatEPKc) refers to strlen.o(.text) for strlen
    sys.o(i._ZN6String6concatEPKc) refers to sys.o(i._ZN6String6concatEPKcj) for String::concat(const char*, unsigned)
    sys.o(i._ZN6String6concatEPKcj) refers to sys.o(i._ZN6String7reserveEj) for String::reserve(unsigned)
    sys.o(i._ZN6String6concatEPKcj) refers to strcpy.o(.text) for strcpy
    sys.o(i._ZN6String6concatERKS_) refers to sys.o(i._ZN6String6concatEPKcj) for String::concat(const char*, unsigned)
    sys.o(i._ZN6String6concatEc) refers to sys.o(i._ZN6String6concatEPKcj) for String::concat(const char*, unsigned)
    sys.o(i._ZN6String6concatEd) refers to sys.o(i.dtostrf) for dtostrf
    sys.o(i._ZN6String6concatEd) refers to strlen.o(.text) for strlen
    sys.o(i._ZN6String6concatEd) refers to sys.o(i._ZN6String6concatEPKcj) for String::concat(const char*, unsigned)
    sys.o(i._ZN6String6concatEf) refers to f2d.o(.text) for __aeabi_f2d
    sys.o(i._ZN6String6concatEf) refers to sys.o(i.dtostrf) for dtostrf
    sys.o(i._ZN6String6concatEf) refers to strlen.o(.text) for strlen
    sys.o(i._ZN6String6concatEf) refers to sys.o(i._ZN6String6concatEPKcj) for String::concat(const char*, unsigned)
    sys.o(i._ZN6String6concatEh) refers to sys.o(i.itoa) for itoa
    sys.o(i._ZN6String6concatEh) refers to strlen.o(.text) for strlen
    sys.o(i._ZN6String6concatEh) refers to sys.o(i._ZN6String6concatEPKcj) for String::concat(const char*, unsigned)
    sys.o(i._ZN6String6concatEi) refers to sys.o(i.itoa) for itoa
    sys.o(i._ZN6String6concatEi) refers to strlen.o(.text) for strlen
    sys.o(i._ZN6String6concatEi) refers to sys.o(i._ZN6String6concatEPKcj) for String::concat(const char*, unsigned)
    sys.o(i._ZN6String6concatEj) refers to sys.o(i.utoa) for utoa
    sys.o(i._ZN6String6concatEj) refers to strlen.o(.text) for strlen
    sys.o(i._ZN6String6concatEj) refers to sys.o(i._ZN6String6concatEPKcj) for String::concat(const char*, unsigned)
    sys.o(i._ZN6String6concatEl) refers to sys.o(i.ltoa) for ltoa
    sys.o(i._ZN6String6concatEl) refers to strlen.o(.text) for strlen
    sys.o(i._ZN6String6concatEl) refers to sys.o(i._ZN6String6concatEPKcj) for String::concat(const char*, unsigned)
    sys.o(i._ZN6String6concatEm) refers to sys.o(i.ultoa) for ultoa
    sys.o(i._ZN6String6concatEm) refers to strlen.o(.text) for strlen
    sys.o(i._ZN6String6concatEm) refers to sys.o(i._ZN6String6concatEPKcj) for String::concat(const char*, unsigned)
    sys.o(i._ZN6String6removeEj) refers to sys.o(i._ZN6String6removeEjj) for String::remove(unsigned, unsigned)
    sys.o(i._ZN6String6removeEjj) refers to strncpy.o(.text) for strncpy
    sys.o(i._ZN6String7replaceERKS_S1_) refers to memmovea.o(.text) for __aeabi_memcpy
    sys.o(i._ZN6String7replaceERKS_S1_) refers to sys.o(i._ZSt6strstrPcPKc) for std::strstr(char*, const char*)
    sys.o(i._ZN6String7replaceERKS_S1_) refers to strcpy.o(.text) for strcpy
    sys.o(i._ZN6String7replaceERKS_S1_) refers to sys.o(i._ZN6String12changeBufferEj) for String::changeBuffer(unsigned)
    sys.o(i._ZN6String7replaceERKS_S1_) refers to sys.o(i._ZNK6String11lastIndexOfERKS_j) for String::lastIndexOf(const String&, unsigned) const
    sys.o(i._ZN6String7reserveEj) refers to sys.o(i._ZN6String12changeBufferEj) for String::changeBuffer(unsigned)
    sys.o(i._ZN6StringC1EPK19__FlashStringHelper) refers to sys.o(i._ZN6String4initEv) for String::init()
    sys.o(i._ZN6StringC1EPK19__FlashStringHelper) refers to sys.o(i._ZN6StringaSEPK19__FlashStringHelper) for String::operator =(const __FlashStringHelper*)
    sys.o(i._ZN6StringC1EPKc) refers to sys.o(i._ZN6String4initEv) for String::init()
    sys.o(i._ZN6StringC1EPKc) refers to strlen.o(.text) for strlen
    sys.o(i._ZN6StringC1EPKc) refers to sys.o(i._ZN6String4copyEPKcj) for String::copy(const char*, unsigned)
    sys.o(i._ZN6StringC1ERKS_) refers to sys.o(i._ZN6String4initEv) for String::init()
    sys.o(i._ZN6StringC1ERKS_) refers to sys.o(i._ZN6StringaSERKS_) for String::operator =(const String&)
    sys.o(i._ZN6StringC1Ec) refers to sys.o(i._ZN6String4initEv) for String::init()
    sys.o(i._ZN6StringC1Ec) refers to sys.o(i._ZN6StringaSEPKc) for String::operator =(const char*)
    sys.o(i._ZN6StringC1Edh) refers to sys.o(i._ZN6String4initEv) for String::init()
    sys.o(i._ZN6StringC1Edh) refers to sys.o(i.dtostrf) for dtostrf
    sys.o(i._ZN6StringC1Edh) refers to sys.o(i._ZN6StringaSEPKc) for String::operator =(const char*)
    sys.o(i._ZN6StringC1Efh) refers to sys.o(i._ZN6String4initEv) for String::init()
    sys.o(i._ZN6StringC1Efh) refers to f2d.o(.text) for __aeabi_f2d
    sys.o(i._ZN6StringC1Efh) refers to sys.o(i.dtostrf) for dtostrf
    sys.o(i._ZN6StringC1Efh) refers to sys.o(i._ZN6StringaSEPKc) for String::operator =(const char*)
    sys.o(i._ZN6StringC1Ehh) refers to sys.o(i._ZN6String4initEv) for String::init()
    sys.o(i._ZN6StringC1Ehh) refers to sys.o(i.utoa) for utoa
    sys.o(i._ZN6StringC1Ehh) refers to sys.o(i._ZN6StringaSEPKc) for String::operator =(const char*)
    sys.o(i._ZN6StringC1Eih) refers to sys.o(i._ZN6String4initEv) for String::init()
    sys.o(i._ZN6StringC1Eih) refers to sys.o(i.itoa) for itoa
    sys.o(i._ZN6StringC1Eih) refers to sys.o(i._ZN6StringaSEPKc) for String::operator =(const char*)
    sys.o(i._ZN6StringC1Ejh) refers to sys.o(i._ZN6String4initEv) for String::init()
    sys.o(i._ZN6StringC1Ejh) refers to sys.o(i.utoa) for utoa
    sys.o(i._ZN6StringC1Ejh) refers to sys.o(i._ZN6StringaSEPKc) for String::operator =(const char*)
    sys.o(i._ZN6StringC1Elh) refers to sys.o(i._ZN6String4initEv) for String::init()
    sys.o(i._ZN6StringC1Elh) refers to sys.o(i.ltoa) for ltoa
    sys.o(i._ZN6StringC1Elh) refers to sys.o(i._ZN6StringaSEPKc) for String::operator =(const char*)
    sys.o(i._ZN6StringC1Emh) refers to sys.o(i._ZN6String4initEv) for String::init()
    sys.o(i._ZN6StringC1Emh) refers to sys.o(i.ultoa) for ultoa
    sys.o(i._ZN6StringC1Emh) refers to sys.o(i._ZN6StringaSEPKc) for String::operator =(const char*)
    sys.o(i._ZN6StringD1Ev) refers to mallocr.o(i.__free$realloc) for free
    sys.o(i._ZN6StringaSEPK19__FlashStringHelper) refers to strlen.o(.text) for strlen
    sys.o(i._ZN6StringaSEPK19__FlashStringHelper) refers to sys.o(i._ZN6String4copyEPK19__FlashStringHelperj) for String::copy(const __FlashStringHelper*, unsigned)
    sys.o(i._ZN6StringaSEPK19__FlashStringHelper) refers to sys.o(i._ZN6String10invalidateEv) for String::invalidate()
    sys.o(i._ZN6StringaSEPKc) refers to strlen.o(.text) for strlen
    sys.o(i._ZN6StringaSEPKc) refers to sys.o(i._ZN6String4copyEPKcj) for String::copy(const char*, unsigned)
    sys.o(i._ZN6StringaSEPKc) refers to sys.o(i._ZN6String10invalidateEv) for String::invalidate()
    sys.o(i._ZN6StringaSERKS_) refers to sys.o(i._ZN6String4copyEPKcj) for String::copy(const char*, unsigned)
    sys.o(i._ZN6StringaSERKS_) refers to sys.o(i._ZN6String10invalidateEv) for String::invalidate()
    sys.o(i._ZN6StringixEj) refers to sys.o(.data) for .data
    sys.o(i._ZN8SPIClass11setBitOrderEt) refers to stm32f4xx_hal_spi.o(i.HAL_SPI_Init) for HAL_SPI_Init
    sys.o(i._ZN8SPIClass11setBitOrderEt) refers to main.o(i.Error_Handler) for Error_Handler
    sys.o(i._ZN8SPIClass11setBitOrderEt) refers to sys.o(.bss) for .bss
    sys.o(i._ZN8SPIClass11setDataModeEh) refers to stm32f4xx_hal_spi.o(i.HAL_SPI_Init) for HAL_SPI_Init
    sys.o(i._ZN8SPIClass11setDataModeEh) refers to main.o(i.Error_Handler) for Error_Handler
    sys.o(i._ZN8SPIClass11setDataModeEh) refers to sys.o(.bss) for .bss
    sys.o(i._ZN8SPIClass11setdataSizeEt) refers to stm32f4xx_hal_spi.o(i.HAL_SPI_Init) for HAL_SPI_Init
    sys.o(i._ZN8SPIClass11setdataSizeEt) refers to main.o(i.Error_Handler) for Error_Handler
    sys.o(i._ZN8SPIClass11setdataSizeEt) refers to sys.o(.bss) for .bss
    sys.o(i._ZN8SPIClass15setClockDividerEh) refers to stm32f4xx_hal_spi.o(i.HAL_SPI_Init) for HAL_SPI_Init
    sys.o(i._ZN8SPIClass15setClockDividerEh) refers to main.o(i.Error_Handler) for Error_Handler
    sys.o(i._ZN8SPIClass15setClockDividerEh) refers to sys.o(.bss) for .bss
    sys.o(i._ZN8SPIClass4initEv) refers to stm32f4xx_hal_spi.o(i.HAL_SPI_Init) for HAL_SPI_Init
    sys.o(i._ZN8SPIClass4initEv) refers to main.o(i.Error_Handler) for Error_Handler
    sys.o(i._ZN8SPIClass4initEv) refers to sys.o(.bss) for .bss
    sys.o(i._ZN8SPIClass5beginEv) refers to sys.o(i._ZN8SPIClass4initEv) for SPIClass::init()
    sys.o(i._ZN8SPIClass5beginEv) refers to sys.o(i._ZN8SPIClass11setdataSizeEt) for SPIClass::setdataSize(unsigned short)
    sys.o(i._ZN8SPIClass5beginEv) refers to sys.o(i._ZN8SPIClass15setClockDividerEh) for SPIClass::setClockDivider(unsigned char)
    sys.o(i._ZN8SPIClass5beginEv) refers to sys.o(i._ZN8SPIClass11setDataModeEh) for SPIClass::setDataMode(unsigned char)
    sys.o(i._ZN8SPIClass5beginEv) refers to sys.o(i._ZN8SPIClass11setBitOrderEt) for SPIClass::setBitOrder(unsigned short)
    sys.o(i._ZN8SPIClass6send16Et) refers to sys.o(i._ZN8SPIClass8transferEh) for SPIClass::transfer(unsigned char)
    sys.o(i._ZN8SPIClass8DMA_InitEPK11DMA_TypeDefP18DMA_Stream_TypeDef) refers to sys.o(i._Z8dma_initPK11DMA_TypeDefP18DMA_Stream_TypeDef) for dma_init(const DMA_TypeDef*, DMA_Stream_TypeDef*)
    sys.o(i._ZN8SPIClass8setClockEj) refers to sys.o(i._Z19determine_baud_rateP11SPI_TypeDefj) for determine_baud_rate(SPI_TypeDef*, unsigned)
    sys.o(i._ZN8SPIClass8setClockEj) refers to stm32f4xx_hal_spi.o(i.HAL_SPI_Init) for HAL_SPI_Init
    sys.o(i._ZN8SPIClass8setClockEj) refers to main.o(i.Error_Handler) for Error_Handler
    sys.o(i._ZN8SPIClass8setClockEj) refers to sys.o(.bss) for .bss
    sys.o(i._ZNK6String10startsWithERKS_) refers to sys.o(i._ZNK6String10startsWithERKS_j) for String::startsWith(const String&, unsigned) const
    sys.o(i._ZNK6String10startsWithERKS_j) refers to strncmp.o(.text) for strncmp
    sys.o(i._ZNK6String11lastIndexOfERKS_) refers to sys.o(i._ZNK6String11lastIndexOfERKS_j) for String::lastIndexOf(const String&, unsigned) const
    sys.o(i._ZNK6String11lastIndexOfERKS_j) refers to sys.o(i._ZSt6strstrPcPKc) for std::strstr(char*, const char*)
    sys.o(i._ZNK6String11lastIndexOfEc) refers to sys.o(i._ZNK6String11lastIndexOfEcj) for String::lastIndexOf(char, unsigned) const
    sys.o(i._ZNK6String11lastIndexOfEcj) refers to strrchr.o(.text) for strrchr
    sys.o(i._ZNK6String16equalsIgnoreCaseERKS_) refers to tolower.o(.text) for tolower
    sys.o(i._ZNK6String5toIntEv) refers to atol.o(.text) for atol
    sys.o(i._ZNK6String6charAtEj) refers to sys.o(i._ZNK6StringixEj) for String::operator [](unsigned) const
    sys.o(i._ZNK6String6equalsEPKc) refers to strcmp.o(.text) for strcmp
    sys.o(i._ZNK6String6equalsERKS_) refers to sys.o(i._ZNK6String9compareToERKS_) for String::compareTo(const String&) const
    sys.o(i._ZNK6String7indexOfERKS_) refers to sys.o(i._ZNK6String7indexOfERKS_j) for String::indexOf(const String&, unsigned) const
    sys.o(i._ZNK6String7indexOfERKS_j) refers to sys.o(i._ZSt6strstrPcPKc) for std::strstr(char*, const char*)
    sys.o(i._ZNK6String7indexOfEc) refers to sys.o(i._ZNK6String7indexOfEcj) for String::indexOf(char, unsigned) const
    sys.o(i._ZNK6String7indexOfEcj) refers to strchr.o(.text) for strchr
    sys.o(i._ZNK6String7toFloatEv) refers to atof.o(i.__hardfp_atof) for __hardfp_atof
    sys.o(i._ZNK6String7toFloatEv) refers to d2f.o(.text) for __aeabi_d2f
    sys.o(i._ZNK6String8endsWithERKS_) refers to strcmp.o(.text) for strcmp
    sys.o(i._ZNK6String8getBytesEPhjj) refers to strncpy.o(.text) for strncpy
    sys.o(i._ZNK6String9compareToERKS_) refers to strcmp.o(.text) for strcmp
    sys.o(i._ZNK6String9substringEjj) refers to sys.o(i._ZN6StringC1EPKc) for String::String(const char*)
    sys.o(i._ZNK6String9substringEjj) refers to sys.o(i._ZN6StringaSEPKc) for String::operator =(const char*)
    sys.o(i._ZNK6StringgeERKS_) refers to sys.o(i._ZNK6String9compareToERKS_) for String::compareTo(const String&) const
    sys.o(i._ZNK6StringgtERKS_) refers to sys.o(i._ZNK6String9compareToERKS_) for String::compareTo(const String&) const
    sys.o(i._ZNK6StringleERKS_) refers to sys.o(i._ZNK6String9compareToERKS_) for String::compareTo(const String&) const
    sys.o(i._ZNK6StringltERKS_) refers to sys.o(i._ZNK6String9compareToERKS_) for String::compareTo(const String&) const
    sys.o(i._ZplRK15StringSumHelperPK19__FlashStringHelper) refers to sys.o(i._ZN6String6concatEPK19__FlashStringHelper) for String::concat(const __FlashStringHelper*)
    sys.o(i._ZplRK15StringSumHelperPK19__FlashStringHelper) refers to sys.o(i._ZN6String10invalidateEv) for String::invalidate()
    sys.o(i._ZplRK15StringSumHelperPKc) refers to strlen.o(.text) for strlen
    sys.o(i._ZplRK15StringSumHelperPKc) refers to sys.o(i._ZN6String6concatEPKcj) for String::concat(const char*, unsigned)
    sys.o(i._ZplRK15StringSumHelperPKc) refers to sys.o(i._ZN6String10invalidateEv) for String::invalidate()
    sys.o(i._ZplRK15StringSumHelperRK6String) refers to sys.o(i._ZN6String6concatEPKcj) for String::concat(const char*, unsigned)
    sys.o(i._ZplRK15StringSumHelperRK6String) refers to sys.o(i._ZN6String10invalidateEv) for String::invalidate()
    sys.o(i._ZplRK15StringSumHelperc) refers to sys.o(i._ZN6String6concatEc) for String::concat(char)
    sys.o(i._ZplRK15StringSumHelperc) refers to sys.o(i._ZN6String10invalidateEv) for String::invalidate()
    sys.o(i._ZplRK15StringSumHelperd) refers to sys.o(i._ZN6String6concatEd) for String::concat(double)
    sys.o(i._ZplRK15StringSumHelperd) refers to sys.o(i._ZN6String10invalidateEv) for String::invalidate()
    sys.o(i._ZplRK15StringSumHelperf) refers to sys.o(i._ZN6String6concatEf) for String::concat(float)
    sys.o(i._ZplRK15StringSumHelperf) refers to sys.o(i._ZN6String10invalidateEv) for String::invalidate()
    sys.o(i._ZplRK15StringSumHelperh) refers to sys.o(i._ZN6String6concatEh) for String::concat(unsigned char)
    sys.o(i._ZplRK15StringSumHelperh) refers to sys.o(i._ZN6String10invalidateEv) for String::invalidate()
    sys.o(i._ZplRK15StringSumHelperi) refers to sys.o(i._ZN6String6concatEi) for String::concat(int)
    sys.o(i._ZplRK15StringSumHelperi) refers to sys.o(i._ZN6String10invalidateEv) for String::invalidate()
    sys.o(i._ZplRK15StringSumHelperj) refers to sys.o(i._ZN6String6concatEj) for String::concat(unsigned)
    sys.o(i._ZplRK15StringSumHelperj) refers to sys.o(i._ZN6String10invalidateEv) for String::invalidate()
    sys.o(i._ZplRK15StringSumHelperl) refers to sys.o(i._ZN6String6concatEl) for String::concat(long)
    sys.o(i._ZplRK15StringSumHelperl) refers to sys.o(i._ZN6String10invalidateEv) for String::invalidate()
    sys.o(i._ZplRK15StringSumHelperm) refers to sys.o(i._ZN6String6concatEm) for String::concat(unsigned long)
    sys.o(i._ZplRK15StringSumHelperm) refers to sys.o(i._ZN6String10invalidateEv) for String::invalidate()
    sys.o(i.__sti___5_sys_c_GPIO_Set) refers to ringbuffer.o(i._ZN10RingBufferC1Ev) for RingBuffer::RingBuffer()
    sys.o(i.__sti___5_sys_c_GPIO_Set) refers to usartclass.o(i._ZN10USARTClassC1EP13USART_TypeDef9IRQn_TypejP10RingBuffer) for USARTClass::USARTClass(USART_TypeDef*, IRQn_Type, unsigned, RingBuffer*)
    sys.o(i.__sti___5_sys_c_GPIO_Set) refers to sys.o(i._ZN8SPIClassC1EP11SPI_TypeDefPFYvvE) for SPIClass::SPIClass(SPI_TypeDef*, void(*)())
    sys.o(i.__sti___5_sys_c_GPIO_Set) refers to sys.o(.bss) for .bss
    sys.o(i.__sti___5_sys_c_GPIO_Set) refers to sys.o(i._Z10SPI_1_Initv) for SPI_1_Init()
    sys.o(i.__sti___5_sys_c_GPIO_Set) refers to sys.o(i._Z10SPI_2_Initv) for SPI_2_Init()
    sys.o(i.__sti___5_sys_c_GPIO_Set) refers to sys.o(i._Z10SPI_3_Initv) for SPI_3_Init()
    sys.o(i.adcRead) refers to sys.o(i.pinMode) for pinMode
    sys.o(i.adcRead) refers to stm32f4xx_hal_adc.o(i.HAL_ADC_Init) for HAL_ADC_Init
    sys.o(i.adcRead) refers to stm32f4xx_hal_adc.o(i.HAL_ADC_ConfigChannel) for HAL_ADC_ConfigChannel
    sys.o(i.adcRead) refers to stm32f4xx_hal_adc.o(i.HAL_ADC_Start) for HAL_ADC_Start
    sys.o(i.adcRead) refers to stm32f4xx_hal_adc.o(i.HAL_ADC_PollForConversion) for HAL_ADC_PollForConversion
    sys.o(i.adcRead) refers to stm32f4xx_hal_adc.o(i.HAL_ADC_GetValue) for HAL_ADC_GetValue
    sys.o(i.adcRead) refers to sys.o(i._Z13mapResolutionjjj) for mapResolution(unsigned, unsigned, unsigned)
    sys.o(i.adcRead) refers to pinmap.o(.constdata) for g_APinDescription
    sys.o(i.adcRead) refers to sys.o(.data) for .data
    sys.o(i.analogRead) refers to sys.o(i.adcRead) for adcRead
    sys.o(i.analogRead_DMA) refers to sys.o(i.ADC_DMA_GetValue) for ADC_DMA_GetValue
    sys.o(i.analogRead_DMA) refers to pinmap.o(.constdata) for g_APinDescription
    sys.o(i.analogWrite) refers to sys.o(i._Z13mapResolutionjjj) for mapResolution(unsigned, unsigned, unsigned)
    sys.o(i.analogWrite) refers to sys.o(i.dacWrite) for dacWrite
    sys.o(i.analogWrite) refers to sys.o(i.pinMode) for pinMode
    sys.o(i.analogWrite) refers to sys.o(i.digitalWrite) for digitalWrite
    sys.o(i.analogWrite) refers to stm32f4xx_hal_gpio.o(i.HAL_GPIO_Init) for HAL_GPIO_Init
    sys.o(i.analogWrite) refers to stm32f4xx_hal_tim.o(i.HAL_TIM_Base_Init) for HAL_TIM_Base_Init
    sys.o(i.analogWrite) refers to stm32f4xx_hal_tim.o(i.HAL_TIM_ConfigClockSource) for HAL_TIM_ConfigClockSource
    sys.o(i.analogWrite) refers to stm32f4xx_hal_tim.o(i.HAL_TIM_PWM_Init) for HAL_TIM_PWM_Init
    sys.o(i.analogWrite) refers to stm32f4xx_hal_tim_ex.o(i.HAL_TIMEx_MasterConfigSynchronization) for HAL_TIMEx_MasterConfigSynchronization
    sys.o(i.analogWrite) refers to stm32f4xx_hal_tim.o(i.HAL_TIM_PWM_ConfigChannel) for HAL_TIM_PWM_ConfigChannel
    sys.o(i.analogWrite) refers to stm32f4xx_hal_tim.o(i.HAL_TIM_PWM_Start) for HAL_TIM_PWM_Start
    sys.o(i.analogWrite) refers to pinmap.o(.constdata) for g_APinDescription
    sys.o(i.analogWrite) refers to sys.o(.data) for .data
    sys.o(i.analogWrite) refers to pinmap.o(.bss) for pinEnabled
    sys.o(i.dacStop) refers to sys.o(i._Z15get_dac_channelh) for get_dac_channel(unsigned char)
    sys.o(i.dacStop) refers to stm32f4xx_hal_dac.o(i.HAL_DAC_Stop) for HAL_DAC_Stop
    sys.o(i.dacStop) refers to stm32f4xx_hal_dac.o(i.HAL_DAC_DeInit) for HAL_DAC_DeInit
    sys.o(i.dacWrite) refers to memseta.o(.text) for __aeabi_memclr4
    sys.o(i.dacWrite) refers to sys.o(i.pinMode) for pinMode
    sys.o(i.dacWrite) refers to sys.o(i._Z15get_dac_channelh) for get_dac_channel(unsigned char)
    sys.o(i.dacWrite) refers to stm32f4xx_hal_dac.o(i.HAL_DAC_Init) for HAL_DAC_Init
    sys.o(i.dacWrite) refers to stm32f4xx_hal_dac.o(i.HAL_DAC_ConfigChannel) for HAL_DAC_ConfigChannel
    sys.o(i.dacWrite) refers to stm32f4xx_hal_dac.o(i.HAL_DAC_SetValue) for HAL_DAC_SetValue
    sys.o(i.dacWrite) refers to stm32f4xx_hal_dac.o(i.HAL_DAC_Start) for HAL_DAC_Start
    sys.o(i.dacWrite) refers to pinmap.o(.bss) for pinEnabled
    sys.o(i.delay) refers to stm32f4xx_hal_rcc.o(i.HAL_RCC_GetSysClockFreq) for HAL_RCC_GetSysClockFreq
    sys.o(i.delayMicroseconds) refers to stm32f4xx_hal_rcc.o(i.HAL_RCC_GetSysClockFreq) for HAL_RCC_GetSysClockFreq
    sys.o(i.delay_ms) refers to sys.o(i.delay) for delay
    sys.o(i.delay_us) refers to sys.o(i.delayMicroseconds) for delayMicroseconds
    sys.o(i.digitalRead) refers to stm32f4xx_hal_gpio.o(i.HAL_GPIO_ReadPin) for HAL_GPIO_ReadPin
    sys.o(i.digitalRead) refers to pinmap.o(.constdata) for g_APinDescription
    sys.o(i.digitalWrite) refers to pinmap.o(.constdata) for g_APinDescription
    sys.o(i.dtostrf) refers to printfa.o(i.__0sprintf) for __2sprintf
    sys.o(i.fsmc_lcd_init) refers to sys.o(i._Z9fsmc_initv) for fsmc_init()
    sys.o(i.fsmc_lcd_init) refers to sys.o(i._Z19fsmc_lcd_init_gpiosv) for fsmc_lcd_init_gpios()
    sys.o(i.fsmc_lcd_init) refers to sys.o(.data) for .data
    sys.o(i.isButtonPressed) refers to sys.o(i.digitalRead) for digitalRead
    sys.o(i.isButtonPressed) refers to sys.o(i.delay) for delay
    sys.o(i.itoa) refers to sys.o(i.ltoa) for ltoa
    sys.o(i.micros) refers to stm32f4xx_hal.o(i.HAL_GetTick) for HAL_GetTick
    sys.o(i.millis) refers to stm32f4xx_hal.o(i.HAL_GetTick) for HAL_GetTick
    sys.o(i.pinMode) refers to stm32f4xx_hal_gpio.o(i.HAL_GPIO_Init) for HAL_GPIO_Init
    sys.o(i.pinMode) refers to pinmap.o(.constdata) for g_APinDescription
    sys.o(i.pinModeEX) refers to stm32f4xx_hal_gpio.o(i.HAL_GPIO_Init) for HAL_GPIO_Init
    sys.o(i.pinModeEX) refers to pinmap.o(.constdata) for g_APinDescription
    sys.o(i.pulseIn) refers to sys.o(i.micros) for micros
    sys.o(i.pulseIn) refers to sys.o(i.pinMode) for pinMode
    sys.o(i.pulseIn) refers to sys.o(i.digitalRead) for digitalRead
    sys.o(i.pulseIn) refers to sys.o(i.delayMicroseconds) for delayMicroseconds
    sys.o(i.pwmMode) refers to sys.o(i.pinMode) for pinMode
    sys.o(i.pwmMode) refers to stm32f4xx_hal_gpio.o(i.HAL_GPIO_Init) for HAL_GPIO_Init
    sys.o(i.pwmMode) refers to stm32f4xx_hal_tim.o(i.HAL_TIM_Base_Init) for HAL_TIM_Base_Init
    sys.o(i.pwmMode) refers to stm32f4xx_hal_tim.o(i.HAL_TIM_ConfigClockSource) for HAL_TIM_ConfigClockSource
    sys.o(i.pwmMode) refers to stm32f4xx_hal_tim.o(i.HAL_TIM_PWM_Init) for HAL_TIM_PWM_Init
    sys.o(i.pwmMode) refers to stm32f4xx_hal_tim_ex.o(i.HAL_TIMEx_MasterConfigSynchronization) for HAL_TIMEx_MasterConfigSynchronization
    sys.o(i.pwmMode) refers to stm32f4xx_hal_tim.o(i.HAL_TIM_PWM_ConfigChannel) for HAL_TIM_PWM_ConfigChannel
    sys.o(i.pwmMode) refers to stm32f4xx_hal_tim.o(i.HAL_TIM_PWM_Start) for HAL_TIM_PWM_Start
    sys.o(i.pwmMode) refers to pinmap.o(.bss) for pinEnabled
    sys.o(i.pwmMode) refers to pinmap.o(.constdata) for g_APinDescription
    sys.o(i.pwmMode) refers to sys.o(.data) for .data
    sys.o(i.pwmMode) refers to system_stm32f4xx.o(.data) for SystemCoreClock
    sys.o(i.pwmWrite) refers to pinmap.o(.constdata) for g_APinDescription
    sys.o(i.random) refers to rand.o(.text) for rand
    sys.o(i.randomSeed) refers to rand.o(.text) for srand
    sys.o(i.shiftIn) refers to sys.o(i.pinMode) for pinMode
    sys.o(i.shiftIn) refers to sys.o(i.digitalWrite) for digitalWrite
    sys.o(i.shiftIn) refers to sys.o(i.digitalRead) for digitalRead
    sys.o(i.shiftOut) refers to sys.o(i.pinMode) for pinMode
    sys.o(i.shiftOut) refers to sys.o(i.digitalWrite) for digitalWrite
    sys.o(i.togglePin) refers to pinmap.o(.constdata) for g_APinDescription
    sys.o(i.utoa) refers to sys.o(i.ultoa) for ultoa
    sys.o(i.waitForButtonPress) refers to stm32f4xx_hal.o(i.HAL_GetTick) for HAL_GetTick
    sys.o(i.waitForButtonPress) refers to sys.o(i.isButtonPressed) for isButtonPressed
    sys.o(.ARM.exidx) refers to sys.o(i.GPIO_Set) for i.GPIO_Set
    sys.o(.ARM.exidx) refers to sys.o(i.pinMode) for i.pinMode
    sys.o(.ARM.exidx) refers to sys.o(i.pinModeEX) for i.pinModeEX
    sys.o(.ARM.exidx) refers to sys.o(i.digitalWrite) for i.digitalWrite
    sys.o(.ARM.exidx) refers to sys.o(i.digitalRead) for i.digitalRead
    sys.o(.ARM.exidx) refers to sys.o(i.togglePin) for i.togglePin
    sys.o(.ARM.exidx) refers to sys.o(i.delay) for i.delay
    sys.o(.ARM.exidx) refers to sys.o(i.isButtonPressed) for i.isButtonPressed
    sys.o(.ARM.exidx) refers to sys.o(i.millis) for i.millis
    sys.o(.ARM.exidx) refers to sys.o(i.waitForButtonPress) for i.waitForButtonPress
    sys.o(.ARM.exidx) refers to sys.o(i.micros) for i.micros
    sys.o(.ARM.exidx) refers to sys.o(i.delayMicroseconds) for i.delayMicroseconds
    sys.o(.ARM.exidx) refers to sys.o(i.delay_us) for i.delay_us
    sys.o(.ARM.exidx) refers to sys.o(i.pulseIn) for i.pulseIn
    sys.o(.ARM.exidx) refers to sys.o(i._Z8pwmStarthjj20TimerCompareFormat_t) for i._Z8pwmStarthjj20TimerCompareFormat_t
    sys.o(.ARM.exidx) refers to sys.o(i._Z7pwmStoph) for i._Z7pwmStoph
    sys.o(.ARM.exidx) refers to sys.o(i._Z15get_dac_channelh) for i._Z15get_dac_channelh
    sys.o(.ARM.exidx) refers to sys.o(i.HAL_DAC_MspInit) for i.HAL_DAC_MspInit
    sys.o(.ARM.exidx) refers to sys.o(i.dacWrite) for i.dacWrite
    sys.o(.ARM.exidx) refers to sys.o(i.HAL_DAC_MspDeInit) for i.HAL_DAC_MspDeInit
    sys.o(.ARM.exidx) refers to sys.o(i.dacStop) for i.dacStop
    sys.o(.ARM.exidx) refers to sys.o(i.pwmMode) for i.pwmMode
    sys.o(.ARM.exidx) refers to sys.o(i.pwmWrite) for i.pwmWrite
    sys.o(.ARM.exidx) refers to sys.o(i._Z13mapResolutionjjj) for i._Z13mapResolutionjjj
    sys.o(.ARM.exidx) refers to sys.o(i.analogWrite) for i.analogWrite
    sys.o(.ARM.exidx) refers to sys.o(i.adcRead) for i.adcRead
    sys.o(.ARM.exidx) refers to sys.o(i.analogRead) for i.analogRead
    sys.o(.ARM.exidx) refers to sys.o(i._Z16ADC_DMA_Registerh) for i._Z16ADC_DMA_Registerh
    sys.o(.ARM.exidx) refers to sys.o(i.ADC_DMA_GetValue) for i.ADC_DMA_GetValue
    sys.o(.ARM.exidx) refers to sys.o(i.analogRead_DMA) for i.analogRead_DMA
    sys.o(.ARM.exidx) refers to sys.o(i._Z12serialEvent1v) for i._Z12serialEvent1v
    sys.o(.ARM.exidx) refers to sys.o(i._Z12serialEvent2v) for i._Z12serialEvent2v
    sys.o(.ARM.exidx) refers to sys.o(i._Z12serialEvent3v) for i._Z12serialEvent3v
    sys.o(.ARM.exidx) refers to sys.o(i._Z12serialEvent4v) for i._Z12serialEvent4v
    sys.o(.ARM.exidx) refers to sys.o(i._Z12serialEvent5v) for i._Z12serialEvent5v
    sys.o(.ARM.exidx) refers to sys.o(i._Z12serialEvent6v) for i._Z12serialEvent6v
    sys.o(.ARM.exidx) refers to sys.o(i.USART1_IRQHandler) for i.USART1_IRQHandler
    sys.o(.ARM.exidx) refers to sys.o(i.USART2_IRQHandler) for i.USART2_IRQHandler
    sys.o(.ARM.exidx) refers to sys.o(i.USART3_IRQHandler) for i.USART3_IRQHandler
    sys.o(.ARM.exidx) refers to sys.o(i.UART4_IRQHandler) for i.UART4_IRQHandler
    sys.o(.ARM.exidx) refers to sys.o(i.UART5_IRQHandler) for i.UART5_IRQHandler
    sys.o(.ARM.exidx) refers to sys.o(i.USART6_IRQHandler) for i.USART6_IRQHandler
    sys.o(.ARM.exidx) refers to sys.o(i._Z14serialEventRunv) for i._Z14serialEventRunv
    sys.o(.ARM.exidx) refers to sys.o(i._Z19determine_baud_rateP11SPI_TypeDefj) for i._Z19determine_baud_rateP11SPI_TypeDefj
    sys.o(.ARM.exidx) refers to sys.o(i._Z10SPI_1_Initv) for i._Z10SPI_1_Initv
    sys.o(.ARM.exidx) refers to sys.o(i._Z10SPI_2_Initv) for i._Z10SPI_2_Initv
    sys.o(.ARM.exidx) refers to sys.o(i._Z10SPI_3_Initv) for i._Z10SPI_3_Initv
    sys.o(.ARM.exidx) refers to sys.o(i.DMA1_Stream0_IRQHandler) for i.DMA1_Stream0_IRQHandler
    sys.o(.ARM.exidx) refers to sys.o(i.DMA1_Stream1_IRQHandler) for i.DMA1_Stream1_IRQHandler
    sys.o(.ARM.exidx) refers to sys.o(i.DMA1_Stream2_IRQHandler) for i.DMA1_Stream2_IRQHandler
    sys.o(.ARM.exidx) refers to sys.o(i.DMA1_Stream3_IRQHandler) for i.DMA1_Stream3_IRQHandler
    sys.o(.ARM.exidx) refers to sys.o(i.DMA1_Stream4_IRQHandler) for i.DMA1_Stream4_IRQHandler
    sys.o(.ARM.exidx) refers to sys.o(i.DMA1_Stream5_IRQHandler) for i.DMA1_Stream5_IRQHandler
    sys.o(.ARM.exidx) refers to sys.o(i.DMA1_Stream6_IRQHandler) for i.DMA1_Stream6_IRQHandler
    sys.o(.ARM.exidx) refers to sys.o(i.DMA1_Stream7_IRQHandler) for i.DMA1_Stream7_IRQHandler
    sys.o(.ARM.exidx) refers to sys.o(i.DMA2_Stream0_IRQHandler) for i.DMA2_Stream0_IRQHandler
    sys.o(.ARM.exidx) refers to sys.o(i.DMA2_Stream1_IRQHandler) for i.DMA2_Stream1_IRQHandler
    sys.o(.ARM.exidx) refers to sys.o(i.DMA2_Stream2_IRQHandler) for i.DMA2_Stream2_IRQHandler
    sys.o(.ARM.exidx) refers to sys.o(i.DMA2_Stream3_IRQHandler) for i.DMA2_Stream3_IRQHandler
    sys.o(.ARM.exidx) refers to sys.o(i.DMA2_Stream4_IRQHandler) for i.DMA2_Stream4_IRQHandler
    sys.o(.ARM.exidx) refers to sys.o(i.DMA2_Stream5_IRQHandler) for i.DMA2_Stream5_IRQHandler
    sys.o(.ARM.exidx) refers to sys.o(i.DMA2_Stream6_IRQHandler) for i.DMA2_Stream6_IRQHandler
    sys.o(.ARM.exidx) refers to sys.o(i.DMA2_Stream7_IRQHandler) for i.DMA2_Stream7_IRQHandler
    sys.o(.ARM.exidx) refers to sys.o(i._Z15attachInterruptjPFvvEj) for i._Z15attachInterruptjPFvvEj
    sys.o(.ARM.exidx) refers to sys.o(i._Z15detachInterruptj) for i._Z15detachInterruptj
    sys.o(.ARM.exidx) refers to sys.o(i._Z10interruptsv) for i._Z10interruptsv
    sys.o(.ARM.exidx) refers to sys.o(i._Z12noInterruptsv) for i._Z12noInterruptsv
    sys.o(.ARM.exidx) refers to sys.o(i.EXTI0_IRQHandler) for i.EXTI0_IRQHandler
    sys.o(.ARM.exidx) refers to sys.o(i.EXTI1_IRQHandler) for i.EXTI1_IRQHandler
    sys.o(.ARM.exidx) refers to sys.o(i.EXTI2_IRQHandler) for i.EXTI2_IRQHandler
    sys.o(.ARM.exidx) refers to sys.o(i.EXTI3_IRQHandler) for i.EXTI3_IRQHandler
    sys.o(.ARM.exidx) refers to sys.o(i.EXTI4_IRQHandler) for i.EXTI4_IRQHandler
    sys.o(.ARM.exidx) refers to sys.o(i.EXTI9_5_IRQHandler) for i.EXTI9_5_IRQHandler
    sys.o(.ARM.exidx) refers to sys.o(i.EXTI15_10_IRQHandler) for i.EXTI15_10_IRQHandler
    sys.o(.ARM.exidx) refers to sys.o(i.randomSeed) for i.randomSeed
    sys.o(.ARM.exidx) refers to sys.o(i.random) for i.random
    sys.o(.ARM.exidx) refers to sys.o(i.makeWord) for i.makeWord
    sys.o(.ARM.exidx) refers to sys.o(i.map) for i.map
    sys.o(.ARM.exidx) refers to sys.o(i.shiftIn) for i.shiftIn
    sys.o(.ARM.exidx) refers to sys.o(i.shiftOut) for i.shiftOut
    sys.o(.ARM.exidx) refers to sys.o(i.dtostrf) for i.dtostrf
    sys.o(.ARM.exidx) refers to sys.o(i._Z7WFI_SETv) for i._Z7WFI_SETv
    sys.o(.ARM.exidx) refers to sys.o(i._Z11Sys_Standbyv) for i._Z11Sys_Standbyv
    sys.o(.ARM.exidx) refers to sys.o(i._Z14Sys_Soft_Resetv) for i._Z14Sys_Soft_Resetv
    sys.o(.ARM.exidx) refers to sys.o(i._Z22MY_NVIC_SetVectorTablejj) for i._Z22MY_NVIC_SetVectorTablejj
    sys.o(.ARM.exidx) refers to sys.o(i._Z13Sys_Clock_Setjjjj) for i._Z13Sys_Clock_Setjjjj
    sys.o(.ARM.exidx) refers to sys.o(i._Z16Stm32_Clock_Initjjjj) for i._Z16Stm32_Clock_Initjjjj
    sys.o(.ARM.exidx) refers to sys.o(i.ltoa) for i.ltoa
    sys.o(.ARM.exidx) refers to sys.o(i.itoa) for i.itoa
    sys.o(.ARM.exidx) refers to sys.o(i.ultoa) for i.ultoa
    sys.o(.ARM.exidx) refers to sys.o(i.utoa) for i.utoa
    sys.o(.ARM.exidx) refers to sys.o(i._ZN6String10invalidateEv) for i._ZN6String10invalidateEv
    sys.o(.ARM.exidx) refers to sys.o(i._ZN6String12changeBufferEj) for i._ZN6String12changeBufferEj
    sys.o(.ARM.exidx) refers to sys.o(i._ZN6String7reserveEj) for i._ZN6String7reserveEj
    sys.o(.ARM.exidx) refers to sys.o(i._ZN6String6concatEPKcj) for i._ZN6String6concatEPKcj
    sys.o(.ARM.exidx) refers to sys.o(i._ZplRK15StringSumHelperRK6String) for i._ZplRK15StringSumHelperRK6String
    sys.o(.ARM.exidx) refers to sys.o(i._ZplRK15StringSumHelperPKc) for i._ZplRK15StringSumHelperPKc
    sys.o(.ARM.exidx) refers to sys.o(i._ZN6String6concatEc) for i._ZN6String6concatEc
    sys.o(.ARM.exidx) refers to sys.o(i._ZplRK15StringSumHelperc) for i._ZplRK15StringSumHelperc
    sys.o(.ARM.exidx) refers to sys.o(i._ZN6String6concatEh) for i._ZN6String6concatEh
    sys.o(.ARM.exidx) refers to sys.o(i._ZplRK15StringSumHelperh) for i._ZplRK15StringSumHelperh
    sys.o(.ARM.exidx) refers to sys.o(i._ZN6String6concatEi) for i._ZN6String6concatEi
    sys.o(.ARM.exidx) refers to sys.o(i._ZplRK15StringSumHelperi) for i._ZplRK15StringSumHelperi
    sys.o(.ARM.exidx) refers to sys.o(i._ZN6String6concatEj) for i._ZN6String6concatEj
    sys.o(.ARM.exidx) refers to sys.o(i._ZplRK15StringSumHelperj) for i._ZplRK15StringSumHelperj
    sys.o(.ARM.exidx) refers to sys.o(i._ZN6String6concatEl) for i._ZN6String6concatEl
    sys.o(.ARM.exidx) refers to sys.o(i._ZplRK15StringSumHelperl) for i._ZplRK15StringSumHelperl
    sys.o(.ARM.exidx) refers to sys.o(i._ZN6String6concatEm) for i._ZN6String6concatEm
    sys.o(.ARM.exidx) refers to sys.o(i._ZplRK15StringSumHelperm) for i._ZplRK15StringSumHelperm
    sys.o(.ARM.exidx) refers to sys.o(i._ZN6String6concatEf) for i._ZN6String6concatEf
    sys.o(.ARM.exidx) refers to sys.o(i._ZplRK15StringSumHelperf) for i._ZplRK15StringSumHelperf
    sys.o(.ARM.exidx) refers to sys.o(i._ZN6String6concatEd) for i._ZN6String6concatEd
    sys.o(.ARM.exidx) refers to sys.o(i._ZplRK15StringSumHelperd) for i._ZplRK15StringSumHelperd
    sys.o(.ARM.exidx) refers to sys.o(i._ZN6String6concatEPK19__FlashStringHelper) for i._ZN6String6concatEPK19__FlashStringHelper
    sys.o(.ARM.exidx) refers to sys.o(i._ZplRK15StringSumHelperPK19__FlashStringHelper) for i._ZplRK15StringSumHelperPK19__FlashStringHelper
    sys.o(.ARM.exidx) refers to sys.o(i.yield) for i.yield
    sys.o(.ARM.exidx) refers to sys.o(i.delay_ms) for i.delay_ms
    sys.o(.ARM.exidx) refers to sys.o(i._Z9fsmc_initv) for i._Z9fsmc_initv
    sys.o(.ARM.exidx) refers to sys.o(i._Z19fsmc_lcd_init_gpiosv) for i._Z19fsmc_lcd_init_gpiosv
    sys.o(.ARM.exidx) refers to sys.o(i.fsmc_lcd_init) for i.fsmc_lcd_init
    sys.o(.ARM.exidx) refers to sys.o(i._ZN6String4copyEPKcj) for i._ZN6String4copyEPKcj
    sys.o(.ARM.exidx) refers to sys.o(i._ZN6StringC1EPKc) for i._ZN6StringC1EPKc
    sys.o(.ARM.exidx) refers to sys.o(i._ZN6StringaSERKS_) for i._ZN6StringaSERKS_
    sys.o(.ARM.exidx) refers to sys.o(i._ZN6StringC1ERKS_) for i._ZN6StringC1ERKS_
    sys.o(.ARM.exidx) refers to sys.o(i._ZN6String4copyEPK19__FlashStringHelperj) for i._ZN6String4copyEPK19__FlashStringHelperj
    sys.o(.ARM.exidx) refers to sys.o(i._ZN6StringaSEPK19__FlashStringHelper) for i._ZN6StringaSEPK19__FlashStringHelper
    sys.o(.ARM.exidx) refers to sys.o(i._ZN6StringC1EPK19__FlashStringHelper) for i._ZN6StringC1EPK19__FlashStringHelper
    sys.o(.ARM.exidx) refers to sys.o(i._ZN6StringaSEPKc) for i._ZN6StringaSEPKc
    sys.o(.ARM.exidx) refers to sys.o(i._ZN6StringC1Ec) for i._ZN6StringC1Ec
    sys.o(.ARM.exidx) refers to sys.o(i._ZN6StringC1Ehh) for i._ZN6StringC1Ehh
    sys.o(.ARM.exidx) refers to sys.o(i._ZN6StringC1Eih) for i._ZN6StringC1Eih
    sys.o(.ARM.exidx) refers to sys.o(i._ZN6StringC1Ejh) for i._ZN6StringC1Ejh
    sys.o(.ARM.exidx) refers to sys.o(i._ZN6StringC1Elh) for i._ZN6StringC1Elh
    sys.o(.ARM.exidx) refers to sys.o(i._ZN6StringC1Emh) for i._ZN6StringC1Emh
    sys.o(.ARM.exidx) refers to sys.o(i._ZN6StringC1Efh) for i._ZN6StringC1Efh
    sys.o(.ARM.exidx) refers to sys.o(i._ZN6StringC1Edh) for i._ZN6StringC1Edh
    sys.o(.ARM.exidx) refers to sys.o(i._ZN6StringD1Ev) for i._ZN6StringD1Ev
    sys.o(.ARM.exidx) refers to sys.o(i._ZN6String6concatERKS_) for i._ZN6String6concatERKS_
    sys.o(.ARM.exidx) refers to sys.o(i._ZN6String6concatEPKc) for i._ZN6String6concatEPKc
    sys.o(.ARM.exidx) refers to sys.o(i._ZNK6String9compareToERKS_) for i._ZNK6String9compareToERKS_
    sys.o(.ARM.exidx) refers to sys.o(i._ZNK6String6equalsERKS_) for i._ZNK6String6equalsERKS_
    sys.o(.ARM.exidx) refers to sys.o(i._ZNK6String6equalsEPKc) for i._ZNK6String6equalsEPKc
    sys.o(.ARM.exidx) refers to sys.o(i._ZNK6StringltERKS_) for i._ZNK6StringltERKS_
    sys.o(.ARM.exidx) refers to sys.o(i._ZNK6StringgtERKS_) for i._ZNK6StringgtERKS_
    sys.o(.ARM.exidx) refers to sys.o(i._ZNK6StringleERKS_) for i._ZNK6StringleERKS_
    sys.o(.ARM.exidx) refers to sys.o(i._ZNK6StringgeERKS_) for i._ZNK6StringgeERKS_
    sys.o(.ARM.exidx) refers to sys.o(i._ZNK6String16equalsIgnoreCaseERKS_) for i._ZNK6String16equalsIgnoreCaseERKS_
    sys.o(.ARM.exidx) refers to sys.o(i._ZNK6String10startsWithERKS_j) for i._ZNK6String10startsWithERKS_j
    sys.o(.ARM.exidx) refers to sys.o(i._ZNK6String10startsWithERKS_) for i._ZNK6String10startsWithERKS_
    sys.o(.ARM.exidx) refers to sys.o(i._ZNK6String8endsWithERKS_) for i._ZNK6String8endsWithERKS_
    sys.o(.ARM.exidx) refers to sys.o(i._ZNK6StringixEj) for i._ZNK6StringixEj
    sys.o(.ARM.exidx) refers to sys.o(i._ZNK6String6charAtEj) for i._ZNK6String6charAtEj
    sys.o(.ARM.exidx) refers to sys.o(i._ZN6String9setCharAtEjc) for i._ZN6String9setCharAtEjc
    sys.o(.ARM.exidx) refers to sys.o(i._ZN6StringixEj) for i._ZN6StringixEj
    sys.o(.ARM.exidx) refers to sys.o(i._ZNK6String8getBytesEPhjj) for i._ZNK6String8getBytesEPhjj
    sys.o(.ARM.exidx) refers to sys.o(i._ZNK6String7indexOfEcj) for i._ZNK6String7indexOfEcj
    sys.o(.ARM.exidx) refers to sys.o(i._ZNK6String7indexOfEc) for i._ZNK6String7indexOfEc
    sys.o(.ARM.exidx) refers to sys.o(i._ZNK6String7indexOfERKS_j) for i._ZNK6String7indexOfERKS_j
    sys.o(.ARM.exidx) refers to sys.o(i._ZNK6String7indexOfERKS_) for i._ZNK6String7indexOfERKS_
    sys.o(.ARM.exidx) refers to sys.o(i._ZNK6String11lastIndexOfEcj) for i._ZNK6String11lastIndexOfEcj
    sys.o(.ARM.exidx) refers to sys.o(i._ZNK6String11lastIndexOfEc) for i._ZNK6String11lastIndexOfEc
    sys.o(.ARM.exidx) refers to sys.o(i._ZNK6String11lastIndexOfERKS_j) for i._ZNK6String11lastIndexOfERKS_j
    sys.o(.ARM.exidx) refers to sys.o(i._ZNK6String11lastIndexOfERKS_) for i._ZNK6String11lastIndexOfERKS_
    sys.o(.ARM.exidx) refers to sys.o(i._ZNK6String9substringEjj) for i._ZNK6String9substringEjj
    sys.o(.ARM.exidx) refers to sys.o(i._ZN6String7replaceEcc) for i._ZN6String7replaceEcc
    sys.o(.ARM.exidx) refers to sys.o(i._ZN6String7replaceERKS_S1_) for i._ZN6String7replaceERKS_S1_
    sys.o(.ARM.exidx) refers to sys.o(i._ZN6String6removeEjj) for i._ZN6String6removeEjj
    sys.o(.ARM.exidx) refers to sys.o(i._ZN6String6removeEj) for i._ZN6String6removeEj
    sys.o(.ARM.exidx) refers to sys.o(i._ZN6String11toLowerCaseEv) for i._ZN6String11toLowerCaseEv
    sys.o(.ARM.exidx) refers to sys.o(i._ZN6String11toUpperCaseEv) for i._ZN6String11toUpperCaseEv
    sys.o(.ARM.exidx) refers to sys.o(i._ZN6String4trimEv) for i._ZN6String4trimEv
    sys.o(.ARM.exidx) refers to sys.o(i._ZNK6String5toIntEv) for i._ZNK6String5toIntEv
    sys.o(.ARM.exidx) refers to sys.o(i._ZNK6String7toFloatEv) for i._ZNK6String7toFloatEv
    sys.o(.ARM.exidx) refers to sys.o(i._ZN8SPIClassC1EP11SPI_TypeDefPFYvvE) for i._ZN8SPIClassC1EP11SPI_TypeDefPFYvvE
    sys.o(.ARM.exidx) refers to sys.o(i._ZN8SPIClass8transferEh) for i._ZN8SPIClass8transferEh
    sys.o(.ARM.exidx) refers to sys.o(i._ZN8SPIClass10transfer16Et) for i._ZN8SPIClass10transfer16Et
    sys.o(.ARM.exidx) refers to sys.o(i._ZN8SPIClass5writeEh) for i._ZN8SPIClass5writeEh
    sys.o(.ARM.exidx) refers to sys.o(i._ZN8SPIClass6send16Et) for i._ZN8SPIClass6send16Et
    sys.o(.ARM.exidx) refers to sys.o(i._ZN8SPIClass5writeEtj) for i._ZN8SPIClass5writeEtj
    sys.o(.ARM.exidx) refers to sys.o(i._ZN8SPIClass7write16Et) for i._ZN8SPIClass7write16Et
    sys.o(.ARM.exidx) refers to sys.o(i._ZN8SPIClass7dmaSendEPKvtt) for i._ZN8SPIClass7dmaSendEPKvtt
    sys.o(.ARM.exidx) refers to sys.o(i._ZN8SPIClass8DMA_InitEPK11DMA_TypeDefP18DMA_Stream_TypeDef) for i._ZN8SPIClass8DMA_InitEPK11DMA_TypeDefP18DMA_Stream_TypeDef
    sys.o(.ARM.exidx) refers to sys.o(i._ZN8SPIClass15attachInterruptEv) for i._ZN8SPIClass15attachInterruptEv
    sys.o(.ARM.exidx) refers to sys.o(i._ZN8SPIClass15detachInterruptEv) for i._ZN8SPIClass15detachInterruptEv
    sys.o(.ARM.exidx) refers to sys.o(i._ZN8SPIClass11setBitOrderEt) for i._ZN8SPIClass11setBitOrderEt
    sys.o(.ARM.exidx) refers to sys.o(i._ZN8SPIClass11setDataModeEh) for i._ZN8SPIClass11setDataModeEh
    sys.o(.ARM.exidx) refers to sys.o(i._ZN8SPIClass15setClockDividerEh) for i._ZN8SPIClass15setClockDividerEh
    sys.o(.ARM.exidx) refers to sys.o(i._ZN8SPIClass11setdataSizeEt) for i._ZN8SPIClass11setdataSizeEt
    sys.o(.ARM.exidx) refers to sys.o(i._ZN8SPIClass4initEv) for i._ZN8SPIClass4initEv
    sys.o(.ARM.exidx) refers to sys.o(i._ZN8SPIClass5beginEv) for i._ZN8SPIClass5beginEv
    sys.o(.ARM.exidx) refers to sys.o(i._ZN8SPIClass3endEv) for i._ZN8SPIClass3endEv
    sys.o(.ARM.exidx) refers to sys.o(i._ZN8SPIClass8setClockEj) for i._ZN8SPIClass8setClockEj
    sys.o(.ARM.exidx) refers to sys.o(i.__sti___5_sys_c_GPIO_Set) for i.__sti___5_sys_c_GPIO_Set
    sys.o(.ARM.exidx) refers to sys.o(i._Z14NVIC_EnableIRQ9IRQn_Type) for i._Z14NVIC_EnableIRQ9IRQn_Type
    sys.o(.ARM.exidx) refers to sys.o(i._Z15NVIC_DisableIRQ9IRQn_Type) for i._Z15NVIC_DisableIRQ9IRQn_Type
    sys.o(.ARM.exidx) refers to sys.o(i._Z8dma_initPK11DMA_TypeDefP18DMA_Stream_TypeDef) for i._Z8dma_initPK11DMA_TypeDefP18DMA_Stream_TypeDef
    sys.o(.ARM.exidx) refers to sys.o(i._Z21ADC_DMA_SearchChannelt) for i._Z21ADC_DMA_SearchChannelt
    sys.o(.init_array) refers to sys.o(i.__sti___5_sys_c_GPIO_Set) for __sti___5_sys_c_GPIO_Set
    sys.o(.init_array) refers to cpp_init.o(.text) for __cpp_initialize__aeabi_
    stream.o(i._ZN6Stream10parseFloatEc) refers to stream.o(i._ZN6Stream13peekNextDigitEv) for Stream::peekNextDigit()
    stream.o(i._ZN6Stream10parseFloatEc) refers to f2d.o(.text) for __aeabi_f2d
    stream.o(i._ZN6Stream10parseFloatEc) refers to dmul.o(.text) for __aeabi_dmul
    stream.o(i._ZN6Stream10parseFloatEc) refers to d2f.o(.text) for __aeabi_d2f
    stream.o(i._ZN6Stream10parseFloatEc) refers to stream.o(i._ZN6Stream9timedPeekEv) for Stream::timedPeek()
    stream.o(i._ZN6Stream10parseFloatEv) refers to stream.o(i._ZN6Stream10parseFloatEc) for Stream::parseFloat(char)
    stream.o(i._ZN6Stream10readStringEv) refers to sys.o(i._ZN6StringC1EPKc) for String::String(const char*)
    stream.o(i._ZN6Stream10readStringEv) refers to sys.o(i._ZN6String6concatEc) for String::concat(char)
    stream.o(i._ZN6Stream10readStringEv) refers to stream.o(i._ZN6Stream9timedReadEv) for Stream::timedRead()
    stream.o(i._ZN6Stream13peekNextDigitEv) refers to stream.o(i._ZN6Stream9timedPeekEv) for Stream::timedPeek()
    stream.o(i._ZN6Stream14readBytesUntilEcPcj) refers to stream.o(i._ZN6Stream9timedReadEv) for Stream::timedRead()
    stream.o(i._ZN6Stream15readStringUntilEc) refers to sys.o(i._ZN6StringC1EPKc) for String::String(const char*)
    stream.o(i._ZN6Stream15readStringUntilEc) refers to sys.o(i._ZN6String6concatEc) for String::concat(char)
    stream.o(i._ZN6Stream15readStringUntilEc) refers to stream.o(i._ZN6Stream9timedReadEv) for Stream::timedRead()
    stream.o(i._ZN6Stream4findEPc) refers to strlen.o(.text) for strlen
    stream.o(i._ZN6Stream4findEPc) refers to stream.o(i._ZN6Stream9findUntilEPcjS0_j) for Stream::findUntil(char*, unsigned, char*, unsigned)
    stream.o(i._ZN6Stream4findEPcj) refers to stream.o(i._ZN6Stream9findUntilEPcjS0_j) for Stream::findUntil(char*, unsigned, char*, unsigned)
    stream.o(i._ZN6Stream8parseIntEc) refers to stream.o(i._ZN6Stream13peekNextDigitEv) for Stream::peekNextDigit()
    stream.o(i._ZN6Stream8parseIntEc) refers to stream.o(i._ZN6Stream9timedPeekEv) for Stream::timedPeek()
    stream.o(i._ZN6Stream8parseIntEv) refers to stream.o(i._ZN6Stream8parseIntEc) for Stream::parseInt(char)
    stream.o(i._ZN6Stream9findUntilEPcS0_) refers to strlen.o(.text) for strlen
    stream.o(i._ZN6Stream9findUntilEPcS0_) refers to stream.o(i._ZN6Stream9findUntilEPcjS0_j) for Stream::findUntil(char*, unsigned, char*, unsigned)
    stream.o(i._ZN6Stream9findUntilEPcjS0_j) refers to stream.o(i._ZN6Stream9timedReadEv) for Stream::timedRead()
    stream.o(i._ZN6Stream9readBytesEPcj) refers to stream.o(i._ZN6Stream9timedReadEv) for Stream::timedRead()
    stream.o(i._ZN6Stream9timedPeekEv) refers to sys.o(i.millis) for millis
    stream.o(i._ZN6Stream9timedReadEv) refers to sys.o(i.millis) for millis
    stream.o(.ARM.exidx) refers to stream.o(i._ZN6Stream9timedReadEv) for i._ZN6Stream9timedReadEv
    stream.o(.ARM.exidx) refers to stream.o(i._ZN6Stream9timedPeekEv) for i._ZN6Stream9timedPeekEv
    stream.o(.ARM.exidx) refers to stream.o(i._ZN6Stream13peekNextDigitEv) for i._ZN6Stream13peekNextDigitEv
    stream.o(.ARM.exidx) refers to stream.o(i._ZN6Stream10setTimeoutEm) for i._ZN6Stream10setTimeoutEm
    stream.o(.ARM.exidx) refers to stream.o(i._ZN6Stream9findUntilEPcjS0_j) for i._ZN6Stream9findUntilEPcjS0_j
    stream.o(.ARM.exidx) refers to stream.o(i._ZN6Stream4findEPc) for i._ZN6Stream4findEPc
    stream.o(.ARM.exidx) refers to stream.o(i._ZN6Stream4findEPcj) for i._ZN6Stream4findEPcj
    stream.o(.ARM.exidx) refers to stream.o(i._ZN6Stream9findUntilEPcS0_) for i._ZN6Stream9findUntilEPcS0_
    stream.o(.ARM.exidx) refers to stream.o(i._ZN6Stream8parseIntEc) for i._ZN6Stream8parseIntEc
    stream.o(.ARM.exidx) refers to stream.o(i._ZN6Stream8parseIntEv) for i._ZN6Stream8parseIntEv
    stream.o(.ARM.exidx) refers to stream.o(i._ZN6Stream10parseFloatEc) for i._ZN6Stream10parseFloatEc
    stream.o(.ARM.exidx) refers to stream.o(i._ZN6Stream10parseFloatEv) for i._ZN6Stream10parseFloatEv
    stream.o(.ARM.exidx) refers to stream.o(i._ZN6Stream9readBytesEPcj) for i._ZN6Stream9readBytesEPcj
    stream.o(.ARM.exidx) refers to stream.o(i._ZN6Stream14readBytesUntilEcPcj) for i._ZN6Stream14readBytesUntilEcPcj
    stream.o(.ARM.exidx) refers to stream.o(i._ZN6Stream10readStringEv) for i._ZN6Stream10readStringEv
    stream.o(.ARM.exidx) refers to stream.o(i._ZN6Stream15readStringUntilEc) for i._ZN6Stream15readStringUntilEc
    usartclass.o(i._Z23USART_INT_ClearAllFlagsP13USART_TypeDef9IRQn_Type) refers to stm32f4xx_hal_cortex.o(i.HAL_NVIC_ClearPendingIRQ) for HAL_NVIC_ClearPendingIRQ
    usartclass.o(i._Z23USART_INT_ClearAllFlagsP13USART_TypeDef9IRQn_Type) refers to usartclass.o(.bss) for .bss
    usartclass.o(i._Z8dma_initPK11DMA_TypeDefP18DMA_Stream_TypeDef) refers to stm32f4xx_hal_cortex.o(i.HAL_NVIC_SetPriority) for HAL_NVIC_SetPriority
    usartclass.o(i._Z8dma_initPK11DMA_TypeDefP18DMA_Stream_TypeDef) refers to stm32f4xx_hal_cortex.o(i.HAL_NVIC_EnableIRQ) for HAL_NVIC_EnableIRQ
    usartclass.o(i._ZN10USARTClass10IrqHandlerEv) refers to ringbuffer.o(i._ZN10RingBuffer10store_charEh) for RingBuffer::store_char(unsigned char)
    usartclass.o(i._ZN10USARTClass10IrqHandlerEv) refers to usartclass.o(i._Z23USART_INT_ClearAllFlagsP13USART_TypeDef9IRQn_Type) for USART_INT_ClearAllFlags(USART_TypeDef*, IRQn_Type)
    usartclass.o(i._ZN10USARTClass5beginEj) refers to sys.o(i.pinMode) for pinMode
    usartclass.o(i._ZN10USARTClass5beginEj) refers to stm32f4xx_hal_gpio.o(i.HAL_GPIO_Init) for HAL_GPIO_Init
    usartclass.o(i._ZN10USARTClass5beginEj) refers to stm32f4xx_hal_cortex.o(i.HAL_NVIC_DisableIRQ) for HAL_NVIC_DisableIRQ
    usartclass.o(i._ZN10USARTClass5beginEj) refers to stm32f4xx_hal_cortex.o(i.HAL_NVIC_SetPriority) for HAL_NVIC_SetPriority
    usartclass.o(i._ZN10USARTClass5beginEj) refers to stm32f4xx_hal_cortex.o(i.HAL_NVIC_EnableIRQ) for HAL_NVIC_EnableIRQ
    usartclass.o(i._ZN10USARTClass5beginEj) refers to stm32f4xx_hal_cortex.o(i.HAL_NVIC_ClearPendingIRQ) for HAL_NVIC_ClearPendingIRQ
    usartclass.o(i._ZN10USARTClass5beginEj) refers to stm32f4xx_hal_uart.o(i.HAL_UART_Init) for HAL_UART_Init
    usartclass.o(i._ZN10USARTClass5beginEj) refers to pinmap.o(.constdata) for g_APinDescription
    usartclass.o(i._ZN10USARTClass7dmaSendEPKvtt) refers to usartclass.o(i._Z18dma_setup_transferPK11DMA_TypeDefP18DMA_Stream_TypeDef11dma_channel13dma_xfer_sizePVvPKvS9_j) for dma_setup_transfer(const DMA_TypeDef*, DMA_Stream_TypeDef*, dma_channel, dma_xfer_size, volatile void*, const void*, const void*, unsigned)
    usartclass.o(i._ZN10USARTClass8DMA_InitEPK11DMA_TypeDefP18DMA_Stream_TypeDefS4_) refers to usartclass.o(i._Z8dma_initPK11DMA_TypeDefP18DMA_Stream_TypeDef) for dma_init(const DMA_TypeDef*, DMA_Stream_TypeDef*)
    usartclass.o(i._ZN10USARTClass9dmaReciveEPhtt) refers to usartclass.o(i._Z18dma_setup_transferPK11DMA_TypeDefP18DMA_Stream_TypeDef11dma_channel13dma_xfer_sizePVvPKvS9_j) for dma_setup_transfer(const DMA_TypeDef*, DMA_Stream_TypeDef*, dma_channel, dma_xfer_size, volatile void*, const void*, const void*, unsigned)
    usartclass.o(i._ZN10USARTClassC1EP13USART_TypeDef9IRQn_TypejP10RingBuffer) refers to usartclass.o(.constdata__ZTV10USARTClass) for vtable for USARTClass
    usartclass.o(.ARM.exidx) refers to usartclass.o(i._Z8dma_initPK11DMA_TypeDefP18DMA_Stream_TypeDef) for i._Z8dma_initPK11DMA_TypeDefP18DMA_Stream_TypeDef
    usartclass.o(.ARM.exidx) refers to usartclass.o(i._Z18dma_setup_transferPK11DMA_TypeDefP18DMA_Stream_TypeDef11dma_channel13dma_xfer_sizePVvPKvS9_j) for i._Z18dma_setup_transferPK11DMA_TypeDefP18DMA_Stream_TypeDef11dma_channel13dma_xfer_sizePVvPKvS9_j
    usartclass.o(.ARM.exidx) refers to usartclass.o(i._ZN10USARTClassC1EP13USART_TypeDef9IRQn_TypejP10RingBuffer) for i._ZN10USARTClassC1EP13USART_TypeDef9IRQn_TypejP10RingBuffer
    usartclass.o(.ARM.exidx) refers to usartclass.o(i._ZN10USARTClass5beginEj) for i._ZN10USARTClass5beginEj
    usartclass.o(.ARM.exidx) refers to usartclass.o(i._ZN10USARTClass3endEv) for i._ZN10USARTClass3endEv
    usartclass.o(.ARM.exidx) refers to usartclass.o(i._ZN10USARTClass9availableEv) for i._ZN10USARTClass9availableEv
    usartclass.o(.ARM.exidx) refers to usartclass.o(i._ZN10USARTClass4peekEv) for i._ZN10USARTClass4peekEv
    usartclass.o(.ARM.exidx) refers to usartclass.o(i._ZN10USARTClass4readEv) for i._ZN10USARTClass4readEv
    usartclass.o(.ARM.exidx) refers to usartclass.o(i._ZN10USARTClass5flushEv) for i._ZN10USARTClass5flushEv
    usartclass.o(.ARM.exidx) refers to usartclass.o(i._ZN10USARTClass5writeEh) for i._ZN10USARTClass5writeEh
    usartclass.o(.ARM.exidx) refers to usartclass.o(i._ZN10USARTClass8DMA_InitEPK11DMA_TypeDefP18DMA_Stream_TypeDefS4_) for i._ZN10USARTClass8DMA_InitEPK11DMA_TypeDefP18DMA_Stream_TypeDefS4_
    usartclass.o(.ARM.exidx) refers to usartclass.o(i._ZN10USARTClass7dmaSendEPKvtt) for i._ZN10USARTClass7dmaSendEPKvtt
    usartclass.o(.ARM.exidx) refers to usartclass.o(i._ZN10USARTClass9dmaReciveEPhtt) for i._ZN10USARTClass9dmaReciveEPhtt
    usartclass.o(.ARM.exidx) refers to usartclass.o(i._ZN10USARTClass10IrqHandlerEv) for i._ZN10USARTClass10IrqHandlerEv
    usartclass.o(.ARM.exidx) refers to usartclass.o(i._Z23USART_INT_ClearAllFlagsP13USART_TypeDef9IRQn_Type) for i._Z23USART_INT_ClearAllFlagsP13USART_TypeDef9IRQn_Type
    print.o(i._ZN5Print10printFloatEdh) refers to cdrcmple.o(.text) for __aeabi_cdrcmple
    print.o(i._ZN5Print10printFloatEdh) refers to cdcmple.o(.text) for __aeabi_cdcmple
    print.o(i._ZN5Print10printFloatEdh) refers to print.o(i._ZN5Print5writeEPKc) for Print::write(const char*)
    print.o(i._ZN5Print10printFloatEdh) refers to print.o(i._ZN5Print5printEc) for Print::print(char)
    print.o(i._ZN5Print10printFloatEdh) refers to ddiv.o(.text) for __aeabi_ddiv
    print.o(i._ZN5Print10printFloatEdh) refers to dadd.o(.text) for __aeabi_dadd
    print.o(i._ZN5Print10printFloatEdh) refers to dfixui.o(.text) for __aeabi_d2uiz
    print.o(i._ZN5Print10printFloatEdh) refers to dfltui.o(.text) for __aeabi_ui2d
    print.o(i._ZN5Print10printFloatEdh) refers to print.o(i._ZN5Print5printEmi) for Print::print(unsigned long, int)
    print.o(i._ZN5Print10printFloatEdh) refers to print.o(i._ZN5Print5printEPKc) for Print::print(const char*)
    print.o(i._ZN5Print10printFloatEdh) refers to dmul.o(.text) for __aeabi_dmul
    print.o(i._ZN5Print10printFloatEdh) refers to dfixi.o(.text) for __aeabi_d2iz
    print.o(i._ZN5Print10printFloatEdh) refers to print.o(i._ZN5Print5printEii) for Print::print(int, int)
    print.o(i._ZN5Print10printFloatEdh) refers to dflti.o(.text) for __aeabi_i2d
    print.o(i._ZN5Print11printNumberEmh) refers to print.o(i._ZN5Print5writeEPKc) for Print::write(const char*)
    print.o(i._ZN5Print5printEPK19__FlashStringHelper) refers to print.o(i._ZN5Print5writeEPKc) for Print::write(const char*)
    print.o(i._ZN5Print5printEPKc) refers to print.o(i._ZN5Print5writeEPKc) for Print::write(const char*)
    print.o(i._ZN5Print5printERK6String) refers to sys.o(i._ZNK6StringixEj) for String::operator [](unsigned) const
    print.o(i._ZN5Print5printEdi) refers to print.o(i._ZN5Print10printFloatEdh) for Print::printFloat(double, unsigned char)
    print.o(i._ZN5Print5printEhi) refers to print.o(i._ZN5Print5printEmi) for Print::print(unsigned long, int)
    print.o(i._ZN5Print5printEii) refers to print.o(i._ZN5Print5printEli) for Print::print(long, int)
    print.o(i._ZN5Print5printEji) refers to print.o(i._ZN5Print5printEmi) for Print::print(unsigned long, int)
    print.o(i._ZN5Print5printEli) refers to print.o(i._ZN5Print5printEc) for Print::print(char)
    print.o(i._ZN5Print5printEli) refers to print.o(i._ZN5Print11printNumberEmh) for Print::printNumber(unsigned long, unsigned char)
    print.o(i._ZN5Print5printEmi) refers to print.o(i._ZN5Print11printNumberEmh) for Print::printNumber(unsigned long, unsigned char)
    print.o(i._ZN5Print7printlnEPK19__FlashStringHelper) refers to print.o(i._ZN5Print5printEPK19__FlashStringHelper) for Print::print(const __FlashStringHelper*)
    print.o(i._ZN5Print7printlnEPK19__FlashStringHelper) refers to print.o(i._ZN5Print7printlnEv) for Print::println()
    print.o(i._ZN5Print7printlnEPKc) refers to print.o(i._ZN5Print5printEPKc) for Print::print(const char*)
    print.o(i._ZN5Print7printlnEPKc) refers to print.o(i._ZN5Print7printlnEv) for Print::println()
    print.o(i._ZN5Print7printlnERK6String) refers to print.o(i._ZN5Print5printERK6String) for Print::print(const String&)
    print.o(i._ZN5Print7printlnERK6String) refers to print.o(i._ZN5Print7printlnEv) for Print::println()
    print.o(i._ZN5Print7printlnERK9Printable) refers to print.o(i._ZN5Print5printERK9Printable) for Print::print(const Printable&)
    print.o(i._ZN5Print7printlnERK9Printable) refers to print.o(i._ZN5Print7printlnEv) for Print::println()
    print.o(i._ZN5Print7printlnEc) refers to print.o(i._ZN5Print5printEc) for Print::print(char)
    print.o(i._ZN5Print7printlnEc) refers to print.o(i._ZN5Print7printlnEv) for Print::println()
    print.o(i._ZN5Print7printlnEdi) refers to print.o(i._ZN5Print5printEdi) for Print::print(double, int)
    print.o(i._ZN5Print7printlnEdi) refers to print.o(i._ZN5Print7printlnEv) for Print::println()
    print.o(i._ZN5Print7printlnEhi) refers to print.o(i._ZN5Print5printEhi) for Print::print(unsigned char, int)
    print.o(i._ZN5Print7printlnEhi) refers to print.o(i._ZN5Print7printlnEv) for Print::println()
    print.o(i._ZN5Print7printlnEii) refers to print.o(i._ZN5Print5printEii) for Print::print(int, int)
    print.o(i._ZN5Print7printlnEii) refers to print.o(i._ZN5Print7printlnEv) for Print::println()
    print.o(i._ZN5Print7printlnEji) refers to print.o(i._ZN5Print5printEji) for Print::print(unsigned, int)
    print.o(i._ZN5Print7printlnEji) refers to print.o(i._ZN5Print7printlnEv) for Print::println()
    print.o(i._ZN5Print7printlnEli) refers to print.o(i._ZN5Print5printEli) for Print::print(long, int)
    print.o(i._ZN5Print7printlnEli) refers to print.o(i._ZN5Print7printlnEv) for Print::println()
    print.o(i._ZN5Print7printlnEmi) refers to print.o(i._ZN5Print5printEmi) for Print::print(unsigned long, int)
    print.o(i._ZN5Print7printlnEmi) refers to print.o(i._ZN5Print7printlnEv) for Print::println()
    print.o(i._ZN5Print7printlnEv) refers to print.o(i._ZN5Print5printEc) for Print::print(char)
    print.o(.ARM.exidx) refers to print.o(i._ZN5Print11printNumberEmh) for i._ZN5Print11printNumberEmh
    print.o(.ARM.exidx) refers to print.o(i._ZN5Print5printEc) for i._ZN5Print5printEc
    print.o(.ARM.exidx) refers to print.o(i._ZN5Print5printEli) for i._ZN5Print5printEli
    print.o(.ARM.exidx) refers to print.o(i._ZN5Print5printEii) for i._ZN5Print5printEii
    print.o(.ARM.exidx) refers to print.o(i._ZN5Print5printEPKc) for i._ZN5Print5printEPKc
    print.o(.ARM.exidx) refers to print.o(i._ZN5Print5printEmi) for i._ZN5Print5printEmi
    print.o(.ARM.exidx) refers to print.o(i._ZN5Print10printFloatEdh) for i._ZN5Print10printFloatEdh
    print.o(.ARM.exidx) refers to print.o(i._ZN5Print5writeEPKhj) for i._ZN5Print5writeEPKhj
    print.o(.ARM.exidx) refers to print.o(i._ZN5Print5printEPK19__FlashStringHelper) for i._ZN5Print5printEPK19__FlashStringHelper
    print.o(.ARM.exidx) refers to print.o(i._ZN5Print5printERK6String) for i._ZN5Print5printERK6String
    print.o(.ARM.exidx) refers to print.o(i._ZN5Print5printEhi) for i._ZN5Print5printEhi
    print.o(.ARM.exidx) refers to print.o(i._ZN5Print5printEji) for i._ZN5Print5printEji
    print.o(.ARM.exidx) refers to print.o(i._ZN5Print5printEdi) for i._ZN5Print5printEdi
    print.o(.ARM.exidx) refers to print.o(i._ZN5Print5printERK9Printable) for i._ZN5Print5printERK9Printable
    print.o(.ARM.exidx) refers to print.o(i._ZN5Print7printlnEv) for i._ZN5Print7printlnEv
    print.o(.ARM.exidx) refers to print.o(i._ZN5Print7printlnEPK19__FlashStringHelper) for i._ZN5Print7printlnEPK19__FlashStringHelper
    print.o(.ARM.exidx) refers to print.o(i._ZN5Print7printlnERK6String) for i._ZN5Print7printlnERK6String
    print.o(.ARM.exidx) refers to print.o(i._ZN5Print7printlnEPKc) for i._ZN5Print7printlnEPKc
    print.o(.ARM.exidx) refers to print.o(i._ZN5Print7printlnEc) for i._ZN5Print7printlnEc
    print.o(.ARM.exidx) refers to print.o(i._ZN5Print7printlnEhi) for i._ZN5Print7printlnEhi
    print.o(.ARM.exidx) refers to print.o(i._ZN5Print7printlnEii) for i._ZN5Print7printlnEii
    print.o(.ARM.exidx) refers to print.o(i._ZN5Print7printlnEji) for i._ZN5Print7printlnEji
    print.o(.ARM.exidx) refers to print.o(i._ZN5Print7printlnEli) for i._ZN5Print7printlnEli
    print.o(.ARM.exidx) refers to print.o(i._ZN5Print7printlnEmi) for i._ZN5Print7printlnEmi
    print.o(.ARM.exidx) refers to print.o(i._ZN5Print7printlnEdi) for i._ZN5Print7printlnEdi
    print.o(.ARM.exidx) refers to print.o(i._ZN5Print7printlnERK9Printable) for i._ZN5Print7printlnERK9Printable
    stm32f4xx_hal_adc.o(i.HAL_ADC_ConfigChannel) refers to system_stm32f4xx.o(.data) for SystemCoreClock
    stm32f4xx_hal_adc.o(i.HAL_ADC_DeInit) refers to stm32f4xx_hal_adc.o(i.HAL_ADC_MspDeInit) for HAL_ADC_MspDeInit
    stm32f4xx_hal_adc.o(i.HAL_ADC_IRQHandler) refers to stm32f4xx_hal_adc.o(i.HAL_ADC_ConvCpltCallback) for HAL_ADC_ConvCpltCallback
    stm32f4xx_hal_adc.o(i.HAL_ADC_IRQHandler) refers to stm32f4xx_hal_adc_ex.o(i.HAL_ADCEx_InjectedConvCpltCallback) for HAL_ADCEx_InjectedConvCpltCallback
    stm32f4xx_hal_adc.o(i.HAL_ADC_IRQHandler) refers to stm32f4xx_hal_adc.o(i.HAL_ADC_LevelOutOfWindowCallback) for HAL_ADC_LevelOutOfWindowCallback
    stm32f4xx_hal_adc.o(i.HAL_ADC_IRQHandler) refers to stm32f4xx_hal_adc.o(i.HAL_ADC_ErrorCallback) for HAL_ADC_ErrorCallback
    stm32f4xx_hal_adc.o(i.HAL_ADC_Init) refers to stm32f4xx_hal_adc.o(i.HAL_ADC_MspInit) for HAL_ADC_MspInit
    stm32f4xx_hal_adc.o(i.HAL_ADC_Init) refers to stm32f4xx_hal_adc.o(i._Z8ADC_InitP17ADC_HandleTypeDef) for ADC_Init(ADC_HandleTypeDef*)
    stm32f4xx_hal_adc.o(i.HAL_ADC_PollForConversion) refers to stm32f4xx_hal.o(i.HAL_GetTick) for HAL_GetTick
    stm32f4xx_hal_adc.o(i.HAL_ADC_PollForEvent) refers to stm32f4xx_hal.o(i.HAL_GetTick) for HAL_GetTick
    stm32f4xx_hal_adc.o(i.HAL_ADC_Start) refers to system_stm32f4xx.o(.data) for SystemCoreClock
    stm32f4xx_hal_adc.o(i.HAL_ADC_Start_DMA) refers to stm32f4xx_hal_dma.o(i.HAL_DMA_Start_IT) for HAL_DMA_Start_IT
    stm32f4xx_hal_adc.o(i.HAL_ADC_Start_DMA) refers to stm32f4xx_hal_adc.o(i._Z15ADC_DMAConvCpltP19__DMA_HandleTypeDef) for ADC_DMAConvCplt(__DMA_HandleTypeDef*)
    stm32f4xx_hal_adc.o(i.HAL_ADC_Start_DMA) refers to stm32f4xx_hal_adc.o(i._Z19ADC_DMAHalfConvCpltP19__DMA_HandleTypeDef) for ADC_DMAHalfConvCplt(__DMA_HandleTypeDef*)
    stm32f4xx_hal_adc.o(i.HAL_ADC_Start_DMA) refers to stm32f4xx_hal_adc.o(i._Z12ADC_DMAErrorP19__DMA_HandleTypeDef) for ADC_DMAError(__DMA_HandleTypeDef*)
    stm32f4xx_hal_adc.o(i.HAL_ADC_Start_DMA) refers to system_stm32f4xx.o(.data) for SystemCoreClock
    stm32f4xx_hal_adc.o(i.HAL_ADC_Start_IT) refers to system_stm32f4xx.o(.data) for SystemCoreClock
    stm32f4xx_hal_adc.o(i.HAL_ADC_Stop_DMA) refers to stm32f4xx_hal_dma.o(i.HAL_DMA_Abort) for HAL_DMA_Abort
    stm32f4xx_hal_adc.o(i._Z12ADC_DMAErrorP19__DMA_HandleTypeDef) refers to stm32f4xx_hal_adc.o(i.HAL_ADC_ErrorCallback) for HAL_ADC_ErrorCallback
    stm32f4xx_hal_adc.o(i._Z15ADC_DMAConvCpltP19__DMA_HandleTypeDef) refers to stm32f4xx_hal_adc.o(i.HAL_ADC_ConvCpltCallback) for HAL_ADC_ConvCpltCallback
    stm32f4xx_hal_adc.o(i._Z19ADC_DMAHalfConvCpltP19__DMA_HandleTypeDef) refers to stm32f4xx_hal_adc.o(i.HAL_ADC_ConvHalfCpltCallback) for HAL_ADC_ConvHalfCpltCallback
    stm32f4xx_hal_adc.o(.ARM.exidx) refers to stm32f4xx_hal_adc.o(i._Z8ADC_InitP17ADC_HandleTypeDef) for i._Z8ADC_InitP17ADC_HandleTypeDef
    stm32f4xx_hal_adc.o(.ARM.exidx) refers to stm32f4xx_hal_adc.o(i.HAL_ADC_MspInit) for i.HAL_ADC_MspInit
    stm32f4xx_hal_adc.o(.ARM.exidx) refers to stm32f4xx_hal_adc.o(i.HAL_ADC_Init) for i.HAL_ADC_Init
    stm32f4xx_hal_adc.o(.ARM.exidx) refers to stm32f4xx_hal_adc.o(i.HAL_ADC_MspDeInit) for i.HAL_ADC_MspDeInit
    stm32f4xx_hal_adc.o(.ARM.exidx) refers to stm32f4xx_hal_adc.o(i.HAL_ADC_DeInit) for i.HAL_ADC_DeInit
    stm32f4xx_hal_adc.o(.ARM.exidx) refers to stm32f4xx_hal_adc.o(i.HAL_ADC_Start) for i.HAL_ADC_Start
    stm32f4xx_hal_adc.o(.ARM.exidx) refers to stm32f4xx_hal_adc.o(i.HAL_ADC_Stop) for i.HAL_ADC_Stop
    stm32f4xx_hal_adc.o(.ARM.exidx) refers to stm32f4xx_hal_adc.o(i.HAL_ADC_PollForConversion) for i.HAL_ADC_PollForConversion
    stm32f4xx_hal_adc.o(.ARM.exidx) refers to stm32f4xx_hal_adc.o(i.HAL_ADC_PollForEvent) for i.HAL_ADC_PollForEvent
    stm32f4xx_hal_adc.o(.ARM.exidx) refers to stm32f4xx_hal_adc.o(i.HAL_ADC_Start_IT) for i.HAL_ADC_Start_IT
    stm32f4xx_hal_adc.o(.ARM.exidx) refers to stm32f4xx_hal_adc.o(i.HAL_ADC_Stop_IT) for i.HAL_ADC_Stop_IT
    stm32f4xx_hal_adc.o(.ARM.exidx) refers to stm32f4xx_hal_adc.o(i.HAL_ADC_ErrorCallback) for i.HAL_ADC_ErrorCallback
    stm32f4xx_hal_adc.o(.ARM.exidx) refers to stm32f4xx_hal_adc.o(i.HAL_ADC_LevelOutOfWindowCallback) for i.HAL_ADC_LevelOutOfWindowCallback
    stm32f4xx_hal_adc.o(.ARM.exidx) refers to stm32f4xx_hal_adc.o(i.HAL_ADC_ConvCpltCallback) for i.HAL_ADC_ConvCpltCallback
    stm32f4xx_hal_adc.o(.ARM.exidx) refers to stm32f4xx_hal_adc.o(i.HAL_ADC_IRQHandler) for i.HAL_ADC_IRQHandler
    stm32f4xx_hal_adc.o(.ARM.exidx) refers to stm32f4xx_hal_adc.o(i._Z12ADC_DMAErrorP19__DMA_HandleTypeDef) for i._Z12ADC_DMAErrorP19__DMA_HandleTypeDef
    stm32f4xx_hal_adc.o(.ARM.exidx) refers to stm32f4xx_hal_adc.o(i.HAL_ADC_ConvHalfCpltCallback) for i.HAL_ADC_ConvHalfCpltCallback
    stm32f4xx_hal_adc.o(.ARM.exidx) refers to stm32f4xx_hal_adc.o(i._Z19ADC_DMAHalfConvCpltP19__DMA_HandleTypeDef) for i._Z19ADC_DMAHalfConvCpltP19__DMA_HandleTypeDef
    stm32f4xx_hal_adc.o(.ARM.exidx) refers to stm32f4xx_hal_adc.o(i._Z15ADC_DMAConvCpltP19__DMA_HandleTypeDef) for i._Z15ADC_DMAConvCpltP19__DMA_HandleTypeDef
    stm32f4xx_hal_adc.o(.ARM.exidx) refers to stm32f4xx_hal_adc.o(i.HAL_ADC_Start_DMA) for i.HAL_ADC_Start_DMA
    stm32f4xx_hal_adc.o(.ARM.exidx) refers to stm32f4xx_hal_adc.o(i.HAL_ADC_Stop_DMA) for i.HAL_ADC_Stop_DMA
    stm32f4xx_hal_adc.o(.ARM.exidx) refers to stm32f4xx_hal_adc.o(i.HAL_ADC_GetValue) for i.HAL_ADC_GetValue
    stm32f4xx_hal_adc.o(.ARM.exidx) refers to stm32f4xx_hal_adc.o(i.HAL_ADC_ConfigChannel) for i.HAL_ADC_ConfigChannel
    stm32f4xx_hal_adc.o(.ARM.exidx) refers to stm32f4xx_hal_adc.o(i.HAL_ADC_AnalogWDGConfig) for i.HAL_ADC_AnalogWDGConfig
    stm32f4xx_hal_adc.o(.ARM.exidx) refers to stm32f4xx_hal_adc.o(i.HAL_ADC_GetState) for i.HAL_ADC_GetState
    stm32f4xx_hal_adc.o(.ARM.exidx) refers to stm32f4xx_hal_adc.o(i.HAL_ADC_GetError) for i.HAL_ADC_GetError
    stm32f4xx_hal_uart.o(i.HAL_HalfDuplex_Init) refers to stm32f4xx_hal_uart.o(i.HAL_UART_MspInit) for HAL_UART_MspInit
    stm32f4xx_hal_uart.o(i.HAL_HalfDuplex_Init) refers to stm32f4xx_hal_uart.o(i._Z14UART_SetConfigP18UART_HandleTypeDef) for UART_SetConfig(UART_HandleTypeDef*)
    stm32f4xx_hal_uart.o(i.HAL_LIN_Init) refers to stm32f4xx_hal_uart.o(i.HAL_UART_MspInit) for HAL_UART_MspInit
    stm32f4xx_hal_uart.o(i.HAL_LIN_Init) refers to stm32f4xx_hal_uart.o(i._Z14UART_SetConfigP18UART_HandleTypeDef) for UART_SetConfig(UART_HandleTypeDef*)
    stm32f4xx_hal_uart.o(i.HAL_MultiProcessor_Init) refers to stm32f4xx_hal_uart.o(i.HAL_UART_MspInit) for HAL_UART_MspInit
    stm32f4xx_hal_uart.o(i.HAL_MultiProcessor_Init) refers to stm32f4xx_hal_uart.o(i._Z14UART_SetConfigP18UART_HandleTypeDef) for UART_SetConfig(UART_HandleTypeDef*)
    stm32f4xx_hal_uart.o(i.HAL_UART_Abort) refers to stm32f4xx_hal_dma.o(i.HAL_DMA_Abort) for HAL_DMA_Abort
    stm32f4xx_hal_uart.o(i.HAL_UART_AbortReceive) refers to stm32f4xx_hal_dma.o(i.HAL_DMA_Abort) for HAL_DMA_Abort
    stm32f4xx_hal_uart.o(i.HAL_UART_AbortReceive_IT) refers to stm32f4xx_hal_dma.o(i.HAL_DMA_Abort_IT) for HAL_DMA_Abort_IT
    stm32f4xx_hal_uart.o(i.HAL_UART_AbortReceive_IT) refers to stm32f4xx_hal_uart.o(i.HAL_UART_AbortReceiveCpltCallback) for HAL_UART_AbortReceiveCpltCallback
    stm32f4xx_hal_uart.o(i.HAL_UART_AbortReceive_IT) refers to stm32f4xx_hal_uart.o(i._Z27UART_DMARxOnlyAbortCallbackP19__DMA_HandleTypeDef) for UART_DMARxOnlyAbortCallback(__DMA_HandleTypeDef*)
    stm32f4xx_hal_uart.o(i.HAL_UART_AbortTransmit) refers to stm32f4xx_hal_dma.o(i.HAL_DMA_Abort) for HAL_DMA_Abort
    stm32f4xx_hal_uart.o(i.HAL_UART_AbortTransmit_IT) refers to stm32f4xx_hal_dma.o(i.HAL_DMA_Abort_IT) for HAL_DMA_Abort_IT
    stm32f4xx_hal_uart.o(i.HAL_UART_AbortTransmit_IT) refers to stm32f4xx_hal_uart.o(i.HAL_UART_AbortTransmitCpltCallback) for HAL_UART_AbortTransmitCpltCallback
    stm32f4xx_hal_uart.o(i.HAL_UART_AbortTransmit_IT) refers to stm32f4xx_hal_uart.o(i._Z27UART_DMATxOnlyAbortCallbackP19__DMA_HandleTypeDef) for UART_DMATxOnlyAbortCallback(__DMA_HandleTypeDef*)
    stm32f4xx_hal_uart.o(i.HAL_UART_Abort_IT) refers to stm32f4xx_hal_dma.o(i.HAL_DMA_Abort_IT) for HAL_DMA_Abort_IT
    stm32f4xx_hal_uart.o(i.HAL_UART_Abort_IT) refers to stm32f4xx_hal_uart.o(i.HAL_UART_AbortCpltCallback) for HAL_UART_AbortCpltCallback
    stm32f4xx_hal_uart.o(i.HAL_UART_Abort_IT) refers to stm32f4xx_hal_uart.o(i._Z23UART_DMATxAbortCallbackP19__DMA_HandleTypeDef) for UART_DMATxAbortCallback(__DMA_HandleTypeDef*)
    stm32f4xx_hal_uart.o(i.HAL_UART_Abort_IT) refers to stm32f4xx_hal_uart.o(i._Z23UART_DMARxAbortCallbackP19__DMA_HandleTypeDef) for UART_DMARxAbortCallback(__DMA_HandleTypeDef*)
    stm32f4xx_hal_uart.o(i.HAL_UART_DMAStop) refers to stm32f4xx_hal_dma.o(i.HAL_DMA_Abort) for HAL_DMA_Abort
    stm32f4xx_hal_uart.o(i.HAL_UART_DMAStop) refers to stm32f4xx_hal_uart.o(i._Z18UART_EndTxTransferP18UART_HandleTypeDef) for UART_EndTxTransfer(UART_HandleTypeDef*)
    stm32f4xx_hal_uart.o(i.HAL_UART_DMAStop) refers to stm32f4xx_hal_uart.o(i._Z18UART_EndRxTransferP18UART_HandleTypeDef) for UART_EndRxTransfer(UART_HandleTypeDef*)
    stm32f4xx_hal_uart.o(i.HAL_UART_DMA_Tx_Stop) refers to stm32f4xx_hal_dma.o(i.HAL_DMA_Abort) for HAL_DMA_Abort
    stm32f4xx_hal_uart.o(i.HAL_UART_DMA_Tx_Stop) refers to stm32f4xx_hal_uart.o(i._Z18UART_EndTxTransferP18UART_HandleTypeDef) for UART_EndTxTransfer(UART_HandleTypeDef*)
    stm32f4xx_hal_uart.o(i.HAL_UART_DeInit) refers to stm32f4xx_hal_uart.o(i.HAL_UART_MspDeInit) for HAL_UART_MspDeInit
    stm32f4xx_hal_uart.o(i.HAL_UART_IRQHandler) refers to stm32f4xx_hal_uart.o(i._Z15UART_Receive_ITP18UART_HandleTypeDef) for UART_Receive_IT(UART_HandleTypeDef*)
    stm32f4xx_hal_uart.o(i.HAL_UART_IRQHandler) refers to stm32f4xx_hal_uart.o(i._Z18UART_EndRxTransferP18UART_HandleTypeDef) for UART_EndRxTransfer(UART_HandleTypeDef*)
    stm32f4xx_hal_uart.o(i.HAL_UART_IRQHandler) refers to stm32f4xx_hal_dma.o(i.HAL_DMA_Abort_IT) for HAL_DMA_Abort_IT
    stm32f4xx_hal_uart.o(i.HAL_UART_IRQHandler) refers to stm32f4xx_hal_uart.o(i.HAL_UART_ErrorCallback) for HAL_UART_ErrorCallback
    stm32f4xx_hal_uart.o(i.HAL_UART_IRQHandler) refers to stm32f4xx_hal_uart.o(i._Z16UART_Transmit_ITP18UART_HandleTypeDef) for UART_Transmit_IT(UART_HandleTypeDef*)
    stm32f4xx_hal_uart.o(i.HAL_UART_IRQHandler) refers to main.o(i.HAL_UART_TxCpltCallback) for HAL_UART_TxCpltCallback
    stm32f4xx_hal_uart.o(i.HAL_UART_IRQHandler) refers to stm32f4xx_hal_uart.o(i._Z20UART_DMAAbortOnErrorP19__DMA_HandleTypeDef) for UART_DMAAbortOnError(__DMA_HandleTypeDef*)
    stm32f4xx_hal_uart.o(i.HAL_UART_Init) refers to stm32f4xx_hal_uart.o(i.HAL_UART_MspInit) for HAL_UART_MspInit
    stm32f4xx_hal_uart.o(i.HAL_UART_Init) refers to stm32f4xx_hal_uart.o(i._Z14UART_SetConfigP18UART_HandleTypeDef) for UART_SetConfig(UART_HandleTypeDef*)
    stm32f4xx_hal_uart.o(i.HAL_UART_Receive) refers to stm32f4xx_hal.o(i.HAL_GetTick) for HAL_GetTick
    stm32f4xx_hal_uart.o(i.HAL_UART_Receive) refers to stm32f4xx_hal_uart.o(i._Z27UART_WaitOnFlagUntilTimeoutP18UART_HandleTypeDefj10FlagStatusjj) for UART_WaitOnFlagUntilTimeout(UART_HandleTypeDef*, unsigned, FlagStatus, unsigned, unsigned)
    stm32f4xx_hal_uart.o(i.HAL_UART_Receive_DMA) refers to stm32f4xx_hal_dma.o(i.HAL_DMA_Start_IT) for HAL_DMA_Start_IT
    stm32f4xx_hal_uart.o(i.HAL_UART_Receive_DMA) refers to stm32f4xx_hal_uart.o(i._Z19UART_DMAReceiveCpltP19__DMA_HandleTypeDef) for UART_DMAReceiveCplt(__DMA_HandleTypeDef*)
    stm32f4xx_hal_uart.o(i.HAL_UART_Receive_DMA) refers to stm32f4xx_hal_uart.o(i._Z18UART_DMARxHalfCpltP19__DMA_HandleTypeDef) for UART_DMARxHalfCplt(__DMA_HandleTypeDef*)
    stm32f4xx_hal_uart.o(i.HAL_UART_Receive_DMA) refers to stm32f4xx_hal_uart.o(i._Z13UART_DMAErrorP19__DMA_HandleTypeDef) for UART_DMAError(__DMA_HandleTypeDef*)
    stm32f4xx_hal_uart.o(i.HAL_UART_Transmit) refers to stm32f4xx_hal.o(i.HAL_GetTick) for HAL_GetTick
    stm32f4xx_hal_uart.o(i.HAL_UART_Transmit) refers to stm32f4xx_hal_uart.o(i._Z27UART_WaitOnFlagUntilTimeoutP18UART_HandleTypeDefj10FlagStatusjj) for UART_WaitOnFlagUntilTimeout(UART_HandleTypeDef*, unsigned, FlagStatus, unsigned, unsigned)
    stm32f4xx_hal_uart.o(i.HAL_UART_Transmit_DMA) refers to stm32f4xx_hal_dma.o(i.HAL_DMA_Start_IT) for HAL_DMA_Start_IT
    stm32f4xx_hal_uart.o(i.HAL_UART_Transmit_DMA) refers to stm32f4xx_hal_uart.o(i._Z20UART_DMATransmitCpltP19__DMA_HandleTypeDef) for UART_DMATransmitCplt(__DMA_HandleTypeDef*)
    stm32f4xx_hal_uart.o(i.HAL_UART_Transmit_DMA) refers to stm32f4xx_hal_uart.o(i._Z18UART_DMATxHalfCpltP19__DMA_HandleTypeDef) for UART_DMATxHalfCplt(__DMA_HandleTypeDef*)
    stm32f4xx_hal_uart.o(i.HAL_UART_Transmit_DMA) refers to stm32f4xx_hal_uart.o(i._Z13UART_DMAErrorP19__DMA_HandleTypeDef) for UART_DMAError(__DMA_HandleTypeDef*)
    stm32f4xx_hal_uart.o(i._Z13UART_DMAErrorP19__DMA_HandleTypeDef) refers to stm32f4xx_hal_uart.o(i._Z18UART_EndTxTransferP18UART_HandleTypeDef) for UART_EndTxTransfer(UART_HandleTypeDef*)
    stm32f4xx_hal_uart.o(i._Z13UART_DMAErrorP19__DMA_HandleTypeDef) refers to stm32f4xx_hal_uart.o(i._Z18UART_EndRxTransferP18UART_HandleTypeDef) for UART_EndRxTransfer(UART_HandleTypeDef*)
    stm32f4xx_hal_uart.o(i._Z13UART_DMAErrorP19__DMA_HandleTypeDef) refers to stm32f4xx_hal_uart.o(i.HAL_UART_ErrorCallback) for HAL_UART_ErrorCallback
    stm32f4xx_hal_uart.o(i._Z14UART_SetConfigP18UART_HandleTypeDef) refers to stm32f4xx_hal_rcc.o(i.HAL_RCC_GetPCLK2Freq) for HAL_RCC_GetPCLK2Freq
    stm32f4xx_hal_uart.o(i._Z14UART_SetConfigP18UART_HandleTypeDef) refers to stm32f4xx_hal_rcc.o(i.HAL_RCC_GetPCLK1Freq) for HAL_RCC_GetPCLK1Freq
    stm32f4xx_hal_uart.o(i._Z15UART_Receive_ITP18UART_HandleTypeDef) refers to main.o(i.HAL_UART_RxCpltCallback) for HAL_UART_RxCpltCallback
    stm32f4xx_hal_uart.o(i._Z18UART_DMARxHalfCpltP19__DMA_HandleTypeDef) refers to stm32f4xx_hal_uart.o(i.HAL_UART_RxHalfCpltCallback) for HAL_UART_RxHalfCpltCallback
    stm32f4xx_hal_uart.o(i._Z18UART_DMATxHalfCpltP19__DMA_HandleTypeDef) refers to stm32f4xx_hal_uart.o(i.HAL_UART_TxHalfCpltCallback) for HAL_UART_TxHalfCpltCallback
    stm32f4xx_hal_uart.o(i._Z19UART_DMAReceiveCpltP19__DMA_HandleTypeDef) refers to main.o(i.HAL_UART_RxCpltCallback) for HAL_UART_RxCpltCallback
    stm32f4xx_hal_uart.o(i._Z20UART_DMAAbortOnErrorP19__DMA_HandleTypeDef) refers to stm32f4xx_hal_uart.o(i.HAL_UART_ErrorCallback) for HAL_UART_ErrorCallback
    stm32f4xx_hal_uart.o(i._Z20UART_DMATransmitCpltP19__DMA_HandleTypeDef) refers to main.o(i.HAL_UART_TxCpltCallback) for HAL_UART_TxCpltCallback
    stm32f4xx_hal_uart.o(i._Z23UART_DMARxAbortCallbackP19__DMA_HandleTypeDef) refers to stm32f4xx_hal_uart.o(i.HAL_UART_AbortCpltCallback) for HAL_UART_AbortCpltCallback
    stm32f4xx_hal_uart.o(i._Z23UART_DMATxAbortCallbackP19__DMA_HandleTypeDef) refers to stm32f4xx_hal_uart.o(i.HAL_UART_AbortCpltCallback) for HAL_UART_AbortCpltCallback
    stm32f4xx_hal_uart.o(i._Z27UART_DMARxOnlyAbortCallbackP19__DMA_HandleTypeDef) refers to stm32f4xx_hal_uart.o(i.HAL_UART_AbortReceiveCpltCallback) for HAL_UART_AbortReceiveCpltCallback
    stm32f4xx_hal_uart.o(i._Z27UART_DMATxOnlyAbortCallbackP19__DMA_HandleTypeDef) refers to stm32f4xx_hal_uart.o(i.HAL_UART_AbortTransmitCpltCallback) for HAL_UART_AbortTransmitCpltCallback
    stm32f4xx_hal_uart.o(i._Z27UART_WaitOnFlagUntilTimeoutP18UART_HandleTypeDefj10FlagStatusjj) refers to stm32f4xx_hal.o(i.HAL_GetTick) for HAL_GetTick
    stm32f4xx_hal_uart.o(.ARM.exidx) refers to stm32f4xx_hal_uart.o(i._Z14UART_SetConfigP18UART_HandleTypeDef) for i._Z14UART_SetConfigP18UART_HandleTypeDef
    stm32f4xx_hal_uart.o(.ARM.exidx) refers to stm32f4xx_hal_uart.o(i.HAL_UART_MspInit) for i.HAL_UART_MspInit
    stm32f4xx_hal_uart.o(.ARM.exidx) refers to stm32f4xx_hal_uart.o(i.HAL_UART_Init) for i.HAL_UART_Init
    stm32f4xx_hal_uart.o(.ARM.exidx) refers to stm32f4xx_hal_uart.o(i.HAL_HalfDuplex_Init) for i.HAL_HalfDuplex_Init
    stm32f4xx_hal_uart.o(.ARM.exidx) refers to stm32f4xx_hal_uart.o(i.HAL_LIN_Init) for i.HAL_LIN_Init
    stm32f4xx_hal_uart.o(.ARM.exidx) refers to stm32f4xx_hal_uart.o(i.HAL_MultiProcessor_Init) for i.HAL_MultiProcessor_Init
    stm32f4xx_hal_uart.o(.ARM.exidx) refers to stm32f4xx_hal_uart.o(i.HAL_UART_MspDeInit) for i.HAL_UART_MspDeInit
    stm32f4xx_hal_uart.o(.ARM.exidx) refers to stm32f4xx_hal_uart.o(i.HAL_UART_DeInit) for i.HAL_UART_DeInit
    stm32f4xx_hal_uart.o(.ARM.exidx) refers to stm32f4xx_hal_uart.o(i._Z27UART_WaitOnFlagUntilTimeoutP18UART_HandleTypeDefj10FlagStatusjj) for i._Z27UART_WaitOnFlagUntilTimeoutP18UART_HandleTypeDefj10FlagStatusjj
    stm32f4xx_hal_uart.o(.ARM.exidx) refers to stm32f4xx_hal_uart.o(i.HAL_UART_Transmit) for i.HAL_UART_Transmit
    stm32f4xx_hal_uart.o(.ARM.exidx) refers to stm32f4xx_hal_uart.o(i.HAL_UART_Receive) for i.HAL_UART_Receive
    stm32f4xx_hal_uart.o(.ARM.exidx) refers to stm32f4xx_hal_uart.o(i.HAL_UART_Transmit_IT) for i.HAL_UART_Transmit_IT
    stm32f4xx_hal_uart.o(.ARM.exidx) refers to stm32f4xx_hal_uart.o(i.HAL_UART_Receive_IT) for i.HAL_UART_Receive_IT
    stm32f4xx_hal_uart.o(.ARM.exidx) refers to stm32f4xx_hal_uart.o(i.HAL_UART_ErrorCallback) for i.HAL_UART_ErrorCallback
    stm32f4xx_hal_uart.o(.ARM.exidx) refers to stm32f4xx_hal_uart.o(i._Z13UART_DMAErrorP19__DMA_HandleTypeDef) for i._Z13UART_DMAErrorP19__DMA_HandleTypeDef
    stm32f4xx_hal_uart.o(.ARM.exidx) refers to stm32f4xx_hal_uart.o(i.HAL_UART_TxHalfCpltCallback) for i.HAL_UART_TxHalfCpltCallback
    stm32f4xx_hal_uart.o(.ARM.exidx) refers to stm32f4xx_hal_uart.o(i._Z18UART_DMATxHalfCpltP19__DMA_HandleTypeDef) for i._Z18UART_DMATxHalfCpltP19__DMA_HandleTypeDef
    stm32f4xx_hal_uart.o(.ARM.exidx) refers to stm32f4xx_hal_uart.o(i.HAL_UART_TxCpltCallback) for i.HAL_UART_TxCpltCallback
    stm32f4xx_hal_uart.o(.ARM.exidx) refers to stm32f4xx_hal_uart.o(i._Z20UART_DMATransmitCpltP19__DMA_HandleTypeDef) for i._Z20UART_DMATransmitCpltP19__DMA_HandleTypeDef
    stm32f4xx_hal_uart.o(.ARM.exidx) refers to stm32f4xx_hal_uart.o(i.HAL_UART_Transmit_DMA) for i.HAL_UART_Transmit_DMA
    stm32f4xx_hal_uart.o(.ARM.exidx) refers to stm32f4xx_hal_uart.o(i.HAL_UART_RxHalfCpltCallback) for i.HAL_UART_RxHalfCpltCallback
    stm32f4xx_hal_uart.o(.ARM.exidx) refers to stm32f4xx_hal_uart.o(i._Z18UART_DMARxHalfCpltP19__DMA_HandleTypeDef) for i._Z18UART_DMARxHalfCpltP19__DMA_HandleTypeDef
    stm32f4xx_hal_uart.o(.ARM.exidx) refers to stm32f4xx_hal_uart.o(i.HAL_UART_RxCpltCallback) for i.HAL_UART_RxCpltCallback
    stm32f4xx_hal_uart.o(.ARM.exidx) refers to stm32f4xx_hal_uart.o(i._Z19UART_DMAReceiveCpltP19__DMA_HandleTypeDef) for i._Z19UART_DMAReceiveCpltP19__DMA_HandleTypeDef
    stm32f4xx_hal_uart.o(.ARM.exidx) refers to stm32f4xx_hal_uart.o(i.HAL_UART_Receive_DMA) for i.HAL_UART_Receive_DMA
    stm32f4xx_hal_uart.o(.ARM.exidx) refers to stm32f4xx_hal_uart.o(i.HAL_UART_DMAPause) for i.HAL_UART_DMAPause
    stm32f4xx_hal_uart.o(.ARM.exidx) refers to stm32f4xx_hal_uart.o(i.HAL_UART_DMAResume) for i.HAL_UART_DMAResume
    stm32f4xx_hal_uart.o(.ARM.exidx) refers to stm32f4xx_hal_uart.o(i.HAL_UART_DMA_Tx_Stop) for i.HAL_UART_DMA_Tx_Stop
    stm32f4xx_hal_uart.o(.ARM.exidx) refers to stm32f4xx_hal_uart.o(i.HAL_UART_DMAStop) for i.HAL_UART_DMAStop
    stm32f4xx_hal_uart.o(.ARM.exidx) refers to stm32f4xx_hal_uart.o(i.HAL_UART_Abort) for i.HAL_UART_Abort
    stm32f4xx_hal_uart.o(.ARM.exidx) refers to stm32f4xx_hal_uart.o(i.HAL_UART_AbortTransmit) for i.HAL_UART_AbortTransmit
    stm32f4xx_hal_uart.o(.ARM.exidx) refers to stm32f4xx_hal_uart.o(i.HAL_UART_AbortReceive) for i.HAL_UART_AbortReceive
    stm32f4xx_hal_uart.o(.ARM.exidx) refers to stm32f4xx_hal_uart.o(i.HAL_UART_AbortCpltCallback) for i.HAL_UART_AbortCpltCallback
    stm32f4xx_hal_uart.o(.ARM.exidx) refers to stm32f4xx_hal_uart.o(i._Z23UART_DMARxAbortCallbackP19__DMA_HandleTypeDef) for i._Z23UART_DMARxAbortCallbackP19__DMA_HandleTypeDef
    stm32f4xx_hal_uart.o(.ARM.exidx) refers to stm32f4xx_hal_uart.o(i._Z23UART_DMATxAbortCallbackP19__DMA_HandleTypeDef) for i._Z23UART_DMATxAbortCallbackP19__DMA_HandleTypeDef
    stm32f4xx_hal_uart.o(.ARM.exidx) refers to stm32f4xx_hal_uart.o(i.HAL_UART_Abort_IT) for i.HAL_UART_Abort_IT
    stm32f4xx_hal_uart.o(.ARM.exidx) refers to stm32f4xx_hal_uart.o(i.HAL_UART_AbortTransmitCpltCallback) for i.HAL_UART_AbortTransmitCpltCallback
    stm32f4xx_hal_uart.o(.ARM.exidx) refers to stm32f4xx_hal_uart.o(i._Z27UART_DMATxOnlyAbortCallbackP19__DMA_HandleTypeDef) for i._Z27UART_DMATxOnlyAbortCallbackP19__DMA_HandleTypeDef
    stm32f4xx_hal_uart.o(.ARM.exidx) refers to stm32f4xx_hal_uart.o(i.HAL_UART_AbortTransmit_IT) for i.HAL_UART_AbortTransmit_IT
    stm32f4xx_hal_uart.o(.ARM.exidx) refers to stm32f4xx_hal_uart.o(i.HAL_UART_AbortReceiveCpltCallback) for i.HAL_UART_AbortReceiveCpltCallback
    stm32f4xx_hal_uart.o(.ARM.exidx) refers to stm32f4xx_hal_uart.o(i._Z27UART_DMARxOnlyAbortCallbackP19__DMA_HandleTypeDef) for i._Z27UART_DMARxOnlyAbortCallbackP19__DMA_HandleTypeDef
    stm32f4xx_hal_uart.o(.ARM.exidx) refers to stm32f4xx_hal_uart.o(i.HAL_UART_AbortReceive_IT) for i.HAL_UART_AbortReceive_IT
    stm32f4xx_hal_uart.o(.ARM.exidx) refers to stm32f4xx_hal_uart.o(i._Z20UART_DMAAbortOnErrorP19__DMA_HandleTypeDef) for i._Z20UART_DMAAbortOnErrorP19__DMA_HandleTypeDef
    stm32f4xx_hal_uart.o(.ARM.exidx) refers to stm32f4xx_hal_uart.o(i._Z15UART_Receive_ITP18UART_HandleTypeDef) for i._Z15UART_Receive_ITP18UART_HandleTypeDef
    stm32f4xx_hal_uart.o(.ARM.exidx) refers to stm32f4xx_hal_uart.o(i.HAL_UART_IRQHandler) for i.HAL_UART_IRQHandler
    stm32f4xx_hal_uart.o(.ARM.exidx) refers to stm32f4xx_hal_uart.o(i.HAL_LIN_SendBreak) for i.HAL_LIN_SendBreak
    stm32f4xx_hal_uart.o(.ARM.exidx) refers to stm32f4xx_hal_uart.o(i.HAL_MultiProcessor_EnterMuteMode) for i.HAL_MultiProcessor_EnterMuteMode
    stm32f4xx_hal_uart.o(.ARM.exidx) refers to stm32f4xx_hal_uart.o(i.HAL_MultiProcessor_ExitMuteMode) for i.HAL_MultiProcessor_ExitMuteMode
    stm32f4xx_hal_uart.o(.ARM.exidx) refers to stm32f4xx_hal_uart.o(i.HAL_HalfDuplex_EnableTransmitter) for i.HAL_HalfDuplex_EnableTransmitter
    stm32f4xx_hal_uart.o(.ARM.exidx) refers to stm32f4xx_hal_uart.o(i.HAL_HalfDuplex_EnableReceiver) for i.HAL_HalfDuplex_EnableReceiver
    stm32f4xx_hal_uart.o(.ARM.exidx) refers to stm32f4xx_hal_uart.o(i.HAL_UART_GetState) for i.HAL_UART_GetState
    stm32f4xx_hal_uart.o(.ARM.exidx) refers to stm32f4xx_hal_uart.o(i.HAL_UART_GetError) for i.HAL_UART_GetError
    stm32f4xx_hal_uart.o(.ARM.exidx) refers to stm32f4xx_hal_uart.o(i._Z18UART_EndRxTransferP18UART_HandleTypeDef) for i._Z18UART_EndRxTransferP18UART_HandleTypeDef
    stm32f4xx_hal_uart.o(.ARM.exidx) refers to stm32f4xx_hal_uart.o(i._Z18UART_EndTxTransferP18UART_HandleTypeDef) for i._Z18UART_EndTxTransferP18UART_HandleTypeDef
    stm32f4xx_hal_uart.o(.ARM.exidx) refers to stm32f4xx_hal_uart.o(i._Z16UART_Transmit_ITP18UART_HandleTypeDef) for i._Z16UART_Transmit_ITP18UART_HandleTypeDef
    stm32f4xx_hal_tim.o(i.HAL_TIM_Base_DeInit) refers to timer.o(i.HAL_TIM_Base_MspDeInit) for HAL_TIM_Base_MspDeInit
    stm32f4xx_hal_tim.o(i.HAL_TIM_Base_Init) refers to timer.o(i.HAL_TIM_Base_MspInit) for HAL_TIM_Base_MspInit
    stm32f4xx_hal_tim.o(i.HAL_TIM_Base_Init) refers to stm32f4xx_hal_tim.o(i.TIM_Base_SetConfig) for TIM_Base_SetConfig
    stm32f4xx_hal_tim.o(i.HAL_TIM_Base_Start_DMA) refers to stm32f4xx_hal_dma.o(i.HAL_DMA_Start_IT) for HAL_DMA_Start_IT
    stm32f4xx_hal_tim.o(i.HAL_TIM_Base_Start_DMA) refers to stm32f4xx_hal_tim.o(i._Z24TIM_DMAPeriodElapsedCpltP19__DMA_HandleTypeDef) for TIM_DMAPeriodElapsedCplt(__DMA_HandleTypeDef*)
    stm32f4xx_hal_tim.o(i.HAL_TIM_Base_Start_DMA) refers to stm32f4xx_hal_tim.o(i.TIM_DMAError) for TIM_DMAError
    stm32f4xx_hal_tim.o(i.HAL_TIM_ConfigClockSource) refers to stm32f4xx_hal_tim.o(i._Z17TIM_ETR_SetConfigP11TIM_TypeDefjjj) for TIM_ETR_SetConfig(TIM_TypeDef*, unsigned, unsigned, unsigned)
    stm32f4xx_hal_tim.o(i.HAL_TIM_ConfigClockSource) refers to stm32f4xx_hal_tim.o(i._Z24TIM_TI1_ConfigInputStageP11TIM_TypeDefjj) for TIM_TI1_ConfigInputStage(TIM_TypeDef*, unsigned, unsigned)
    stm32f4xx_hal_tim.o(i.HAL_TIM_ConfigClockSource) refers to stm32f4xx_hal_tim.o(i._Z24TIM_TI2_ConfigInputStageP11TIM_TypeDefjj) for TIM_TI2_ConfigInputStage(TIM_TypeDef*, unsigned, unsigned)
    stm32f4xx_hal_tim.o(i.HAL_TIM_ConfigClockSource) refers to stm32f4xx_hal_tim.o(i._Z18TIM_ITRx_SetConfigP11TIM_TypeDeft) for TIM_ITRx_SetConfig(TIM_TypeDef*, unsigned short)
    stm32f4xx_hal_tim.o(i.HAL_TIM_ConfigOCrefClear) refers to stm32f4xx_hal_tim.o(i._Z17TIM_ETR_SetConfigP11TIM_TypeDefjjj) for TIM_ETR_SetConfig(TIM_TypeDef*, unsigned, unsigned, unsigned)
    stm32f4xx_hal_tim.o(i.HAL_TIM_DMABurst_ReadStart) refers to stm32f4xx_hal_dma.o(i.HAL_DMA_Start_IT) for HAL_DMA_Start_IT
    stm32f4xx_hal_tim.o(i.HAL_TIM_DMABurst_ReadStart) refers to stm32f4xx_hal_tim.o(i.TIM_DMAError) for TIM_DMAError
    stm32f4xx_hal_tim.o(i.HAL_TIM_DMABurst_ReadStart) refers to stm32f4xx_hal_tim.o(i.TIM_DMACaptureCplt) for TIM_DMACaptureCplt
    stm32f4xx_hal_tim.o(i.HAL_TIM_DMABurst_ReadStart) refers to stm32f4xx_hal_tim.o(i._Z24TIM_DMAPeriodElapsedCpltP19__DMA_HandleTypeDef) for TIM_DMAPeriodElapsedCplt(__DMA_HandleTypeDef*)
    stm32f4xx_hal_tim.o(i.HAL_TIM_DMABurst_ReadStart) refers to stm32f4xx_hal_tim_ex.o(i.TIMEx_DMACommutationCplt) for TIMEx_DMACommutationCplt
    stm32f4xx_hal_tim.o(i.HAL_TIM_DMABurst_ReadStart) refers to stm32f4xx_hal_tim.o(i._Z18TIM_DMATriggerCpltP19__DMA_HandleTypeDef) for TIM_DMATriggerCplt(__DMA_HandleTypeDef*)
    stm32f4xx_hal_tim.o(i.HAL_TIM_DMABurst_ReadStop) refers to stm32f4xx_hal_dma.o(i.HAL_DMA_Abort) for HAL_DMA_Abort
    stm32f4xx_hal_tim.o(i.HAL_TIM_DMABurst_WriteStart) refers to stm32f4xx_hal_dma.o(i.HAL_DMA_Start_IT) for HAL_DMA_Start_IT
    stm32f4xx_hal_tim.o(i.HAL_TIM_DMABurst_WriteStart) refers to stm32f4xx_hal_tim.o(i.TIM_DMAError) for TIM_DMAError
    stm32f4xx_hal_tim.o(i.HAL_TIM_DMABurst_WriteStart) refers to stm32f4xx_hal_tim.o(i.TIM_DMADelayPulseCplt) for TIM_DMADelayPulseCplt
    stm32f4xx_hal_tim.o(i.HAL_TIM_DMABurst_WriteStart) refers to stm32f4xx_hal_tim.o(i._Z24TIM_DMAPeriodElapsedCpltP19__DMA_HandleTypeDef) for TIM_DMAPeriodElapsedCplt(__DMA_HandleTypeDef*)
    stm32f4xx_hal_tim.o(i.HAL_TIM_DMABurst_WriteStart) refers to stm32f4xx_hal_tim_ex.o(i.TIMEx_DMACommutationCplt) for TIMEx_DMACommutationCplt
    stm32f4xx_hal_tim.o(i.HAL_TIM_DMABurst_WriteStart) refers to stm32f4xx_hal_tim.o(i._Z18TIM_DMATriggerCpltP19__DMA_HandleTypeDef) for TIM_DMATriggerCplt(__DMA_HandleTypeDef*)
    stm32f4xx_hal_tim.o(i.HAL_TIM_DMABurst_WriteStop) refers to stm32f4xx_hal_dma.o(i.HAL_DMA_Abort) for HAL_DMA_Abort
    stm32f4xx_hal_tim.o(i.HAL_TIM_Encoder_DeInit) refers to stm32f4xx_hal_tim.o(i.HAL_TIM_Encoder_MspDeInit) for HAL_TIM_Encoder_MspDeInit
    stm32f4xx_hal_tim.o(i.HAL_TIM_Encoder_Init) refers to stm32f4xx_hal_tim.o(i.HAL_TIM_Encoder_MspInit) for HAL_TIM_Encoder_MspInit
    stm32f4xx_hal_tim.o(i.HAL_TIM_Encoder_Init) refers to stm32f4xx_hal_tim.o(i.TIM_Base_SetConfig) for TIM_Base_SetConfig
    stm32f4xx_hal_tim.o(i.HAL_TIM_Encoder_Start) refers to stm32f4xx_hal_tim.o(i.TIM_CCxChannelCmd) for TIM_CCxChannelCmd
    stm32f4xx_hal_tim.o(i.HAL_TIM_Encoder_Start_DMA) refers to stm32f4xx_hal_dma.o(i.HAL_DMA_Start_IT) for HAL_DMA_Start_IT
    stm32f4xx_hal_tim.o(i.HAL_TIM_Encoder_Start_DMA) refers to stm32f4xx_hal_tim.o(i.TIM_CCxChannelCmd) for TIM_CCxChannelCmd
    stm32f4xx_hal_tim.o(i.HAL_TIM_Encoder_Start_DMA) refers to stm32f4xx_hal_tim.o(i.TIM_DMACaptureCplt) for TIM_DMACaptureCplt
    stm32f4xx_hal_tim.o(i.HAL_TIM_Encoder_Start_DMA) refers to stm32f4xx_hal_tim.o(i.TIM_DMAError) for TIM_DMAError
    stm32f4xx_hal_tim.o(i.HAL_TIM_Encoder_Start_IT) refers to stm32f4xx_hal_tim.o(i.TIM_CCxChannelCmd) for TIM_CCxChannelCmd
    stm32f4xx_hal_tim.o(i.HAL_TIM_Encoder_Stop) refers to stm32f4xx_hal_tim.o(i.TIM_CCxChannelCmd) for TIM_CCxChannelCmd
    stm32f4xx_hal_tim.o(i.HAL_TIM_Encoder_Stop_DMA) refers to stm32f4xx_hal_tim.o(i.TIM_CCxChannelCmd) for TIM_CCxChannelCmd
    stm32f4xx_hal_tim.o(i.HAL_TIM_Encoder_Stop_IT) refers to stm32f4xx_hal_tim.o(i.TIM_CCxChannelCmd) for TIM_CCxChannelCmd
    stm32f4xx_hal_tim.o(i.HAL_TIM_IC_ConfigChannel) refers to stm32f4xx_hal_tim.o(i.TIM_TI1_SetConfig) for TIM_TI1_SetConfig
    stm32f4xx_hal_tim.o(i.HAL_TIM_IC_ConfigChannel) refers to stm32f4xx_hal_tim.o(i._Z17TIM_TI2_SetConfigP11TIM_TypeDefjjj) for TIM_TI2_SetConfig(TIM_TypeDef*, unsigned, unsigned, unsigned)
    stm32f4xx_hal_tim.o(i.HAL_TIM_IC_DeInit) refers to timer.o(i.HAL_TIM_IC_MspDeInit) for HAL_TIM_IC_MspDeInit
    stm32f4xx_hal_tim.o(i.HAL_TIM_IC_Init) refers to timer.o(i.HAL_TIM_IC_MspInit) for HAL_TIM_IC_MspInit
    stm32f4xx_hal_tim.o(i.HAL_TIM_IC_Init) refers to stm32f4xx_hal_tim.o(i.TIM_Base_SetConfig) for TIM_Base_SetConfig
    stm32f4xx_hal_tim.o(i.HAL_TIM_IC_Start) refers to stm32f4xx_hal_tim.o(i.TIM_CCxChannelCmd) for TIM_CCxChannelCmd
    stm32f4xx_hal_tim.o(i.HAL_TIM_IC_Start_DMA) refers to stm32f4xx_hal_dma.o(i.HAL_DMA_Start_IT) for HAL_DMA_Start_IT
    stm32f4xx_hal_tim.o(i.HAL_TIM_IC_Start_DMA) refers to stm32f4xx_hal_tim.o(i.TIM_CCxChannelCmd) for TIM_CCxChannelCmd
    stm32f4xx_hal_tim.o(i.HAL_TIM_IC_Start_DMA) refers to stm32f4xx_hal_tim.o(i.TIM_DMACaptureCplt) for TIM_DMACaptureCplt
    stm32f4xx_hal_tim.o(i.HAL_TIM_IC_Start_DMA) refers to stm32f4xx_hal_tim.o(i.TIM_DMAError) for TIM_DMAError
    stm32f4xx_hal_tim.o(i.HAL_TIM_IC_Start_IT) refers to stm32f4xx_hal_tim.o(i.TIM_CCxChannelCmd) for TIM_CCxChannelCmd
    stm32f4xx_hal_tim.o(i.HAL_TIM_IC_Stop) refers to stm32f4xx_hal_tim.o(i.TIM_CCxChannelCmd) for TIM_CCxChannelCmd
    stm32f4xx_hal_tim.o(i.HAL_TIM_IC_Stop_DMA) refers to stm32f4xx_hal_tim.o(i.TIM_CCxChannelCmd) for TIM_CCxChannelCmd
    stm32f4xx_hal_tim.o(i.HAL_TIM_IC_Stop_IT) refers to stm32f4xx_hal_tim.o(i.TIM_CCxChannelCmd) for TIM_CCxChannelCmd
    stm32f4xx_hal_tim.o(i.HAL_TIM_IRQHandler) refers to hardwaretimer.o(i.HAL_TIM_IC_CaptureCallback) for HAL_TIM_IC_CaptureCallback
    stm32f4xx_hal_tim.o(i.HAL_TIM_IRQHandler) refers to hardwaretimer.o(i.HAL_TIM_OC_DelayElapsedCallback) for HAL_TIM_OC_DelayElapsedCallback
    stm32f4xx_hal_tim.o(i.HAL_TIM_IRQHandler) refers to stm32f4xx_hal_tim.o(i.HAL_TIM_PWM_PulseFinishedCallback) for HAL_TIM_PWM_PulseFinishedCallback
    stm32f4xx_hal_tim.o(i.HAL_TIM_IRQHandler) refers to hardwaretimer.o(i.HAL_TIM_PeriodElapsedCallback) for HAL_TIM_PeriodElapsedCallback
    stm32f4xx_hal_tim.o(i.HAL_TIM_IRQHandler) refers to stm32f4xx_hal_tim_ex.o(i.HAL_TIMEx_BreakCallback) for HAL_TIMEx_BreakCallback
    stm32f4xx_hal_tim.o(i.HAL_TIM_IRQHandler) refers to stm32f4xx_hal_tim.o(i.HAL_TIM_TriggerCallback) for HAL_TIM_TriggerCallback
    stm32f4xx_hal_tim.o(i.HAL_TIM_IRQHandler) refers to stm32f4xx_hal_tim_ex.o(i.HAL_TIMEx_CommutationCallback) for HAL_TIMEx_CommutationCallback
    stm32f4xx_hal_tim.o(i.HAL_TIM_OC_ConfigChannel) refers to stm32f4xx_hal_tim.o(i._Z17TIM_OC1_SetConfigP11TIM_TypeDefP18TIM_OC_InitTypeDef) for TIM_OC1_SetConfig(TIM_TypeDef*, TIM_OC_InitTypeDef*)
    stm32f4xx_hal_tim.o(i.HAL_TIM_OC_ConfigChannel) refers to stm32f4xx_hal_tim.o(i.TIM_OC2_SetConfig) for TIM_OC2_SetConfig
    stm32f4xx_hal_tim.o(i.HAL_TIM_OC_ConfigChannel) refers to stm32f4xx_hal_tim.o(i._Z17TIM_OC3_SetConfigP11TIM_TypeDefP18TIM_OC_InitTypeDef) for TIM_OC3_SetConfig(TIM_TypeDef*, TIM_OC_InitTypeDef*)
    stm32f4xx_hal_tim.o(i.HAL_TIM_OC_ConfigChannel) refers to stm32f4xx_hal_tim.o(i._Z17TIM_OC4_SetConfigP11TIM_TypeDefP18TIM_OC_InitTypeDef) for TIM_OC4_SetConfig(TIM_TypeDef*, TIM_OC_InitTypeDef*)
    stm32f4xx_hal_tim.o(i.HAL_TIM_OC_DeInit) refers to timer.o(i.HAL_TIM_OC_MspDeInit) for HAL_TIM_OC_MspDeInit
    stm32f4xx_hal_tim.o(i.HAL_TIM_OC_Init) refers to timer.o(i.HAL_TIM_OC_MspInit) for HAL_TIM_OC_MspInit
    stm32f4xx_hal_tim.o(i.HAL_TIM_OC_Init) refers to stm32f4xx_hal_tim.o(i.TIM_Base_SetConfig) for TIM_Base_SetConfig
    stm32f4xx_hal_tim.o(i.HAL_TIM_OC_Start) refers to stm32f4xx_hal_tim.o(i.TIM_CCxChannelCmd) for TIM_CCxChannelCmd
    stm32f4xx_hal_tim.o(i.HAL_TIM_OC_Start_DMA) refers to stm32f4xx_hal_dma.o(i.HAL_DMA_Start_IT) for HAL_DMA_Start_IT
    stm32f4xx_hal_tim.o(i.HAL_TIM_OC_Start_DMA) refers to stm32f4xx_hal_tim.o(i.TIM_CCxChannelCmd) for TIM_CCxChannelCmd
    stm32f4xx_hal_tim.o(i.HAL_TIM_OC_Start_DMA) refers to stm32f4xx_hal_tim.o(i.TIM_DMADelayPulseCplt) for TIM_DMADelayPulseCplt
    stm32f4xx_hal_tim.o(i.HAL_TIM_OC_Start_DMA) refers to stm32f4xx_hal_tim.o(i.TIM_DMAError) for TIM_DMAError
    stm32f4xx_hal_tim.o(i.HAL_TIM_OC_Start_IT) refers to stm32f4xx_hal_tim.o(i.TIM_CCxChannelCmd) for TIM_CCxChannelCmd
    stm32f4xx_hal_tim.o(i.HAL_TIM_OC_Stop) refers to stm32f4xx_hal_tim.o(i.TIM_CCxChannelCmd) for TIM_CCxChannelCmd
    stm32f4xx_hal_tim.o(i.HAL_TIM_OC_Stop_DMA) refers to stm32f4xx_hal_tim.o(i.TIM_CCxChannelCmd) for TIM_CCxChannelCmd
    stm32f4xx_hal_tim.o(i.HAL_TIM_OC_Stop_IT) refers to stm32f4xx_hal_tim.o(i.TIM_CCxChannelCmd) for TIM_CCxChannelCmd
    stm32f4xx_hal_tim.o(i.HAL_TIM_OnePulse_ConfigChannel) refers to stm32f4xx_hal_tim.o(i._Z17TIM_OC1_SetConfigP11TIM_TypeDefP18TIM_OC_InitTypeDef) for TIM_OC1_SetConfig(TIM_TypeDef*, TIM_OC_InitTypeDef*)
    stm32f4xx_hal_tim.o(i.HAL_TIM_OnePulse_ConfigChannel) refers to stm32f4xx_hal_tim.o(i.TIM_OC2_SetConfig) for TIM_OC2_SetConfig
    stm32f4xx_hal_tim.o(i.HAL_TIM_OnePulse_ConfigChannel) refers to stm32f4xx_hal_tim.o(i.TIM_TI1_SetConfig) for TIM_TI1_SetConfig
    stm32f4xx_hal_tim.o(i.HAL_TIM_OnePulse_ConfigChannel) refers to stm32f4xx_hal_tim.o(i._Z17TIM_TI2_SetConfigP11TIM_TypeDefjjj) for TIM_TI2_SetConfig(TIM_TypeDef*, unsigned, unsigned, unsigned)
    stm32f4xx_hal_tim.o(i.HAL_TIM_OnePulse_DeInit) refers to stm32f4xx_hal_tim.o(i.HAL_TIM_OnePulse_MspDeInit) for HAL_TIM_OnePulse_MspDeInit
    stm32f4xx_hal_tim.o(i.HAL_TIM_OnePulse_Init) refers to stm32f4xx_hal_tim.o(i.HAL_TIM_OnePulse_MspInit) for HAL_TIM_OnePulse_MspInit
    stm32f4xx_hal_tim.o(i.HAL_TIM_OnePulse_Init) refers to stm32f4xx_hal_tim.o(i.TIM_Base_SetConfig) for TIM_Base_SetConfig
    stm32f4xx_hal_tim.o(i.HAL_TIM_OnePulse_Start) refers to stm32f4xx_hal_tim.o(i.TIM_CCxChannelCmd) for TIM_CCxChannelCmd
    stm32f4xx_hal_tim.o(i.HAL_TIM_OnePulse_Start_IT) refers to stm32f4xx_hal_tim.o(i.TIM_CCxChannelCmd) for TIM_CCxChannelCmd
    stm32f4xx_hal_tim.o(i.HAL_TIM_OnePulse_Stop) refers to stm32f4xx_hal_tim.o(i.TIM_CCxChannelCmd) for TIM_CCxChannelCmd
    stm32f4xx_hal_tim.o(i.HAL_TIM_OnePulse_Stop_IT) refers to stm32f4xx_hal_tim.o(i.TIM_CCxChannelCmd) for TIM_CCxChannelCmd
    stm32f4xx_hal_tim.o(i.HAL_TIM_PWM_ConfigChannel) refers to stm32f4xx_hal_tim.o(i._Z17TIM_OC1_SetConfigP11TIM_TypeDefP18TIM_OC_InitTypeDef) for TIM_OC1_SetConfig(TIM_TypeDef*, TIM_OC_InitTypeDef*)
    stm32f4xx_hal_tim.o(i.HAL_TIM_PWM_ConfigChannel) refers to stm32f4xx_hal_tim.o(i.TIM_OC2_SetConfig) for TIM_OC2_SetConfig
    stm32f4xx_hal_tim.o(i.HAL_TIM_PWM_ConfigChannel) refers to stm32f4xx_hal_tim.o(i._Z17TIM_OC3_SetConfigP11TIM_TypeDefP18TIM_OC_InitTypeDef) for TIM_OC3_SetConfig(TIM_TypeDef*, TIM_OC_InitTypeDef*)
    stm32f4xx_hal_tim.o(i.HAL_TIM_PWM_ConfigChannel) refers to stm32f4xx_hal_tim.o(i._Z17TIM_OC4_SetConfigP11TIM_TypeDefP18TIM_OC_InitTypeDef) for TIM_OC4_SetConfig(TIM_TypeDef*, TIM_OC_InitTypeDef*)
    stm32f4xx_hal_tim.o(i.HAL_TIM_PWM_DeInit) refers to stm32f4xx_hal_tim.o(i.HAL_TIM_PWM_MspDeInit) for HAL_TIM_PWM_MspDeInit
    stm32f4xx_hal_tim.o(i.HAL_TIM_PWM_Init) refers to stm32f4xx_hal_tim.o(i.HAL_TIM_PWM_MspInit) for HAL_TIM_PWM_MspInit
    stm32f4xx_hal_tim.o(i.HAL_TIM_PWM_Init) refers to stm32f4xx_hal_tim.o(i.TIM_Base_SetConfig) for TIM_Base_SetConfig
    stm32f4xx_hal_tim.o(i.HAL_TIM_PWM_Start) refers to stm32f4xx_hal_tim.o(i.TIM_CCxChannelCmd) for TIM_CCxChannelCmd
    stm32f4xx_hal_tim.o(i.HAL_TIM_PWM_Start_DMA) refers to stm32f4xx_hal_dma.o(i.HAL_DMA_Start_IT) for HAL_DMA_Start_IT
    stm32f4xx_hal_tim.o(i.HAL_TIM_PWM_Start_DMA) refers to stm32f4xx_hal_tim.o(i.TIM_CCxChannelCmd) for TIM_CCxChannelCmd
    stm32f4xx_hal_tim.o(i.HAL_TIM_PWM_Start_DMA) refers to stm32f4xx_hal_tim.o(i.TIM_DMADelayPulseCplt) for TIM_DMADelayPulseCplt
    stm32f4xx_hal_tim.o(i.HAL_TIM_PWM_Start_DMA) refers to stm32f4xx_hal_tim.o(i.TIM_DMAError) for TIM_DMAError
    stm32f4xx_hal_tim.o(i.HAL_TIM_PWM_Start_IT) refers to stm32f4xx_hal_tim.o(i.TIM_CCxChannelCmd) for TIM_CCxChannelCmd
    stm32f4xx_hal_tim.o(i.HAL_TIM_PWM_Stop) refers to stm32f4xx_hal_tim.o(i.TIM_CCxChannelCmd) for TIM_CCxChannelCmd
    stm32f4xx_hal_tim.o(i.HAL_TIM_PWM_Stop_DMA) refers to stm32f4xx_hal_tim.o(i.TIM_CCxChannelCmd) for TIM_CCxChannelCmd
    stm32f4xx_hal_tim.o(i.HAL_TIM_PWM_Stop_IT) refers to stm32f4xx_hal_tim.o(i.TIM_CCxChannelCmd) for TIM_CCxChannelCmd
    stm32f4xx_hal_tim.o(i.HAL_TIM_SlaveConfigSynchronization) refers to stm32f4xx_hal_tim.o(i._Z24TIM_SlaveTimer_SetConfigP17TIM_HandleTypeDefP22TIM_SlaveConfigTypeDef) for TIM_SlaveTimer_SetConfig(TIM_HandleTypeDef*, TIM_SlaveConfigTypeDef*)
    stm32f4xx_hal_tim.o(i.HAL_TIM_SlaveConfigSynchronization_IT) refers to stm32f4xx_hal_tim.o(i._Z24TIM_SlaveTimer_SetConfigP17TIM_HandleTypeDefP22TIM_SlaveConfigTypeDef) for TIM_SlaveTimer_SetConfig(TIM_HandleTypeDef*, TIM_SlaveConfigTypeDef*)
    stm32f4xx_hal_tim.o(i.TIM_DMACaptureCplt) refers to hardwaretimer.o(i.HAL_TIM_IC_CaptureCallback) for HAL_TIM_IC_CaptureCallback
    stm32f4xx_hal_tim.o(i.TIM_DMADelayPulseCplt) refers to stm32f4xx_hal_tim.o(i.HAL_TIM_PWM_PulseFinishedCallback) for HAL_TIM_PWM_PulseFinishedCallback
    stm32f4xx_hal_tim.o(i.TIM_DMAError) refers to stm32f4xx_hal_tim.o(i.HAL_TIM_ErrorCallback) for HAL_TIM_ErrorCallback
    stm32f4xx_hal_tim.o(i._Z18TIM_DMATriggerCpltP19__DMA_HandleTypeDef) refers to stm32f4xx_hal_tim.o(i.HAL_TIM_TriggerCallback) for HAL_TIM_TriggerCallback
    stm32f4xx_hal_tim.o(i._Z24TIM_DMAPeriodElapsedCpltP19__DMA_HandleTypeDef) refers to hardwaretimer.o(i.HAL_TIM_PeriodElapsedCallback) for HAL_TIM_PeriodElapsedCallback
    stm32f4xx_hal_tim.o(i._Z24TIM_SlaveTimer_SetConfigP17TIM_HandleTypeDefP22TIM_SlaveConfigTypeDef) refers to stm32f4xx_hal_tim.o(i._Z17TIM_ETR_SetConfigP11TIM_TypeDefjjj) for TIM_ETR_SetConfig(TIM_TypeDef*, unsigned, unsigned, unsigned)
    stm32f4xx_hal_tim.o(i._Z24TIM_SlaveTimer_SetConfigP17TIM_HandleTypeDefP22TIM_SlaveConfigTypeDef) refers to stm32f4xx_hal_tim.o(i._Z24TIM_TI1_ConfigInputStageP11TIM_TypeDefjj) for TIM_TI1_ConfigInputStage(TIM_TypeDef*, unsigned, unsigned)
    stm32f4xx_hal_tim.o(i._Z24TIM_SlaveTimer_SetConfigP17TIM_HandleTypeDefP22TIM_SlaveConfigTypeDef) refers to stm32f4xx_hal_tim.o(i._Z24TIM_TI2_ConfigInputStageP11TIM_TypeDefjj) for TIM_TI2_ConfigInputStage(TIM_TypeDef*, unsigned, unsigned)
    stm32f4xx_hal_tim.o(.ARM.exidx) refers to stm32f4xx_hal_tim.o(i.TIM_Base_SetConfig) for i.TIM_Base_SetConfig
    stm32f4xx_hal_tim.o(.ARM.exidx) refers to stm32f4xx_hal_tim.o(i.HAL_TIM_Base_MspInit) for i.HAL_TIM_Base_MspInit
    stm32f4xx_hal_tim.o(.ARM.exidx) refers to stm32f4xx_hal_tim.o(i.HAL_TIM_Base_Init) for i.HAL_TIM_Base_Init
    stm32f4xx_hal_tim.o(.ARM.exidx) refers to stm32f4xx_hal_tim.o(i.HAL_TIM_Base_MspDeInit) for i.HAL_TIM_Base_MspDeInit
    stm32f4xx_hal_tim.o(.ARM.exidx) refers to stm32f4xx_hal_tim.o(i.HAL_TIM_Base_DeInit) for i.HAL_TIM_Base_DeInit
    stm32f4xx_hal_tim.o(.ARM.exidx) refers to stm32f4xx_hal_tim.o(i.HAL_TIM_Base_Start) for i.HAL_TIM_Base_Start
    stm32f4xx_hal_tim.o(.ARM.exidx) refers to stm32f4xx_hal_tim.o(i.HAL_TIM_Base_Stop) for i.HAL_TIM_Base_Stop
    stm32f4xx_hal_tim.o(.ARM.exidx) refers to stm32f4xx_hal_tim.o(i.HAL_TIM_Base_Start_IT) for i.HAL_TIM_Base_Start_IT
    stm32f4xx_hal_tim.o(.ARM.exidx) refers to stm32f4xx_hal_tim.o(i.HAL_TIM_Base_Stop_IT) for i.HAL_TIM_Base_Stop_IT
    stm32f4xx_hal_tim.o(.ARM.exidx) refers to stm32f4xx_hal_tim.o(i.HAL_TIM_ErrorCallback) for i.HAL_TIM_ErrorCallback
    stm32f4xx_hal_tim.o(.ARM.exidx) refers to stm32f4xx_hal_tim.o(i.TIM_DMAError) for i.TIM_DMAError
    stm32f4xx_hal_tim.o(.ARM.exidx) refers to stm32f4xx_hal_tim.o(i.HAL_TIM_PeriodElapsedCallback) for i.HAL_TIM_PeriodElapsedCallback
    stm32f4xx_hal_tim.o(.ARM.exidx) refers to stm32f4xx_hal_tim.o(i._Z24TIM_DMAPeriodElapsedCpltP19__DMA_HandleTypeDef) for i._Z24TIM_DMAPeriodElapsedCpltP19__DMA_HandleTypeDef
    stm32f4xx_hal_tim.o(.ARM.exidx) refers to stm32f4xx_hal_tim.o(i.HAL_TIM_Base_Start_DMA) for i.HAL_TIM_Base_Start_DMA
    stm32f4xx_hal_tim.o(.ARM.exidx) refers to stm32f4xx_hal_tim.o(i.HAL_TIM_Base_Stop_DMA) for i.HAL_TIM_Base_Stop_DMA
    stm32f4xx_hal_tim.o(.ARM.exidx) refers to stm32f4xx_hal_tim.o(i.HAL_TIM_OC_MspInit) for i.HAL_TIM_OC_MspInit
    stm32f4xx_hal_tim.o(.ARM.exidx) refers to stm32f4xx_hal_tim.o(i.HAL_TIM_OC_Init) for i.HAL_TIM_OC_Init
    stm32f4xx_hal_tim.o(.ARM.exidx) refers to stm32f4xx_hal_tim.o(i.HAL_TIM_OC_MspDeInit) for i.HAL_TIM_OC_MspDeInit
    stm32f4xx_hal_tim.o(.ARM.exidx) refers to stm32f4xx_hal_tim.o(i.HAL_TIM_OC_DeInit) for i.HAL_TIM_OC_DeInit
    stm32f4xx_hal_tim.o(.ARM.exidx) refers to stm32f4xx_hal_tim.o(i.TIM_CCxChannelCmd) for i.TIM_CCxChannelCmd
    stm32f4xx_hal_tim.o(.ARM.exidx) refers to stm32f4xx_hal_tim.o(i.HAL_TIM_OC_Start) for i.HAL_TIM_OC_Start
    stm32f4xx_hal_tim.o(.ARM.exidx) refers to stm32f4xx_hal_tim.o(i.HAL_TIM_OC_Stop) for i.HAL_TIM_OC_Stop
    stm32f4xx_hal_tim.o(.ARM.exidx) refers to stm32f4xx_hal_tim.o(i.HAL_TIM_OC_Start_IT) for i.HAL_TIM_OC_Start_IT
    stm32f4xx_hal_tim.o(.ARM.exidx) refers to stm32f4xx_hal_tim.o(i.HAL_TIM_OC_Stop_IT) for i.HAL_TIM_OC_Stop_IT
    stm32f4xx_hal_tim.o(.ARM.exidx) refers to stm32f4xx_hal_tim.o(i.HAL_TIM_PWM_PulseFinishedCallback) for i.HAL_TIM_PWM_PulseFinishedCallback
    stm32f4xx_hal_tim.o(.ARM.exidx) refers to stm32f4xx_hal_tim.o(i.TIM_DMADelayPulseCplt) for i.TIM_DMADelayPulseCplt
    stm32f4xx_hal_tim.o(.ARM.exidx) refers to stm32f4xx_hal_tim.o(i.HAL_TIM_OC_Start_DMA) for i.HAL_TIM_OC_Start_DMA
    stm32f4xx_hal_tim.o(.ARM.exidx) refers to stm32f4xx_hal_tim.o(i.HAL_TIM_OC_Stop_DMA) for i.HAL_TIM_OC_Stop_DMA
    stm32f4xx_hal_tim.o(.ARM.exidx) refers to stm32f4xx_hal_tim.o(i.HAL_TIM_PWM_MspInit) for i.HAL_TIM_PWM_MspInit
    stm32f4xx_hal_tim.o(.ARM.exidx) refers to stm32f4xx_hal_tim.o(i.HAL_TIM_PWM_Init) for i.HAL_TIM_PWM_Init
    stm32f4xx_hal_tim.o(.ARM.exidx) refers to stm32f4xx_hal_tim.o(i.HAL_TIM_PWM_MspDeInit) for i.HAL_TIM_PWM_MspDeInit
    stm32f4xx_hal_tim.o(.ARM.exidx) refers to stm32f4xx_hal_tim.o(i.HAL_TIM_PWM_DeInit) for i.HAL_TIM_PWM_DeInit
    stm32f4xx_hal_tim.o(.ARM.exidx) refers to stm32f4xx_hal_tim.o(i.HAL_TIM_PWM_Start) for i.HAL_TIM_PWM_Start
    stm32f4xx_hal_tim.o(.ARM.exidx) refers to stm32f4xx_hal_tim.o(i.HAL_TIM_PWM_Stop) for i.HAL_TIM_PWM_Stop
    stm32f4xx_hal_tim.o(.ARM.exidx) refers to stm32f4xx_hal_tim.o(i.HAL_TIM_PWM_Start_IT) for i.HAL_TIM_PWM_Start_IT
    stm32f4xx_hal_tim.o(.ARM.exidx) refers to stm32f4xx_hal_tim.o(i.HAL_TIM_PWM_Stop_IT) for i.HAL_TIM_PWM_Stop_IT
    stm32f4xx_hal_tim.o(.ARM.exidx) refers to stm32f4xx_hal_tim.o(i.HAL_TIM_PWM_Start_DMA) for i.HAL_TIM_PWM_Start_DMA
    stm32f4xx_hal_tim.o(.ARM.exidx) refers to stm32f4xx_hal_tim.o(i.HAL_TIM_PWM_Stop_DMA) for i.HAL_TIM_PWM_Stop_DMA
    stm32f4xx_hal_tim.o(.ARM.exidx) refers to stm32f4xx_hal_tim.o(i.HAL_TIM_IC_MspInit) for i.HAL_TIM_IC_MspInit
    stm32f4xx_hal_tim.o(.ARM.exidx) refers to stm32f4xx_hal_tim.o(i.HAL_TIM_IC_Init) for i.HAL_TIM_IC_Init
    stm32f4xx_hal_tim.o(.ARM.exidx) refers to stm32f4xx_hal_tim.o(i.HAL_TIM_IC_MspDeInit) for i.HAL_TIM_IC_MspDeInit
    stm32f4xx_hal_tim.o(.ARM.exidx) refers to stm32f4xx_hal_tim.o(i.HAL_TIM_IC_DeInit) for i.HAL_TIM_IC_DeInit
    stm32f4xx_hal_tim.o(.ARM.exidx) refers to stm32f4xx_hal_tim.o(i.HAL_TIM_IC_Start) for i.HAL_TIM_IC_Start
    stm32f4xx_hal_tim.o(.ARM.exidx) refers to stm32f4xx_hal_tim.o(i.HAL_TIM_IC_Stop) for i.HAL_TIM_IC_Stop
    stm32f4xx_hal_tim.o(.ARM.exidx) refers to stm32f4xx_hal_tim.o(i.HAL_TIM_IC_Start_IT) for i.HAL_TIM_IC_Start_IT
    stm32f4xx_hal_tim.o(.ARM.exidx) refers to stm32f4xx_hal_tim.o(i.HAL_TIM_IC_Stop_IT) for i.HAL_TIM_IC_Stop_IT
    stm32f4xx_hal_tim.o(.ARM.exidx) refers to stm32f4xx_hal_tim.o(i.HAL_TIM_IC_CaptureCallback) for i.HAL_TIM_IC_CaptureCallback
    stm32f4xx_hal_tim.o(.ARM.exidx) refers to stm32f4xx_hal_tim.o(i.TIM_DMACaptureCplt) for i.TIM_DMACaptureCplt
    stm32f4xx_hal_tim.o(.ARM.exidx) refers to stm32f4xx_hal_tim.o(i.HAL_TIM_IC_Start_DMA) for i.HAL_TIM_IC_Start_DMA
    stm32f4xx_hal_tim.o(.ARM.exidx) refers to stm32f4xx_hal_tim.o(i.HAL_TIM_IC_Stop_DMA) for i.HAL_TIM_IC_Stop_DMA
    stm32f4xx_hal_tim.o(.ARM.exidx) refers to stm32f4xx_hal_tim.o(i.HAL_TIM_OnePulse_MspInit) for i.HAL_TIM_OnePulse_MspInit
    stm32f4xx_hal_tim.o(.ARM.exidx) refers to stm32f4xx_hal_tim.o(i.HAL_TIM_OnePulse_Init) for i.HAL_TIM_OnePulse_Init
    stm32f4xx_hal_tim.o(.ARM.exidx) refers to stm32f4xx_hal_tim.o(i.HAL_TIM_OnePulse_MspDeInit) for i.HAL_TIM_OnePulse_MspDeInit
    stm32f4xx_hal_tim.o(.ARM.exidx) refers to stm32f4xx_hal_tim.o(i.HAL_TIM_OnePulse_DeInit) for i.HAL_TIM_OnePulse_DeInit
    stm32f4xx_hal_tim.o(.ARM.exidx) refers to stm32f4xx_hal_tim.o(i.HAL_TIM_OnePulse_Start) for i.HAL_TIM_OnePulse_Start
    stm32f4xx_hal_tim.o(.ARM.exidx) refers to stm32f4xx_hal_tim.o(i.HAL_TIM_OnePulse_Stop) for i.HAL_TIM_OnePulse_Stop
    stm32f4xx_hal_tim.o(.ARM.exidx) refers to stm32f4xx_hal_tim.o(i.HAL_TIM_OnePulse_Start_IT) for i.HAL_TIM_OnePulse_Start_IT
    stm32f4xx_hal_tim.o(.ARM.exidx) refers to stm32f4xx_hal_tim.o(i.HAL_TIM_OnePulse_Stop_IT) for i.HAL_TIM_OnePulse_Stop_IT
    stm32f4xx_hal_tim.o(.ARM.exidx) refers to stm32f4xx_hal_tim.o(i.HAL_TIM_Encoder_MspInit) for i.HAL_TIM_Encoder_MspInit
    stm32f4xx_hal_tim.o(.ARM.exidx) refers to stm32f4xx_hal_tim.o(i.HAL_TIM_Encoder_Init) for i.HAL_TIM_Encoder_Init
    stm32f4xx_hal_tim.o(.ARM.exidx) refers to stm32f4xx_hal_tim.o(i.HAL_TIM_Encoder_MspDeInit) for i.HAL_TIM_Encoder_MspDeInit
    stm32f4xx_hal_tim.o(.ARM.exidx) refers to stm32f4xx_hal_tim.o(i.HAL_TIM_Encoder_DeInit) for i.HAL_TIM_Encoder_DeInit
    stm32f4xx_hal_tim.o(.ARM.exidx) refers to stm32f4xx_hal_tim.o(i.HAL_TIM_Encoder_Start) for i.HAL_TIM_Encoder_Start
    stm32f4xx_hal_tim.o(.ARM.exidx) refers to stm32f4xx_hal_tim.o(i.HAL_TIM_Encoder_Stop) for i.HAL_TIM_Encoder_Stop
    stm32f4xx_hal_tim.o(.ARM.exidx) refers to stm32f4xx_hal_tim.o(i.HAL_TIM_Encoder_Start_IT) for i.HAL_TIM_Encoder_Start_IT
    stm32f4xx_hal_tim.o(.ARM.exidx) refers to stm32f4xx_hal_tim.o(i.HAL_TIM_Encoder_Stop_IT) for i.HAL_TIM_Encoder_Stop_IT
    stm32f4xx_hal_tim.o(.ARM.exidx) refers to stm32f4xx_hal_tim.o(i.HAL_TIM_Encoder_Start_DMA) for i.HAL_TIM_Encoder_Start_DMA
    stm32f4xx_hal_tim.o(.ARM.exidx) refers to stm32f4xx_hal_tim.o(i.HAL_TIM_Encoder_Stop_DMA) for i.HAL_TIM_Encoder_Stop_DMA
    stm32f4xx_hal_tim.o(.ARM.exidx) refers to stm32f4xx_hal_tim.o(i.HAL_TIM_TriggerCallback) for i.HAL_TIM_TriggerCallback
    stm32f4xx_hal_tim.o(.ARM.exidx) refers to stm32f4xx_hal_tim.o(i.HAL_TIM_OC_DelayElapsedCallback) for i.HAL_TIM_OC_DelayElapsedCallback
    stm32f4xx_hal_tim.o(.ARM.exidx) refers to stm32f4xx_hal_tim.o(i.HAL_TIM_IRQHandler) for i.HAL_TIM_IRQHandler
    stm32f4xx_hal_tim.o(.ARM.exidx) refers to stm32f4xx_hal_tim.o(i._Z17TIM_OC4_SetConfigP11TIM_TypeDefP18TIM_OC_InitTypeDef) for i._Z17TIM_OC4_SetConfigP11TIM_TypeDefP18TIM_OC_InitTypeDef
    stm32f4xx_hal_tim.o(.ARM.exidx) refers to stm32f4xx_hal_tim.o(i._Z17TIM_OC3_SetConfigP11TIM_TypeDefP18TIM_OC_InitTypeDef) for i._Z17TIM_OC3_SetConfigP11TIM_TypeDefP18TIM_OC_InitTypeDef
    stm32f4xx_hal_tim.o(.ARM.exidx) refers to stm32f4xx_hal_tim.o(i.TIM_OC2_SetConfig) for i.TIM_OC2_SetConfig
    stm32f4xx_hal_tim.o(.ARM.exidx) refers to stm32f4xx_hal_tim.o(i._Z17TIM_OC1_SetConfigP11TIM_TypeDefP18TIM_OC_InitTypeDef) for i._Z17TIM_OC1_SetConfigP11TIM_TypeDefP18TIM_OC_InitTypeDef
    stm32f4xx_hal_tim.o(.ARM.exidx) refers to stm32f4xx_hal_tim.o(i.HAL_TIM_OC_ConfigChannel) for i.HAL_TIM_OC_ConfigChannel
    stm32f4xx_hal_tim.o(.ARM.exidx) refers to stm32f4xx_hal_tim.o(i._Z17TIM_TI2_SetConfigP11TIM_TypeDefjjj) for i._Z17TIM_TI2_SetConfigP11TIM_TypeDefjjj
    stm32f4xx_hal_tim.o(.ARM.exidx) refers to stm32f4xx_hal_tim.o(i.TIM_TI1_SetConfig) for i.TIM_TI1_SetConfig
    stm32f4xx_hal_tim.o(.ARM.exidx) refers to stm32f4xx_hal_tim.o(i.HAL_TIM_IC_ConfigChannel) for i.HAL_TIM_IC_ConfigChannel
    stm32f4xx_hal_tim.o(.ARM.exidx) refers to stm32f4xx_hal_tim.o(i.HAL_TIM_PWM_ConfigChannel) for i.HAL_TIM_PWM_ConfigChannel
    stm32f4xx_hal_tim.o(.ARM.exidx) refers to stm32f4xx_hal_tim.o(i.HAL_TIM_OnePulse_ConfigChannel) for i.HAL_TIM_OnePulse_ConfigChannel
    stm32f4xx_hal_tim.o(.ARM.exidx) refers to stm32f4xx_hal_tim.o(i._Z18TIM_DMATriggerCpltP19__DMA_HandleTypeDef) for i._Z18TIM_DMATriggerCpltP19__DMA_HandleTypeDef
    stm32f4xx_hal_tim.o(.ARM.exidx) refers to stm32f4xx_hal_tim.o(i.HAL_TIM_DMABurst_WriteStart) for i.HAL_TIM_DMABurst_WriteStart
    stm32f4xx_hal_tim.o(.ARM.exidx) refers to stm32f4xx_hal_tim.o(i.HAL_TIM_DMABurst_WriteStop) for i.HAL_TIM_DMABurst_WriteStop
    stm32f4xx_hal_tim.o(.ARM.exidx) refers to stm32f4xx_hal_tim.o(i.HAL_TIM_DMABurst_ReadStart) for i.HAL_TIM_DMABurst_ReadStart
    stm32f4xx_hal_tim.o(.ARM.exidx) refers to stm32f4xx_hal_tim.o(i.HAL_TIM_DMABurst_ReadStop) for i.HAL_TIM_DMABurst_ReadStop
    stm32f4xx_hal_tim.o(.ARM.exidx) refers to stm32f4xx_hal_tim.o(i.HAL_TIM_GenerateEvent) for i.HAL_TIM_GenerateEvent
    stm32f4xx_hal_tim.o(.ARM.exidx) refers to stm32f4xx_hal_tim.o(i.HAL_TIM_ConfigOCrefClear) for i.HAL_TIM_ConfigOCrefClear
    stm32f4xx_hal_tim.o(.ARM.exidx) refers to stm32f4xx_hal_tim.o(i.HAL_TIM_ConfigClockSource) for i.HAL_TIM_ConfigClockSource
    stm32f4xx_hal_tim.o(.ARM.exidx) refers to stm32f4xx_hal_tim.o(i.HAL_TIM_ConfigTI1Input) for i.HAL_TIM_ConfigTI1Input
    stm32f4xx_hal_tim.o(.ARM.exidx) refers to stm32f4xx_hal_tim.o(i._Z24TIM_SlaveTimer_SetConfigP17TIM_HandleTypeDefP22TIM_SlaveConfigTypeDef) for i._Z24TIM_SlaveTimer_SetConfigP17TIM_HandleTypeDefP22TIM_SlaveConfigTypeDef
    stm32f4xx_hal_tim.o(.ARM.exidx) refers to stm32f4xx_hal_tim.o(i.HAL_TIM_SlaveConfigSynchronization) for i.HAL_TIM_SlaveConfigSynchronization
    stm32f4xx_hal_tim.o(.ARM.exidx) refers to stm32f4xx_hal_tim.o(i.HAL_TIM_SlaveConfigSynchronization_IT) for i.HAL_TIM_SlaveConfigSynchronization_IT
    stm32f4xx_hal_tim.o(.ARM.exidx) refers to stm32f4xx_hal_tim.o(i.HAL_TIM_ReadCapturedValue) for i.HAL_TIM_ReadCapturedValue
    stm32f4xx_hal_tim.o(.ARM.exidx) refers to stm32f4xx_hal_tim.o(i.HAL_TIM_Base_GetState) for i.HAL_TIM_Base_GetState
    stm32f4xx_hal_tim.o(.ARM.exidx) refers to stm32f4xx_hal_tim.o(i.HAL_TIM_OC_GetState) for i.HAL_TIM_OC_GetState
    stm32f4xx_hal_tim.o(.ARM.exidx) refers to stm32f4xx_hal_tim.o(i.HAL_TIM_PWM_GetState) for i.HAL_TIM_PWM_GetState
    stm32f4xx_hal_tim.o(.ARM.exidx) refers to stm32f4xx_hal_tim.o(i.HAL_TIM_IC_GetState) for i.HAL_TIM_IC_GetState
    stm32f4xx_hal_tim.o(.ARM.exidx) refers to stm32f4xx_hal_tim.o(i.HAL_TIM_OnePulse_GetState) for i.HAL_TIM_OnePulse_GetState
    stm32f4xx_hal_tim.o(.ARM.exidx) refers to stm32f4xx_hal_tim.o(i.HAL_TIM_Encoder_GetState) for i.HAL_TIM_Encoder_GetState
    stm32f4xx_hal_tim.o(.ARM.exidx) refers to stm32f4xx_hal_tim.o(i._Z17TIM_ETR_SetConfigP11TIM_TypeDefjjj) for i._Z17TIM_ETR_SetConfigP11TIM_TypeDefjjj
    stm32f4xx_hal_tim.o(.ARM.exidx) refers to stm32f4xx_hal_tim.o(i._Z18TIM_ITRx_SetConfigP11TIM_TypeDeft) for i._Z18TIM_ITRx_SetConfigP11TIM_TypeDeft
    stm32f4xx_hal_tim.o(.ARM.exidx) refers to stm32f4xx_hal_tim.o(i._Z24TIM_TI1_ConfigInputStageP11TIM_TypeDefjj) for i._Z24TIM_TI1_ConfigInputStageP11TIM_TypeDefjj
    stm32f4xx_hal_tim.o(.ARM.exidx) refers to stm32f4xx_hal_tim.o(i._Z24TIM_TI2_ConfigInputStageP11TIM_TypeDefjj) for i._Z24TIM_TI2_ConfigInputStageP11TIM_TypeDefjj
    stm32f4xx_hal_tim_ex.o(i.HAL_TIMEx_ConfigCommutationEvent_DMA) refers to stm32f4xx_hal_tim_ex.o(i.TIMEx_DMACommutationCplt) for TIMEx_DMACommutationCplt
    stm32f4xx_hal_tim_ex.o(i.HAL_TIMEx_ConfigCommutationEvent_DMA) refers to stm32f4xx_hal_tim.o(i.TIM_DMAError) for TIM_DMAError
    stm32f4xx_hal_tim_ex.o(i.HAL_TIMEx_HallSensor_DeInit) refers to stm32f4xx_hal_tim_ex.o(i.HAL_TIMEx_HallSensor_MspDeInit) for HAL_TIMEx_HallSensor_MspDeInit
    stm32f4xx_hal_tim_ex.o(i.HAL_TIMEx_HallSensor_Init) refers to stm32f4xx_hal_tim_ex.o(i.HAL_TIMEx_HallSensor_MspInit) for HAL_TIMEx_HallSensor_MspInit
    stm32f4xx_hal_tim_ex.o(i.HAL_TIMEx_HallSensor_Init) refers to stm32f4xx_hal_tim.o(i.TIM_Base_SetConfig) for TIM_Base_SetConfig
    stm32f4xx_hal_tim_ex.o(i.HAL_TIMEx_HallSensor_Init) refers to stm32f4xx_hal_tim.o(i.TIM_TI1_SetConfig) for TIM_TI1_SetConfig
    stm32f4xx_hal_tim_ex.o(i.HAL_TIMEx_HallSensor_Init) refers to stm32f4xx_hal_tim.o(i.TIM_OC2_SetConfig) for TIM_OC2_SetConfig
    stm32f4xx_hal_tim_ex.o(i.HAL_TIMEx_HallSensor_Start) refers to stm32f4xx_hal_tim.o(i.TIM_CCxChannelCmd) for TIM_CCxChannelCmd
    stm32f4xx_hal_tim_ex.o(i.HAL_TIMEx_HallSensor_Start_DMA) refers to stm32f4xx_hal_tim.o(i.TIM_CCxChannelCmd) for TIM_CCxChannelCmd
    stm32f4xx_hal_tim_ex.o(i.HAL_TIMEx_HallSensor_Start_DMA) refers to stm32f4xx_hal_dma.o(i.HAL_DMA_Start_IT) for HAL_DMA_Start_IT
    stm32f4xx_hal_tim_ex.o(i.HAL_TIMEx_HallSensor_Start_DMA) refers to stm32f4xx_hal_tim.o(i.TIM_DMACaptureCplt) for TIM_DMACaptureCplt
    stm32f4xx_hal_tim_ex.o(i.HAL_TIMEx_HallSensor_Start_DMA) refers to stm32f4xx_hal_tim.o(i.TIM_DMAError) for TIM_DMAError
    stm32f4xx_hal_tim_ex.o(i.HAL_TIMEx_HallSensor_Start_IT) refers to stm32f4xx_hal_tim.o(i.TIM_CCxChannelCmd) for TIM_CCxChannelCmd
    stm32f4xx_hal_tim_ex.o(i.HAL_TIMEx_HallSensor_Stop) refers to stm32f4xx_hal_tim.o(i.TIM_CCxChannelCmd) for TIM_CCxChannelCmd
    stm32f4xx_hal_tim_ex.o(i.HAL_TIMEx_HallSensor_Stop_DMA) refers to stm32f4xx_hal_tim.o(i.TIM_CCxChannelCmd) for TIM_CCxChannelCmd
    stm32f4xx_hal_tim_ex.o(i.HAL_TIMEx_HallSensor_Stop_IT) refers to stm32f4xx_hal_tim.o(i.TIM_CCxChannelCmd) for TIM_CCxChannelCmd
    stm32f4xx_hal_tim_ex.o(i.HAL_TIMEx_OCN_Start) refers to stm32f4xx_hal_tim_ex.o(i._Z18TIM_CCxNChannelCmdP11TIM_TypeDefjj) for TIM_CCxNChannelCmd(TIM_TypeDef*, unsigned, unsigned)
    stm32f4xx_hal_tim_ex.o(i.HAL_TIMEx_OCN_Start_DMA) refers to stm32f4xx_hal_dma.o(i.HAL_DMA_Start_IT) for HAL_DMA_Start_IT
    stm32f4xx_hal_tim_ex.o(i.HAL_TIMEx_OCN_Start_DMA) refers to stm32f4xx_hal_tim_ex.o(i._Z18TIM_CCxNChannelCmdP11TIM_TypeDefjj) for TIM_CCxNChannelCmd(TIM_TypeDef*, unsigned, unsigned)
    stm32f4xx_hal_tim_ex.o(i.HAL_TIMEx_OCN_Start_DMA) refers to stm32f4xx_hal_tim.o(i.TIM_DMADelayPulseCplt) for TIM_DMADelayPulseCplt
    stm32f4xx_hal_tim_ex.o(i.HAL_TIMEx_OCN_Start_DMA) refers to stm32f4xx_hal_tim.o(i.TIM_DMAError) for TIM_DMAError
    stm32f4xx_hal_tim_ex.o(i.HAL_TIMEx_OCN_Start_IT) refers to stm32f4xx_hal_tim_ex.o(i._Z18TIM_CCxNChannelCmdP11TIM_TypeDefjj) for TIM_CCxNChannelCmd(TIM_TypeDef*, unsigned, unsigned)
    stm32f4xx_hal_tim_ex.o(i.HAL_TIMEx_OCN_Stop) refers to stm32f4xx_hal_tim_ex.o(i._Z18TIM_CCxNChannelCmdP11TIM_TypeDefjj) for TIM_CCxNChannelCmd(TIM_TypeDef*, unsigned, unsigned)
    stm32f4xx_hal_tim_ex.o(i.HAL_TIMEx_OCN_Stop_DMA) refers to stm32f4xx_hal_tim_ex.o(i._Z18TIM_CCxNChannelCmdP11TIM_TypeDefjj) for TIM_CCxNChannelCmd(TIM_TypeDef*, unsigned, unsigned)
    stm32f4xx_hal_tim_ex.o(i.HAL_TIMEx_OCN_Stop_IT) refers to stm32f4xx_hal_tim_ex.o(i._Z18TIM_CCxNChannelCmdP11TIM_TypeDefjj) for TIM_CCxNChannelCmd(TIM_TypeDef*, unsigned, unsigned)
    stm32f4xx_hal_tim_ex.o(i.HAL_TIMEx_OnePulseN_Start) refers to stm32f4xx_hal_tim_ex.o(i._Z18TIM_CCxNChannelCmdP11TIM_TypeDefjj) for TIM_CCxNChannelCmd(TIM_TypeDef*, unsigned, unsigned)
    stm32f4xx_hal_tim_ex.o(i.HAL_TIMEx_OnePulseN_Start_IT) refers to stm32f4xx_hal_tim_ex.o(i._Z18TIM_CCxNChannelCmdP11TIM_TypeDefjj) for TIM_CCxNChannelCmd(TIM_TypeDef*, unsigned, unsigned)
    stm32f4xx_hal_tim_ex.o(i.HAL_TIMEx_OnePulseN_Stop) refers to stm32f4xx_hal_tim_ex.o(i._Z18TIM_CCxNChannelCmdP11TIM_TypeDefjj) for TIM_CCxNChannelCmd(TIM_TypeDef*, unsigned, unsigned)
    stm32f4xx_hal_tim_ex.o(i.HAL_TIMEx_OnePulseN_Stop_IT) refers to stm32f4xx_hal_tim_ex.o(i._Z18TIM_CCxNChannelCmdP11TIM_TypeDefjj) for TIM_CCxNChannelCmd(TIM_TypeDef*, unsigned, unsigned)
    stm32f4xx_hal_tim_ex.o(i.HAL_TIMEx_PWMN_Start) refers to stm32f4xx_hal_tim_ex.o(i._Z18TIM_CCxNChannelCmdP11TIM_TypeDefjj) for TIM_CCxNChannelCmd(TIM_TypeDef*, unsigned, unsigned)
    stm32f4xx_hal_tim_ex.o(i.HAL_TIMEx_PWMN_Start_DMA) refers to stm32f4xx_hal_dma.o(i.HAL_DMA_Start_IT) for HAL_DMA_Start_IT
    stm32f4xx_hal_tim_ex.o(i.HAL_TIMEx_PWMN_Start_DMA) refers to stm32f4xx_hal_tim_ex.o(i._Z18TIM_CCxNChannelCmdP11TIM_TypeDefjj) for TIM_CCxNChannelCmd(TIM_TypeDef*, unsigned, unsigned)
    stm32f4xx_hal_tim_ex.o(i.HAL_TIMEx_PWMN_Start_DMA) refers to stm32f4xx_hal_tim.o(i.TIM_DMADelayPulseCplt) for TIM_DMADelayPulseCplt
    stm32f4xx_hal_tim_ex.o(i.HAL_TIMEx_PWMN_Start_DMA) refers to stm32f4xx_hal_tim.o(i.TIM_DMAError) for TIM_DMAError
    stm32f4xx_hal_tim_ex.o(i.HAL_TIMEx_PWMN_Start_IT) refers to stm32f4xx_hal_tim_ex.o(i._Z18TIM_CCxNChannelCmdP11TIM_TypeDefjj) for TIM_CCxNChannelCmd(TIM_TypeDef*, unsigned, unsigned)
    stm32f4xx_hal_tim_ex.o(i.HAL_TIMEx_PWMN_Stop) refers to stm32f4xx_hal_tim_ex.o(i._Z18TIM_CCxNChannelCmdP11TIM_TypeDefjj) for TIM_CCxNChannelCmd(TIM_TypeDef*, unsigned, unsigned)
    stm32f4xx_hal_tim_ex.o(i.HAL_TIMEx_PWMN_Stop_DMA) refers to stm32f4xx_hal_tim_ex.o(i._Z18TIM_CCxNChannelCmdP11TIM_TypeDefjj) for TIM_CCxNChannelCmd(TIM_TypeDef*, unsigned, unsigned)
    stm32f4xx_hal_tim_ex.o(i.HAL_TIMEx_PWMN_Stop_IT) refers to stm32f4xx_hal_tim_ex.o(i._Z18TIM_CCxNChannelCmdP11TIM_TypeDefjj) for TIM_CCxNChannelCmd(TIM_TypeDef*, unsigned, unsigned)
    stm32f4xx_hal_tim_ex.o(i.TIMEx_DMACommutationCplt) refers to stm32f4xx_hal_tim_ex.o(i.HAL_TIMEx_CommutationCallback) for HAL_TIMEx_CommutationCallback
    stm32f4xx_hal_tim_ex.o(.ARM.exidx) refers to stm32f4xx_hal_tim_ex.o(i.HAL_TIMEx_HallSensor_MspInit) for i.HAL_TIMEx_HallSensor_MspInit
    stm32f4xx_hal_tim_ex.o(.ARM.exidx) refers to stm32f4xx_hal_tim_ex.o(i.HAL_TIMEx_HallSensor_Init) for i.HAL_TIMEx_HallSensor_Init
    stm32f4xx_hal_tim_ex.o(.ARM.exidx) refers to stm32f4xx_hal_tim_ex.o(i.HAL_TIMEx_HallSensor_MspDeInit) for i.HAL_TIMEx_HallSensor_MspDeInit
    stm32f4xx_hal_tim_ex.o(.ARM.exidx) refers to stm32f4xx_hal_tim_ex.o(i.HAL_TIMEx_HallSensor_DeInit) for i.HAL_TIMEx_HallSensor_DeInit
    stm32f4xx_hal_tim_ex.o(.ARM.exidx) refers to stm32f4xx_hal_tim_ex.o(i.HAL_TIMEx_HallSensor_Start) for i.HAL_TIMEx_HallSensor_Start
    stm32f4xx_hal_tim_ex.o(.ARM.exidx) refers to stm32f4xx_hal_tim_ex.o(i.HAL_TIMEx_HallSensor_Stop) for i.HAL_TIMEx_HallSensor_Stop
    stm32f4xx_hal_tim_ex.o(.ARM.exidx) refers to stm32f4xx_hal_tim_ex.o(i.HAL_TIMEx_HallSensor_Start_IT) for i.HAL_TIMEx_HallSensor_Start_IT
    stm32f4xx_hal_tim_ex.o(.ARM.exidx) refers to stm32f4xx_hal_tim_ex.o(i.HAL_TIMEx_HallSensor_Stop_IT) for i.HAL_TIMEx_HallSensor_Stop_IT
    stm32f4xx_hal_tim_ex.o(.ARM.exidx) refers to stm32f4xx_hal_tim_ex.o(i.HAL_TIMEx_HallSensor_Start_DMA) for i.HAL_TIMEx_HallSensor_Start_DMA
    stm32f4xx_hal_tim_ex.o(.ARM.exidx) refers to stm32f4xx_hal_tim_ex.o(i.HAL_TIMEx_HallSensor_Stop_DMA) for i.HAL_TIMEx_HallSensor_Stop_DMA
    stm32f4xx_hal_tim_ex.o(.ARM.exidx) refers to stm32f4xx_hal_tim_ex.o(i.HAL_TIMEx_OCN_Start) for i.HAL_TIMEx_OCN_Start
    stm32f4xx_hal_tim_ex.o(.ARM.exidx) refers to stm32f4xx_hal_tim_ex.o(i.HAL_TIMEx_OCN_Stop) for i.HAL_TIMEx_OCN_Stop
    stm32f4xx_hal_tim_ex.o(.ARM.exidx) refers to stm32f4xx_hal_tim_ex.o(i.HAL_TIMEx_OCN_Start_IT) for i.HAL_TIMEx_OCN_Start_IT
    stm32f4xx_hal_tim_ex.o(.ARM.exidx) refers to stm32f4xx_hal_tim_ex.o(i.HAL_TIMEx_OCN_Stop_IT) for i.HAL_TIMEx_OCN_Stop_IT
    stm32f4xx_hal_tim_ex.o(.ARM.exidx) refers to stm32f4xx_hal_tim_ex.o(i.HAL_TIMEx_OCN_Start_DMA) for i.HAL_TIMEx_OCN_Start_DMA
    stm32f4xx_hal_tim_ex.o(.ARM.exidx) refers to stm32f4xx_hal_tim_ex.o(i.HAL_TIMEx_OCN_Stop_DMA) for i.HAL_TIMEx_OCN_Stop_DMA
    stm32f4xx_hal_tim_ex.o(.ARM.exidx) refers to stm32f4xx_hal_tim_ex.o(i.HAL_TIMEx_PWMN_Start) for i.HAL_TIMEx_PWMN_Start
    stm32f4xx_hal_tim_ex.o(.ARM.exidx) refers to stm32f4xx_hal_tim_ex.o(i.HAL_TIMEx_PWMN_Stop) for i.HAL_TIMEx_PWMN_Stop
    stm32f4xx_hal_tim_ex.o(.ARM.exidx) refers to stm32f4xx_hal_tim_ex.o(i.HAL_TIMEx_PWMN_Start_IT) for i.HAL_TIMEx_PWMN_Start_IT
    stm32f4xx_hal_tim_ex.o(.ARM.exidx) refers to stm32f4xx_hal_tim_ex.o(i.HAL_TIMEx_PWMN_Stop_IT) for i.HAL_TIMEx_PWMN_Stop_IT
    stm32f4xx_hal_tim_ex.o(.ARM.exidx) refers to stm32f4xx_hal_tim_ex.o(i.HAL_TIMEx_PWMN_Start_DMA) for i.HAL_TIMEx_PWMN_Start_DMA
    stm32f4xx_hal_tim_ex.o(.ARM.exidx) refers to stm32f4xx_hal_tim_ex.o(i.HAL_TIMEx_PWMN_Stop_DMA) for i.HAL_TIMEx_PWMN_Stop_DMA
    stm32f4xx_hal_tim_ex.o(.ARM.exidx) refers to stm32f4xx_hal_tim_ex.o(i.HAL_TIMEx_OnePulseN_Start) for i.HAL_TIMEx_OnePulseN_Start
    stm32f4xx_hal_tim_ex.o(.ARM.exidx) refers to stm32f4xx_hal_tim_ex.o(i.HAL_TIMEx_OnePulseN_Stop) for i.HAL_TIMEx_OnePulseN_Stop
    stm32f4xx_hal_tim_ex.o(.ARM.exidx) refers to stm32f4xx_hal_tim_ex.o(i.HAL_TIMEx_OnePulseN_Start_IT) for i.HAL_TIMEx_OnePulseN_Start_IT
    stm32f4xx_hal_tim_ex.o(.ARM.exidx) refers to stm32f4xx_hal_tim_ex.o(i.HAL_TIMEx_OnePulseN_Stop_IT) for i.HAL_TIMEx_OnePulseN_Stop_IT
    stm32f4xx_hal_tim_ex.o(.ARM.exidx) refers to stm32f4xx_hal_tim_ex.o(i.HAL_TIMEx_ConfigCommutationEvent) for i.HAL_TIMEx_ConfigCommutationEvent
    stm32f4xx_hal_tim_ex.o(.ARM.exidx) refers to stm32f4xx_hal_tim_ex.o(i.HAL_TIMEx_ConfigCommutationEvent_IT) for i.HAL_TIMEx_ConfigCommutationEvent_IT
    stm32f4xx_hal_tim_ex.o(.ARM.exidx) refers to stm32f4xx_hal_tim_ex.o(i.HAL_TIMEx_CommutationCallback) for i.HAL_TIMEx_CommutationCallback
    stm32f4xx_hal_tim_ex.o(.ARM.exidx) refers to stm32f4xx_hal_tim_ex.o(i.TIMEx_DMACommutationCplt) for i.TIMEx_DMACommutationCplt
    stm32f4xx_hal_tim_ex.o(.ARM.exidx) refers to stm32f4xx_hal_tim_ex.o(i.HAL_TIMEx_ConfigCommutationEvent_DMA) for i.HAL_TIMEx_ConfigCommutationEvent_DMA
    stm32f4xx_hal_tim_ex.o(.ARM.exidx) refers to stm32f4xx_hal_tim_ex.o(i.HAL_TIMEx_MasterConfigSynchronization) for i.HAL_TIMEx_MasterConfigSynchronization
    stm32f4xx_hal_tim_ex.o(.ARM.exidx) refers to stm32f4xx_hal_tim_ex.o(i.HAL_TIMEx_ConfigBreakDeadTime) for i.HAL_TIMEx_ConfigBreakDeadTime
    stm32f4xx_hal_tim_ex.o(.ARM.exidx) refers to stm32f4xx_hal_tim_ex.o(i.HAL_TIMEx_RemapConfig) for i.HAL_TIMEx_RemapConfig
    stm32f4xx_hal_tim_ex.o(.ARM.exidx) refers to stm32f4xx_hal_tim_ex.o(i.HAL_TIMEx_BreakCallback) for i.HAL_TIMEx_BreakCallback
    stm32f4xx_hal_tim_ex.o(.ARM.exidx) refers to stm32f4xx_hal_tim_ex.o(i.HAL_TIMEx_HallSensor_GetState) for i.HAL_TIMEx_HallSensor_GetState
    stm32f4xx_hal_tim_ex.o(.ARM.exidx) refers to stm32f4xx_hal_tim_ex.o(i._Z18TIM_CCxNChannelCmdP11TIM_TypeDefjj) for i._Z18TIM_CCxNChannelCmdP11TIM_TypeDefjj
    stm32f4xx_hal_spi.o(i.HAL_SPI_DMAStop) refers to stm32f4xx_hal_dma.o(i.HAL_DMA_Abort) for HAL_DMA_Abort
    stm32f4xx_hal_spi.o(i.HAL_SPI_DeInit) refers to stm32f4xx_hal_spi.o(i.HAL_SPI_MspDeInit) for HAL_SPI_MspDeInit
    stm32f4xx_hal_spi.o(i.HAL_SPI_IRQHandler) refers to stm32f4xx_hal_spi.o(i.HAL_SPI_ErrorCallback) for HAL_SPI_ErrorCallback
    stm32f4xx_hal_spi.o(i.HAL_SPI_Init) refers to stm32f4xx_hal_spi.o(i.HAL_SPI_MspInit) for HAL_SPI_MspInit
    stm32f4xx_hal_spi.o(i.HAL_SPI_Receive) refers to stm32f4xx_hal_spi.o(i.HAL_SPI_TransmitReceive) for HAL_SPI_TransmitReceive
    stm32f4xx_hal_spi.o(i.HAL_SPI_Receive) refers to stm32f4xx_hal_spi.o(i._Z26SPI_WaitOnFlagUntilTimeoutP19__SPI_HandleTypeDefj10FlagStatusj) for SPI_WaitOnFlagUntilTimeout(__SPI_HandleTypeDef*, unsigned, FlagStatus, unsigned)
    stm32f4xx_hal_spi.o(i.HAL_SPI_Receive_DMA) refers to stm32f4xx_hal_spi.o(i.HAL_SPI_TransmitReceive_DMA) for HAL_SPI_TransmitReceive_DMA
    stm32f4xx_hal_spi.o(i.HAL_SPI_Receive_DMA) refers to stm32f4xx_hal_dma.o(i.HAL_DMA_Start_IT) for HAL_DMA_Start_IT
    stm32f4xx_hal_spi.o(i.HAL_SPI_Receive_DMA) refers to stm32f4xx_hal_spi.o(i._Z22SPI_DMAHalfReceiveCpltP19__DMA_HandleTypeDef) for SPI_DMAHalfReceiveCplt(__DMA_HandleTypeDef*)
    stm32f4xx_hal_spi.o(i.HAL_SPI_Receive_DMA) refers to stm32f4xx_hal_spi.o(i._Z18SPI_DMAReceiveCpltP19__DMA_HandleTypeDef) for SPI_DMAReceiveCplt(__DMA_HandleTypeDef*)
    stm32f4xx_hal_spi.o(i.HAL_SPI_Receive_DMA) refers to stm32f4xx_hal_spi.o(i._Z12SPI_DMAErrorP19__DMA_HandleTypeDef) for SPI_DMAError(__DMA_HandleTypeDef*)
    stm32f4xx_hal_spi.o(i.HAL_SPI_Receive_IT) refers to stm32f4xx_hal_spi.o(i.HAL_SPI_TransmitReceive_IT) for HAL_SPI_TransmitReceive_IT
    stm32f4xx_hal_spi.o(i.HAL_SPI_Receive_IT) refers to stm32f4xx_hal_spi.o(i._Z9SPI_RxISRP19__SPI_HandleTypeDef) for SPI_RxISR(__SPI_HandleTypeDef*)
    stm32f4xx_hal_spi.o(i.HAL_SPI_Transmit) refers to stm32f4xx_hal_spi.o(i._Z26SPI_WaitOnFlagUntilTimeoutP19__SPI_HandleTypeDefj10FlagStatusj) for SPI_WaitOnFlagUntilTimeout(__SPI_HandleTypeDef*, unsigned, FlagStatus, unsigned)
    stm32f4xx_hal_spi.o(i.HAL_SPI_TransmitReceive) refers to stm32f4xx_hal_spi.o(i._Z26SPI_WaitOnFlagUntilTimeoutP19__SPI_HandleTypeDefj10FlagStatusj) for SPI_WaitOnFlagUntilTimeout(__SPI_HandleTypeDef*, unsigned, FlagStatus, unsigned)
    stm32f4xx_hal_spi.o(i.HAL_SPI_TransmitReceive_DMA) refers to stm32f4xx_hal_dma.o(i.HAL_DMA_Start_IT) for HAL_DMA_Start_IT
    stm32f4xx_hal_spi.o(i.HAL_SPI_TransmitReceive_DMA) refers to stm32f4xx_hal_spi.o(i._Z30SPI_DMAHalfTransmitReceiveCpltP19__DMA_HandleTypeDef) for SPI_DMAHalfTransmitReceiveCplt(__DMA_HandleTypeDef*)
    stm32f4xx_hal_spi.o(i.HAL_SPI_TransmitReceive_DMA) refers to stm32f4xx_hal_spi.o(i._Z26SPI_DMATransmitReceiveCpltP19__DMA_HandleTypeDef) for SPI_DMATransmitReceiveCplt(__DMA_HandleTypeDef*)
    stm32f4xx_hal_spi.o(i.HAL_SPI_TransmitReceive_DMA) refers to stm32f4xx_hal_spi.o(i._Z12SPI_DMAErrorP19__DMA_HandleTypeDef) for SPI_DMAError(__DMA_HandleTypeDef*)
    stm32f4xx_hal_spi.o(i.HAL_SPI_TransmitReceive_DMA) refers to stm32f4xx_hal_spi.o(i._Z22SPI_DMAHalfReceiveCpltP19__DMA_HandleTypeDef) for SPI_DMAHalfReceiveCplt(__DMA_HandleTypeDef*)
    stm32f4xx_hal_spi.o(i.HAL_SPI_TransmitReceive_DMA) refers to stm32f4xx_hal_spi.o(i._Z18SPI_DMAReceiveCpltP19__DMA_HandleTypeDef) for SPI_DMAReceiveCplt(__DMA_HandleTypeDef*)
    stm32f4xx_hal_spi.o(i.HAL_SPI_TransmitReceive_IT) refers to stm32f4xx_hal_spi.o(i._Z9SPI_TxISRP19__SPI_HandleTypeDef) for SPI_TxISR(__SPI_HandleTypeDef*)
    stm32f4xx_hal_spi.o(i.HAL_SPI_TransmitReceive_IT) refers to stm32f4xx_hal_spi.o(i._Z15SPI_2LinesRxISRP19__SPI_HandleTypeDef) for SPI_2LinesRxISR(__SPI_HandleTypeDef*)
    stm32f4xx_hal_spi.o(i.HAL_SPI_Transmit_DMA) refers to stm32f4xx_hal_dma.o(i.HAL_DMA_Start_IT) for HAL_DMA_Start_IT
    stm32f4xx_hal_spi.o(i.HAL_SPI_Transmit_DMA) refers to stm32f4xx_hal_spi.o(i._Z23SPI_DMAHalfTransmitCpltP19__DMA_HandleTypeDef) for SPI_DMAHalfTransmitCplt(__DMA_HandleTypeDef*)
    stm32f4xx_hal_spi.o(i.HAL_SPI_Transmit_DMA) refers to stm32f4xx_hal_spi.o(i._Z19SPI_DMATransmitCpltP19__DMA_HandleTypeDef) for SPI_DMATransmitCplt(__DMA_HandleTypeDef*)
    stm32f4xx_hal_spi.o(i.HAL_SPI_Transmit_DMA) refers to stm32f4xx_hal_spi.o(i._Z12SPI_DMAErrorP19__DMA_HandleTypeDef) for SPI_DMAError(__DMA_HandleTypeDef*)
    stm32f4xx_hal_spi.o(i.HAL_SPI_Transmit_IT) refers to stm32f4xx_hal_spi.o(i._Z9SPI_TxISRP19__SPI_HandleTypeDef) for SPI_TxISR(__SPI_HandleTypeDef*)
    stm32f4xx_hal_spi.o(i._Z12SPI_DMAErrorP19__DMA_HandleTypeDef) refers to stm32f4xx_hal_spi.o(i.HAL_SPI_ErrorCallback) for HAL_SPI_ErrorCallback
    stm32f4xx_hal_spi.o(i._Z15SPI_2LinesRxISRP19__SPI_HandleTypeDef) refers to stm32f4xx_hal_spi.o(i._Z21SPI_RxCloseIRQHandlerP19__SPI_HandleTypeDef) for SPI_RxCloseIRQHandler(__SPI_HandleTypeDef*)
    stm32f4xx_hal_spi.o(i._Z18SPI_DMAReceiveCpltP19__DMA_HandleTypeDef) refers to stm32f4xx_hal_spi.o(i._Z25SPI_DMAEndTransmitReceiveP19__SPI_HandleTypeDef) for SPI_DMAEndTransmitReceive(__SPI_HandleTypeDef*)
    stm32f4xx_hal_spi.o(i._Z18SPI_DMAReceiveCpltP19__DMA_HandleTypeDef) refers to stm32f4xx_hal_spi.o(i._Z26SPI_WaitOnFlagUntilTimeoutP19__SPI_HandleTypeDefj10FlagStatusj) for SPI_WaitOnFlagUntilTimeout(__SPI_HandleTypeDef*, unsigned, FlagStatus, unsigned)
    stm32f4xx_hal_spi.o(i._Z18SPI_DMAReceiveCpltP19__DMA_HandleTypeDef) refers to stm32f4xx_hal_spi.o(i.HAL_SPI_ErrorCallback) for HAL_SPI_ErrorCallback
    stm32f4xx_hal_spi.o(i._Z18SPI_DMAReceiveCpltP19__DMA_HandleTypeDef) refers to stm32f4xx_hal_spi.o(i.HAL_SPI_RxCpltCallback) for HAL_SPI_RxCpltCallback
    stm32f4xx_hal_spi.o(i._Z19SPI_DMATransmitCpltP19__DMA_HandleTypeDef) refers to stm32f4xx_hal_spi.o(i._Z26SPI_WaitOnFlagUntilTimeoutP19__SPI_HandleTypeDefj10FlagStatusj) for SPI_WaitOnFlagUntilTimeout(__SPI_HandleTypeDef*, unsigned, FlagStatus, unsigned)
    stm32f4xx_hal_spi.o(i._Z19SPI_DMATransmitCpltP19__DMA_HandleTypeDef) refers to stm32f4xx_hal_spi.o(i.HAL_SPI_ErrorCallback) for HAL_SPI_ErrorCallback
    stm32f4xx_hal_spi.o(i._Z19SPI_DMATransmitCpltP19__DMA_HandleTypeDef) refers to stm32f4xx_hal_spi.o(i.HAL_SPI_TxCpltCallback) for HAL_SPI_TxCpltCallback
    stm32f4xx_hal_spi.o(i._Z21SPI_RxCloseIRQHandlerP19__SPI_HandleTypeDef) refers to stm32f4xx_hal_spi.o(i._Z26SPI_WaitOnFlagUntilTimeoutP19__SPI_HandleTypeDefj10FlagStatusj) for SPI_WaitOnFlagUntilTimeout(__SPI_HandleTypeDef*, unsigned, FlagStatus, unsigned)
    stm32f4xx_hal_spi.o(i._Z21SPI_RxCloseIRQHandlerP19__SPI_HandleTypeDef) refers to stm32f4xx_hal_spi.o(i.HAL_SPI_ErrorCallback) for HAL_SPI_ErrorCallback
    stm32f4xx_hal_spi.o(i._Z21SPI_RxCloseIRQHandlerP19__SPI_HandleTypeDef) refers to stm32f4xx_hal_spi.o(i.HAL_SPI_RxCpltCallback) for HAL_SPI_RxCpltCallback
    stm32f4xx_hal_spi.o(i._Z21SPI_RxCloseIRQHandlerP19__SPI_HandleTypeDef) refers to stm32f4xx_hal_spi.o(i.HAL_SPI_TxRxCpltCallback) for HAL_SPI_TxRxCpltCallback
    stm32f4xx_hal_spi.o(i._Z21SPI_TxCloseIRQHandlerP19__SPI_HandleTypeDef) refers to stm32f4xx_hal_spi.o(i._Z26SPI_WaitOnFlagUntilTimeoutP19__SPI_HandleTypeDefj10FlagStatusj) for SPI_WaitOnFlagUntilTimeout(__SPI_HandleTypeDef*, unsigned, FlagStatus, unsigned)
    stm32f4xx_hal_spi.o(i._Z21SPI_TxCloseIRQHandlerP19__SPI_HandleTypeDef) refers to stm32f4xx_hal_spi.o(i.HAL_SPI_ErrorCallback) for HAL_SPI_ErrorCallback
    stm32f4xx_hal_spi.o(i._Z21SPI_TxCloseIRQHandlerP19__SPI_HandleTypeDef) refers to stm32f4xx_hal_spi.o(i.HAL_SPI_TxCpltCallback) for HAL_SPI_TxCpltCallback
    stm32f4xx_hal_spi.o(i._Z21SPI_TxCloseIRQHandlerP19__SPI_HandleTypeDef) refers to stm32f4xx_hal_spi.o(i.HAL_SPI_TxRxCpltCallback) for HAL_SPI_TxRxCpltCallback
    stm32f4xx_hal_spi.o(i._Z22SPI_DMAHalfReceiveCpltP19__DMA_HandleTypeDef) refers to stm32f4xx_hal_spi.o(i.HAL_SPI_RxHalfCpltCallback) for HAL_SPI_RxHalfCpltCallback
    stm32f4xx_hal_spi.o(i._Z23SPI_DMAHalfTransmitCpltP19__DMA_HandleTypeDef) refers to stm32f4xx_hal_spi.o(i.HAL_SPI_TxHalfCpltCallback) for HAL_SPI_TxHalfCpltCallback
    stm32f4xx_hal_spi.o(i._Z25SPI_DMAEndTransmitReceiveP19__SPI_HandleTypeDef) refers to stm32f4xx_hal_spi.o(i._Z26SPI_WaitOnFlagUntilTimeoutP19__SPI_HandleTypeDefj10FlagStatusj) for SPI_WaitOnFlagUntilTimeout(__SPI_HandleTypeDef*, unsigned, FlagStatus, unsigned)
    stm32f4xx_hal_spi.o(i._Z26SPI_DMATransmitReceiveCpltP19__DMA_HandleTypeDef) refers to stm32f4xx_hal_spi.o(i._Z25SPI_DMAEndTransmitReceiveP19__SPI_HandleTypeDef) for SPI_DMAEndTransmitReceive(__SPI_HandleTypeDef*)
    stm32f4xx_hal_spi.o(i._Z26SPI_DMATransmitReceiveCpltP19__DMA_HandleTypeDef) refers to stm32f4xx_hal_spi.o(i.HAL_SPI_ErrorCallback) for HAL_SPI_ErrorCallback
    stm32f4xx_hal_spi.o(i._Z26SPI_DMATransmitReceiveCpltP19__DMA_HandleTypeDef) refers to stm32f4xx_hal_spi.o(i.HAL_SPI_TxRxCpltCallback) for HAL_SPI_TxRxCpltCallback
    stm32f4xx_hal_spi.o(i._Z26SPI_WaitOnFlagUntilTimeoutP19__SPI_HandleTypeDefj10FlagStatusj) refers to stm32f4xx_hal.o(i.HAL_GetTick) for HAL_GetTick
    stm32f4xx_hal_spi.o(i._Z30SPI_DMAHalfTransmitReceiveCpltP19__DMA_HandleTypeDef) refers to stm32f4xx_hal_spi.o(i.HAL_SPI_TxRxHalfCpltCallback) for HAL_SPI_TxRxHalfCpltCallback
    stm32f4xx_hal_spi.o(i._Z9SPI_RxISRP19__SPI_HandleTypeDef) refers to stm32f4xx_hal_spi.o(i._Z21SPI_RxCloseIRQHandlerP19__SPI_HandleTypeDef) for SPI_RxCloseIRQHandler(__SPI_HandleTypeDef*)
    stm32f4xx_hal_spi.o(i._Z9SPI_TxISRP19__SPI_HandleTypeDef) refers to stm32f4xx_hal_spi.o(i._Z21SPI_TxCloseIRQHandlerP19__SPI_HandleTypeDef) for SPI_TxCloseIRQHandler(__SPI_HandleTypeDef*)
    stm32f4xx_hal_spi.o(.ARM.exidx) refers to stm32f4xx_hal_spi.o(i.HAL_SPI_MspInit) for i.HAL_SPI_MspInit
    stm32f4xx_hal_spi.o(.ARM.exidx) refers to stm32f4xx_hal_spi.o(i.HAL_SPI_Init) for i.HAL_SPI_Init
    stm32f4xx_hal_spi.o(.ARM.exidx) refers to stm32f4xx_hal_spi.o(i.HAL_SPI_MspDeInit) for i.HAL_SPI_MspDeInit
    stm32f4xx_hal_spi.o(.ARM.exidx) refers to stm32f4xx_hal_spi.o(i.HAL_SPI_DeInit) for i.HAL_SPI_DeInit
    stm32f4xx_hal_spi.o(.ARM.exidx) refers to stm32f4xx_hal_spi.o(i._Z26SPI_WaitOnFlagUntilTimeoutP19__SPI_HandleTypeDefj10FlagStatusj) for i._Z26SPI_WaitOnFlagUntilTimeoutP19__SPI_HandleTypeDefj10FlagStatusj
    stm32f4xx_hal_spi.o(.ARM.exidx) refers to stm32f4xx_hal_spi.o(i.HAL_SPI_Transmit) for i.HAL_SPI_Transmit
    stm32f4xx_hal_spi.o(.ARM.exidx) refers to stm32f4xx_hal_spi.o(i.HAL_SPI_TransmitReceive) for i.HAL_SPI_TransmitReceive
    stm32f4xx_hal_spi.o(.ARM.exidx) refers to stm32f4xx_hal_spi.o(i.HAL_SPI_Receive) for i.HAL_SPI_Receive
    stm32f4xx_hal_spi.o(.ARM.exidx) refers to stm32f4xx_hal_spi.o(i.HAL_SPI_ErrorCallback) for i.HAL_SPI_ErrorCallback
    stm32f4xx_hal_spi.o(.ARM.exidx) refers to stm32f4xx_hal_spi.o(i.HAL_SPI_TxCpltCallback) for i.HAL_SPI_TxCpltCallback
    stm32f4xx_hal_spi.o(.ARM.exidx) refers to stm32f4xx_hal_spi.o(i.HAL_SPI_TxRxCpltCallback) for i.HAL_SPI_TxRxCpltCallback
    stm32f4xx_hal_spi.o(.ARM.exidx) refers to stm32f4xx_hal_spi.o(i._Z9SPI_TxISRP19__SPI_HandleTypeDef) for i._Z9SPI_TxISRP19__SPI_HandleTypeDef
    stm32f4xx_hal_spi.o(.ARM.exidx) refers to stm32f4xx_hal_spi.o(i.HAL_SPI_Transmit_IT) for i.HAL_SPI_Transmit_IT
    stm32f4xx_hal_spi.o(.ARM.exidx) refers to stm32f4xx_hal_spi.o(i.HAL_SPI_RxCpltCallback) for i.HAL_SPI_RxCpltCallback
    stm32f4xx_hal_spi.o(.ARM.exidx) refers to stm32f4xx_hal_spi.o(i._Z21SPI_RxCloseIRQHandlerP19__SPI_HandleTypeDef) for i._Z21SPI_RxCloseIRQHandlerP19__SPI_HandleTypeDef
    stm32f4xx_hal_spi.o(.ARM.exidx) refers to stm32f4xx_hal_spi.o(i._Z15SPI_2LinesRxISRP19__SPI_HandleTypeDef) for i._Z15SPI_2LinesRxISRP19__SPI_HandleTypeDef
    stm32f4xx_hal_spi.o(.ARM.exidx) refers to stm32f4xx_hal_spi.o(i.HAL_SPI_TransmitReceive_IT) for i.HAL_SPI_TransmitReceive_IT
    stm32f4xx_hal_spi.o(.ARM.exidx) refers to stm32f4xx_hal_spi.o(i._Z9SPI_RxISRP19__SPI_HandleTypeDef) for i._Z9SPI_RxISRP19__SPI_HandleTypeDef
    stm32f4xx_hal_spi.o(.ARM.exidx) refers to stm32f4xx_hal_spi.o(i.HAL_SPI_Receive_IT) for i.HAL_SPI_Receive_IT
    stm32f4xx_hal_spi.o(.ARM.exidx) refers to stm32f4xx_hal_spi.o(i._Z12SPI_DMAErrorP19__DMA_HandleTypeDef) for i._Z12SPI_DMAErrorP19__DMA_HandleTypeDef
    stm32f4xx_hal_spi.o(.ARM.exidx) refers to stm32f4xx_hal_spi.o(i._Z19SPI_DMATransmitCpltP19__DMA_HandleTypeDef) for i._Z19SPI_DMATransmitCpltP19__DMA_HandleTypeDef
    stm32f4xx_hal_spi.o(.ARM.exidx) refers to stm32f4xx_hal_spi.o(i.HAL_SPI_TxHalfCpltCallback) for i.HAL_SPI_TxHalfCpltCallback
    stm32f4xx_hal_spi.o(.ARM.exidx) refers to stm32f4xx_hal_spi.o(i._Z23SPI_DMAHalfTransmitCpltP19__DMA_HandleTypeDef) for i._Z23SPI_DMAHalfTransmitCpltP19__DMA_HandleTypeDef
    stm32f4xx_hal_spi.o(.ARM.exidx) refers to stm32f4xx_hal_spi.o(i.HAL_SPI_Transmit_DMA) for i.HAL_SPI_Transmit_DMA
    stm32f4xx_hal_spi.o(.ARM.exidx) refers to stm32f4xx_hal_spi.o(i._Z25SPI_DMAEndTransmitReceiveP19__SPI_HandleTypeDef) for i._Z25SPI_DMAEndTransmitReceiveP19__SPI_HandleTypeDef
    stm32f4xx_hal_spi.o(.ARM.exidx) refers to stm32f4xx_hal_spi.o(i._Z18SPI_DMAReceiveCpltP19__DMA_HandleTypeDef) for i._Z18SPI_DMAReceiveCpltP19__DMA_HandleTypeDef
    stm32f4xx_hal_spi.o(.ARM.exidx) refers to stm32f4xx_hal_spi.o(i.HAL_SPI_RxHalfCpltCallback) for i.HAL_SPI_RxHalfCpltCallback
    stm32f4xx_hal_spi.o(.ARM.exidx) refers to stm32f4xx_hal_spi.o(i._Z22SPI_DMAHalfReceiveCpltP19__DMA_HandleTypeDef) for i._Z22SPI_DMAHalfReceiveCpltP19__DMA_HandleTypeDef
    stm32f4xx_hal_spi.o(.ARM.exidx) refers to stm32f4xx_hal_spi.o(i._Z26SPI_DMATransmitReceiveCpltP19__DMA_HandleTypeDef) for i._Z26SPI_DMATransmitReceiveCpltP19__DMA_HandleTypeDef
    stm32f4xx_hal_spi.o(.ARM.exidx) refers to stm32f4xx_hal_spi.o(i.HAL_SPI_TxRxHalfCpltCallback) for i.HAL_SPI_TxRxHalfCpltCallback
    stm32f4xx_hal_spi.o(.ARM.exidx) refers to stm32f4xx_hal_spi.o(i._Z30SPI_DMAHalfTransmitReceiveCpltP19__DMA_HandleTypeDef) for i._Z30SPI_DMAHalfTransmitReceiveCpltP19__DMA_HandleTypeDef
    stm32f4xx_hal_spi.o(.ARM.exidx) refers to stm32f4xx_hal_spi.o(i.HAL_SPI_TransmitReceive_DMA) for i.HAL_SPI_TransmitReceive_DMA
    stm32f4xx_hal_spi.o(.ARM.exidx) refers to stm32f4xx_hal_spi.o(i.HAL_SPI_Receive_DMA) for i.HAL_SPI_Receive_DMA
    stm32f4xx_hal_spi.o(.ARM.exidx) refers to stm32f4xx_hal_spi.o(i.HAL_SPI_DMAPause) for i.HAL_SPI_DMAPause
    stm32f4xx_hal_spi.o(.ARM.exidx) refers to stm32f4xx_hal_spi.o(i.HAL_SPI_DMAResume) for i.HAL_SPI_DMAResume
    stm32f4xx_hal_spi.o(.ARM.exidx) refers to stm32f4xx_hal_spi.o(i.HAL_SPI_DMAStop) for i.HAL_SPI_DMAStop
    stm32f4xx_hal_spi.o(.ARM.exidx) refers to stm32f4xx_hal_spi.o(i.HAL_SPI_IRQHandler) for i.HAL_SPI_IRQHandler
    stm32f4xx_hal_spi.o(.ARM.exidx) refers to stm32f4xx_hal_spi.o(i.HAL_SPI_GetState) for i.HAL_SPI_GetState
    stm32f4xx_hal_spi.o(.ARM.exidx) refers to stm32f4xx_hal_spi.o(i.HAL_SPI_GetError) for i.HAL_SPI_GetError
    stm32f4xx_hal_spi.o(.ARM.exidx) refers to stm32f4xx_hal_spi.o(i._Z21SPI_TxCloseIRQHandlerP19__SPI_HandleTypeDef) for i._Z21SPI_TxCloseIRQHandlerP19__SPI_HandleTypeDef
    stm32f4xx_hal_dac.o(i.HAL_DAC_DeInit) refers to sys.o(i.HAL_DAC_MspDeInit) for HAL_DAC_MspDeInit
    stm32f4xx_hal_dac.o(i.HAL_DAC_IRQHandler) refers to stm32f4xx_hal_dac.o(i.HAL_DAC_DMAUnderrunCallbackCh1) for HAL_DAC_DMAUnderrunCallbackCh1
    stm32f4xx_hal_dac.o(i.HAL_DAC_IRQHandler) refers to stm32f4xx_hal_dac_ex.o(i.HAL_DACEx_DMAUnderrunCallbackCh2) for HAL_DACEx_DMAUnderrunCallbackCh2
    stm32f4xx_hal_dac.o(i.HAL_DAC_Init) refers to sys.o(i.HAL_DAC_MspInit) for HAL_DAC_MspInit
    stm32f4xx_hal_dac.o(i.HAL_DAC_Start_DMA) refers to stm32f4xx_hal_dma.o(i.HAL_DMA_Start_IT) for HAL_DMA_Start_IT
    stm32f4xx_hal_dac.o(i.HAL_DAC_Start_DMA) refers to stm32f4xx_hal_dac_ex.o(i.DAC_DMAConvCpltCh2) for DAC_DMAConvCpltCh2
    stm32f4xx_hal_dac.o(i.HAL_DAC_Start_DMA) refers to stm32f4xx_hal_dac_ex.o(i.DAC_DMAHalfConvCpltCh2) for DAC_DMAHalfConvCpltCh2
    stm32f4xx_hal_dac.o(i.HAL_DAC_Start_DMA) refers to stm32f4xx_hal_dac_ex.o(i.DAC_DMAErrorCh2) for DAC_DMAErrorCh2
    stm32f4xx_hal_dac.o(i.HAL_DAC_Start_DMA) refers to stm32f4xx_hal_dac.o(i._Z18DAC_DMAConvCpltCh1P19__DMA_HandleTypeDef) for DAC_DMAConvCpltCh1(__DMA_HandleTypeDef*)
    stm32f4xx_hal_dac.o(i.HAL_DAC_Start_DMA) refers to stm32f4xx_hal_dac.o(i._Z22DAC_DMAHalfConvCpltCh1P19__DMA_HandleTypeDef) for DAC_DMAHalfConvCpltCh1(__DMA_HandleTypeDef*)
    stm32f4xx_hal_dac.o(i.HAL_DAC_Start_DMA) refers to stm32f4xx_hal_dac.o(i._Z15DAC_DMAErrorCh1P19__DMA_HandleTypeDef) for DAC_DMAErrorCh1(__DMA_HandleTypeDef*)
    stm32f4xx_hal_dac.o(i.HAL_DAC_Stop_DMA) refers to stm32f4xx_hal_dma.o(i.HAL_DMA_Abort) for HAL_DMA_Abort
    stm32f4xx_hal_dac.o(i._Z15DAC_DMAErrorCh1P19__DMA_HandleTypeDef) refers to stm32f4xx_hal_dac.o(i.HAL_DAC_ErrorCallbackCh1) for HAL_DAC_ErrorCallbackCh1
    stm32f4xx_hal_dac.o(i._Z18DAC_DMAConvCpltCh1P19__DMA_HandleTypeDef) refers to stm32f4xx_hal_dac.o(i.HAL_DAC_ConvCpltCallbackCh1) for HAL_DAC_ConvCpltCallbackCh1
    stm32f4xx_hal_dac.o(i._Z22DAC_DMAHalfConvCpltCh1P19__DMA_HandleTypeDef) refers to stm32f4xx_hal_dac.o(i.HAL_DAC_ConvHalfCpltCallbackCh1) for HAL_DAC_ConvHalfCpltCallbackCh1
    stm32f4xx_hal_dac.o(.ARM.exidx) refers to stm32f4xx_hal_dac.o(i.HAL_DAC_MspInit) for i.HAL_DAC_MspInit
    stm32f4xx_hal_dac.o(.ARM.exidx) refers to stm32f4xx_hal_dac.o(i.HAL_DAC_Init) for i.HAL_DAC_Init
    stm32f4xx_hal_dac.o(.ARM.exidx) refers to stm32f4xx_hal_dac.o(i.HAL_DAC_MspDeInit) for i.HAL_DAC_MspDeInit
    stm32f4xx_hal_dac.o(.ARM.exidx) refers to stm32f4xx_hal_dac.o(i.HAL_DAC_DeInit) for i.HAL_DAC_DeInit
    stm32f4xx_hal_dac.o(.ARM.exidx) refers to stm32f4xx_hal_dac.o(i.HAL_DAC_Start) for i.HAL_DAC_Start
    stm32f4xx_hal_dac.o(.ARM.exidx) refers to stm32f4xx_hal_dac.o(i.HAL_DAC_Stop) for i.HAL_DAC_Stop
    stm32f4xx_hal_dac.o(.ARM.exidx) refers to stm32f4xx_hal_dac.o(i.HAL_DAC_ErrorCallbackCh1) for i.HAL_DAC_ErrorCallbackCh1
    stm32f4xx_hal_dac.o(.ARM.exidx) refers to stm32f4xx_hal_dac.o(i._Z15DAC_DMAErrorCh1P19__DMA_HandleTypeDef) for i._Z15DAC_DMAErrorCh1P19__DMA_HandleTypeDef
    stm32f4xx_hal_dac.o(.ARM.exidx) refers to stm32f4xx_hal_dac.o(i.HAL_DAC_ConvHalfCpltCallbackCh1) for i.HAL_DAC_ConvHalfCpltCallbackCh1
    stm32f4xx_hal_dac.o(.ARM.exidx) refers to stm32f4xx_hal_dac.o(i._Z22DAC_DMAHalfConvCpltCh1P19__DMA_HandleTypeDef) for i._Z22DAC_DMAHalfConvCpltCh1P19__DMA_HandleTypeDef
    stm32f4xx_hal_dac.o(.ARM.exidx) refers to stm32f4xx_hal_dac.o(i.HAL_DAC_ConvCpltCallbackCh1) for i.HAL_DAC_ConvCpltCallbackCh1
    stm32f4xx_hal_dac.o(.ARM.exidx) refers to stm32f4xx_hal_dac.o(i._Z18DAC_DMAConvCpltCh1P19__DMA_HandleTypeDef) for i._Z18DAC_DMAConvCpltCh1P19__DMA_HandleTypeDef
    stm32f4xx_hal_dac.o(.ARM.exidx) refers to stm32f4xx_hal_dac.o(i.HAL_DAC_Start_DMA) for i.HAL_DAC_Start_DMA
    stm32f4xx_hal_dac.o(.ARM.exidx) refers to stm32f4xx_hal_dac.o(i.HAL_DAC_Stop_DMA) for i.HAL_DAC_Stop_DMA
    stm32f4xx_hal_dac.o(.ARM.exidx) refers to stm32f4xx_hal_dac.o(i.HAL_DAC_GetValue) for i.HAL_DAC_GetValue
    stm32f4xx_hal_dac.o(.ARM.exidx) refers to stm32f4xx_hal_dac.o(i.HAL_DAC_DMAUnderrunCallbackCh1) for i.HAL_DAC_DMAUnderrunCallbackCh1
    stm32f4xx_hal_dac.o(.ARM.exidx) refers to stm32f4xx_hal_dac.o(i.HAL_DAC_IRQHandler) for i.HAL_DAC_IRQHandler
    stm32f4xx_hal_dac.o(.ARM.exidx) refers to stm32f4xx_hal_dac.o(i.HAL_DAC_ConfigChannel) for i.HAL_DAC_ConfigChannel
    stm32f4xx_hal_dac.o(.ARM.exidx) refers to stm32f4xx_hal_dac.o(i.HAL_DAC_SetValue) for i.HAL_DAC_SetValue
    stm32f4xx_hal_dac.o(.ARM.exidx) refers to stm32f4xx_hal_dac.o(i.HAL_DAC_GetState) for i.HAL_DAC_GetState
    stm32f4xx_hal_dac.o(.ARM.exidx) refers to stm32f4xx_hal_dac.o(i.HAL_DAC_GetError) for i.HAL_DAC_GetError
    ringbuffer.o(i._ZN10RingBufferC1Ev) refers to memseta.o(.text) for __aeabi_memclr4
    ringbuffer.o(.ARM.exidx) refers to ringbuffer.o(i._ZN10RingBufferC1Ev) for i._ZN10RingBufferC1Ev
    ringbuffer.o(.ARM.exidx) refers to ringbuffer.o(i._ZN10RingBuffer10store_charEh) for i._ZN10RingBuffer10store_charEh
    hardwaretimer.o(i.HAL_TIM_IC_CaptureCallback) refers to hardwaretimer.o(i._ZN13HardwareTimer22captureCompareCallbackEP17TIM_HandleTypeDef) for HardwareTimer::captureCompareCallback(TIM_HandleTypeDef*)
    hardwaretimer.o(i.HAL_TIM_OC_DelayElapsedCallback) refers to hardwaretimer.o(i._ZN13HardwareTimer22captureCompareCallbackEP17TIM_HandleTypeDef) for HardwareTimer::captureCompareCallback(TIM_HandleTypeDef*)
    hardwaretimer.o(i.HAL_TIM_PeriodElapsedCallback) refers to hardwaretimer.o(i._ZN13HardwareTimer14updateCallbackEP17TIM_HandleTypeDef) for HardwareTimer::updateCallback(TIM_HandleTypeDef*)
    hardwaretimer.o(i.TIM1_BRK_TIM9_IRQHandler) refers to stm32f4xx_hal_tim.o(i.HAL_TIM_IRQHandler) for HAL_TIM_IRQHandler
    hardwaretimer.o(i.TIM1_BRK_TIM9_IRQHandler) refers to hardwaretimer.o(.bss) for .bss
    hardwaretimer.o(i.TIM1_CC_IRQHandler) refers to stm32f4xx_hal_tim.o(i.HAL_TIM_IRQHandler) for HAL_TIM_IRQHandler
    hardwaretimer.o(i.TIM1_CC_IRQHandler) refers to hardwaretimer.o(.bss) for .bss
    hardwaretimer.o(i.TIM1_TRG_COM_TIM11_IRQHandler) refers to stm32f4xx_hal_tim.o(i.HAL_TIM_IRQHandler) for HAL_TIM_IRQHandler
    hardwaretimer.o(i.TIM1_TRG_COM_TIM11_IRQHandler) refers to hardwaretimer.o(.bss) for .bss
    hardwaretimer.o(i.TIM1_UP_TIM10_IRQHandler) refers to stm32f4xx_hal_tim.o(i.HAL_TIM_IRQHandler) for HAL_TIM_IRQHandler
    hardwaretimer.o(i.TIM1_UP_TIM10_IRQHandler) refers to hardwaretimer.o(.bss) for .bss
    hardwaretimer.o(i.TIM2_IRQHandler) refers to stm32f4xx_hal_tim.o(i.HAL_TIM_IRQHandler) for HAL_TIM_IRQHandler
    hardwaretimer.o(i.TIM2_IRQHandler) refers to hardwaretimer.o(.bss) for .bss
    hardwaretimer.o(i.TIM3_IRQHandler) refers to stm32f4xx_hal_tim.o(i.HAL_TIM_IRQHandler) for HAL_TIM_IRQHandler
    hardwaretimer.o(i.TIM3_IRQHandler) refers to hardwaretimer.o(.bss) for .bss
    hardwaretimer.o(i.TIM4_IRQHandler) refers to stm32f4xx_hal_tim.o(i.HAL_TIM_IRQHandler) for HAL_TIM_IRQHandler
    hardwaretimer.o(i.TIM4_IRQHandler) refers to hardwaretimer.o(.bss) for .bss
    hardwaretimer.o(i.TIM5_IRQHandler) refers to stm32f4xx_hal_tim.o(i.HAL_TIM_IRQHandler) for HAL_TIM_IRQHandler
    hardwaretimer.o(i.TIM5_IRQHandler) refers to hardwaretimer.o(.bss) for .bss
    hardwaretimer.o(i.TIM6_DAC_IRQHandler) refers to stm32f4xx_hal_tim.o(i.HAL_TIM_IRQHandler) for HAL_TIM_IRQHandler
    hardwaretimer.o(i.TIM6_DAC_IRQHandler) refers to hardwaretimer.o(.bss) for .bss
    hardwaretimer.o(i.TIM7_IRQHandler) refers to stm32f4xx_hal_tim.o(i.HAL_TIM_IRQHandler) for HAL_TIM_IRQHandler
    hardwaretimer.o(i.TIM7_IRQHandler) refers to hardwaretimer.o(.bss) for .bss
    hardwaretimer.o(i.TIM8_BRK_TIM12_IRQHandler) refers to stm32f4xx_hal_tim.o(i.HAL_TIM_IRQHandler) for HAL_TIM_IRQHandler
    hardwaretimer.o(i.TIM8_BRK_TIM12_IRQHandler) refers to hardwaretimer.o(.bss) for .bss
    hardwaretimer.o(i.TIM8_CC_IRQHandler) refers to stm32f4xx_hal_tim.o(i.HAL_TIM_IRQHandler) for HAL_TIM_IRQHandler
    hardwaretimer.o(i.TIM8_CC_IRQHandler) refers to hardwaretimer.o(.bss) for .bss
    hardwaretimer.o(i.TIM8_TRG_COM_TIM14_IRQHandler) refers to stm32f4xx_hal_tim.o(i.HAL_TIM_IRQHandler) for HAL_TIM_IRQHandler
    hardwaretimer.o(i.TIM8_TRG_COM_TIM14_IRQHandler) refers to hardwaretimer.o(.bss) for .bss
    hardwaretimer.o(i.TIM8_UP_TIM13_IRQHandler) refers to stm32f4xx_hal_tim.o(i.HAL_TIM_IRQHandler) for HAL_TIM_IRQHandler
    hardwaretimer.o(i.TIM8_UP_TIM13_IRQHandler) refers to hardwaretimer.o(.bss) for .bss
    hardwaretimer.o(i._ZN13HardwareTimer11getOverflowE13TimerFormat_t) refers to hardwaretimer.o(i._ZN13HardwareTimer15getTimerClkFreqEv) for HardwareTimer::getTimerClkFreq()
    hardwaretimer.o(i._ZN13HardwareTimer11getOverflowE13TimerFormat_t) refers to dfltui.o(.text) for __aeabi_ui2d
    hardwaretimer.o(i._ZN13HardwareTimer11getOverflowE13TimerFormat_t) refers to dmul.o(.text) for __aeabi_dmul
    hardwaretimer.o(i._ZN13HardwareTimer11getOverflowE13TimerFormat_t) refers to ddiv.o(.text) for __aeabi_ddiv
    hardwaretimer.o(i._ZN13HardwareTimer11getOverflowE13TimerFormat_t) refers to dfixui.o(.text) for __aeabi_d2uiz
    hardwaretimer.o(i._ZN13HardwareTimer11setOverflowEj13TimerFormat_t) refers to hardwaretimer.o(i._ZN13HardwareTimer15getTimerClkFreqEv) for HardwareTimer::getTimerClkFreq()
    hardwaretimer.o(i._ZN13HardwareTimer12hasInterruptEj) refers to main.o(i.Error_Handler) for Error_Handler
    hardwaretimer.o(i._ZN13HardwareTimer12pauseChannelEj) refers to hardwaretimer.o(i._ZN13HardwareTimer12getLLChannelEj) for HardwareTimer::getLLChannel(unsigned)
    hardwaretimer.o(i._ZN13HardwareTimer12pauseChannelEj) refers to main.o(i.Error_Handler) for Error_Handler
    hardwaretimer.o(i._ZN13HardwareTimer12pauseChannelEj) refers to hardwaretimer.o(i._ZN13HardwareTimer5getITEj) for HardwareTimer::getIT(unsigned)
    hardwaretimer.o(i._ZN13HardwareTimer12pauseChannelEj) refers to hardwaretimer.o(i._ZN13HardwareTimer20getAssociatedChannelEj) for HardwareTimer::getAssociatedChannel(unsigned)
    hardwaretimer.o(i._ZN13HardwareTimer13resumeChannelEj) refers to hardwaretimer.o(i._ZN13HardwareTimer10getChannelEj) for HardwareTimer::getChannel(unsigned)
    hardwaretimer.o(i._ZN13HardwareTimer13resumeChannelEj) refers to main.o(i.Error_Handler) for Error_Handler
    hardwaretimer.o(i._ZN13HardwareTimer13resumeChannelEj) refers to hardwaretimer.o(i._ZN13HardwareTimer5getITEj) for HardwareTimer::getIT(unsigned)
    hardwaretimer.o(i._ZN13HardwareTimer13resumeChannelEj) refers to hardwaretimer.o(i._ZN13HardwareTimer12getLLChannelEj) for HardwareTimer::getLLChannel(unsigned)
    hardwaretimer.o(i._ZN13HardwareTimer13resumeChannelEj) refers to stm32f4xx_hal_tim.o(i.HAL_TIM_IC_Start) for HAL_TIM_IC_Start
    hardwaretimer.o(i._ZN13HardwareTimer13resumeChannelEj) refers to hardwaretimer.o(i._ZN13HardwareTimer20getAssociatedChannelEj) for HardwareTimer::getAssociatedChannel(unsigned)
    hardwaretimer.o(i._ZN13HardwareTimer13resumeChannelEj) refers to stm32f4xx_hal_tim_ex.o(i.HAL_TIMEx_PWMN_Start) for HAL_TIMEx_PWMN_Start
    hardwaretimer.o(i._ZN13HardwareTimer13resumeChannelEj) refers to stm32f4xx_hal_tim.o(i.HAL_TIM_PWM_Start) for HAL_TIM_PWM_Start
    hardwaretimer.o(i._ZN13HardwareTimer13resumeChannelEj) refers to stm32f4xx_hal_tim_ex.o(i.HAL_TIMEx_OCN_Start) for HAL_TIMEx_OCN_Start
    hardwaretimer.o(i._ZN13HardwareTimer13resumeChannelEj) refers to stm32f4xx_hal_tim.o(i.HAL_TIM_OC_Start) for HAL_TIM_OC_Start
    hardwaretimer.o(i._ZN13HardwareTimer14updateCallbackEP17TIM_HandleTypeDef) refers to main.o(i.Error_Handler) for Error_Handler
    hardwaretimer.o(i._ZN13HardwareTimer14updateCallbackEP17TIM_HandleTypeDef) refers to timer.o(i.get_timer_obj) for get_timer_obj
    hardwaretimer.o(i._ZN13HardwareTimer15attachInterruptEjPFvPS_E) refers to hardwaretimer.o(i._ZN13HardwareTimer5getITEj) for HardwareTimer::getIT(unsigned)
    hardwaretimer.o(i._ZN13HardwareTimer15attachInterruptEjPFvPS_E) refers to main.o(i.Error_Handler) for Error_Handler
    hardwaretimer.o(i._ZN13HardwareTimer15detachInterruptEj) refers to hardwaretimer.o(i._ZN13HardwareTimer5getITEj) for HardwareTimer::getIT(unsigned)
    hardwaretimer.o(i._ZN13HardwareTimer15detachInterruptEj) refers to main.o(i.Error_Handler) for Error_Handler
    hardwaretimer.o(i._ZN13HardwareTimer15getTimerClkFreqEv) refers to memseta.o(.text) for __aeabi_memclr4
    hardwaretimer.o(i._ZN13HardwareTimer15getTimerClkFreqEv) refers to stm32f4xx_hal_rcc.o(i.HAL_RCC_GetClockConfig) for HAL_RCC_GetClockConfig
    hardwaretimer.o(i._ZN13HardwareTimer15getTimerClkFreqEv) refers to timer.o(i.getTimerClkSrc) for getTimerClkSrc
    hardwaretimer.o(i._ZN13HardwareTimer15getTimerClkFreqEv) refers to main.o(i.Error_Handler) for Error_Handler
    hardwaretimer.o(i._ZN13HardwareTimer15getTimerClkFreqEv) refers to stm32f4xx_hal_rcc.o(i.HAL_RCC_GetPCLK1Freq) for HAL_RCC_GetPCLK1Freq
    hardwaretimer.o(i._ZN13HardwareTimer15getTimerClkFreqEv) refers to stm32f4xx_hal_rcc.o(i.HAL_RCC_GetPCLK2Freq) for HAL_RCC_GetPCLK2Freq
    hardwaretimer.o(i._ZN13HardwareTimer17getCaptureCompareEj20TimerCompareFormat_t) refers to hardwaretimer.o(i._ZN13HardwareTimer10getChannelEj) for HardwareTimer::getChannel(unsigned)
    hardwaretimer.o(i._ZN13HardwareTimer17getCaptureCompareEj20TimerCompareFormat_t) refers to main.o(i.Error_Handler) for Error_Handler
    hardwaretimer.o(i._ZN13HardwareTimer17getCaptureCompareEj20TimerCompareFormat_t) refers to hardwaretimer.o(i._ZN13HardwareTimer15getTimerClkFreqEv) for HardwareTimer::getTimerClkFreq()
    hardwaretimer.o(i._ZN13HardwareTimer17getCaptureCompareEj20TimerCompareFormat_t) refers to dfltui.o(.text) for __aeabi_ui2d
    hardwaretimer.o(i._ZN13HardwareTimer17getCaptureCompareEj20TimerCompareFormat_t) refers to dmul.o(.text) for __aeabi_dmul
    hardwaretimer.o(i._ZN13HardwareTimer17getCaptureCompareEj20TimerCompareFormat_t) refers to ddiv.o(.text) for __aeabi_ddiv
    hardwaretimer.o(i._ZN13HardwareTimer17getCaptureCompareEj20TimerCompareFormat_t) refers to dfixui.o(.text) for __aeabi_d2uiz
    hardwaretimer.o(i._ZN13HardwareTimer17setCaptureCompareEjj20TimerCompareFormat_t) refers to hardwaretimer.o(i._ZN13HardwareTimer10getChannelEj) for HardwareTimer::getChannel(unsigned)
    hardwaretimer.o(i._ZN13HardwareTimer17setCaptureCompareEjj20TimerCompareFormat_t) refers to main.o(i.Error_Handler) for Error_Handler
    hardwaretimer.o(i._ZN13HardwareTimer17setCaptureCompareEjj20TimerCompareFormat_t) refers to hardwaretimer.o(i._ZN13HardwareTimer15getTimerClkFreqEv) for HardwareTimer::getTimerClkFreq()
    hardwaretimer.o(i._ZN13HardwareTimer17timerHandleDeinitEv) refers to stm32f4xx_hal_tim.o(i.HAL_TIM_Base_Stop_IT) for HAL_TIM_Base_Stop_IT
    hardwaretimer.o(i._ZN13HardwareTimer17timerHandleDeinitEv) refers to stm32f4xx_hal_tim.o(i.HAL_TIM_Base_DeInit) for HAL_TIM_Base_DeInit
    hardwaretimer.o(i._ZN13HardwareTimer22captureCompareCallbackEP17TIM_HandleTypeDef) refers to main.o(i.Error_Handler) for Error_Handler
    hardwaretimer.o(i._ZN13HardwareTimer22captureCompareCallbackEP17TIM_HandleTypeDef) refers to timer.o(i.get_timer_obj) for get_timer_obj
    hardwaretimer.o(i._ZN13HardwareTimer6resumeEv) refers to stm32f4xx_hal_tim.o(i.HAL_TIM_Base_Start) for HAL_TIM_Base_Start
    hardwaretimer.o(i._ZN13HardwareTimer6resumeEv) refers to hardwaretimer.o(i._ZN13HardwareTimer13resumeChannelEj) for HardwareTimer::resumeChannel(unsigned)
    hardwaretimer.o(i._ZN13HardwareTimer6setPWMEjjjjPFvPS_ES2_) refers to hardwaretimer.o(i._ZN13HardwareTimer7setModeEj12TimerModes_tj) for HardwareTimer::setMode(unsigned, TimerModes_t, unsigned)
    hardwaretimer.o(i._ZN13HardwareTimer6setPWMEjjjjPFvPS_ES2_) refers to hardwaretimer.o(i._ZN13HardwareTimer11setOverflowEj13TimerFormat_t) for HardwareTimer::setOverflow(unsigned, TimerFormat_t)
    hardwaretimer.o(i._ZN13HardwareTimer6setPWMEjjjjPFvPS_ES2_) refers to hardwaretimer.o(i._ZN13HardwareTimer17setCaptureCompareEjj20TimerCompareFormat_t) for HardwareTimer::setCaptureCompare(unsigned, unsigned, TimerCompareFormat_t)
    hardwaretimer.o(i._ZN13HardwareTimer6setPWMEjjjjPFvPS_ES2_) refers to hardwaretimer.o(i._ZN13HardwareTimer15attachInterruptEPFvPS_E) for HardwareTimer::attachInterrupt(void(*)(HardwareTimer*))
    hardwaretimer.o(i._ZN13HardwareTimer6setPWMEjjjjPFvPS_ES2_) refers to hardwaretimer.o(i._ZN13HardwareTimer15attachInterruptEjPFvPS_E) for HardwareTimer::attachInterrupt(unsigned, void(*)(HardwareTimer*))
    hardwaretimer.o(i._ZN13HardwareTimer6setPWMEjjjjPFvPS_ES2_) refers to hardwaretimer.o(i._ZN13HardwareTimer6resumeEv) for HardwareTimer::resume()
    hardwaretimer.o(i._ZN13HardwareTimer7refreshEv) refers to stm32f4xx_hal_tim.o(i.HAL_TIM_GenerateEvent) for HAL_TIM_GenerateEvent
    hardwaretimer.o(i._ZN13HardwareTimer7setModeEj12TimerModes_tj) refers to hardwaretimer.o(i._ZN13HardwareTimer10getChannelEj) for HardwareTimer::getChannel(unsigned)
    hardwaretimer.o(i._ZN13HardwareTimer7setModeEj12TimerModes_tj) refers to main.o(i.Error_Handler) for Error_Handler
    hardwaretimer.o(i._ZN13HardwareTimer7setModeEj12TimerModes_tj) refers to stm32f4xx_hal_tim.o(i.HAL_TIM_OC_ConfigChannel) for HAL_TIM_OC_ConfigChannel
    hardwaretimer.o(i._ZN13HardwareTimer7setModeEj12TimerModes_tj) refers to stm32f4xx_hal_tim.o(i.HAL_TIM_PWM_ConfigChannel) for HAL_TIM_PWM_ConfigChannel
    hardwaretimer.o(i._ZN13HardwareTimer7setModeEj12TimerModes_tj) refers to stm32f4xx_hal_tim.o(i.HAL_TIM_IC_ConfigChannel) for HAL_TIM_IC_ConfigChannel
    hardwaretimer.o(i._ZN13HardwareTimer7setModeEj12TimerModes_tj) refers to sys.o(i.pinMode) for pinMode
    hardwaretimer.o(i._ZN13HardwareTimer7setModeEj12TimerModes_tj) refers to hardwaretimer.o(i._ZN13HardwareTimer20getAssociatedChannelEj) for HardwareTimer::getAssociatedChannel(unsigned)
    hardwaretimer.o(i._ZN13HardwareTimer7setModeEj12TimerModes_tj) refers to stm32f4xx_hal_gpio.o(i.HAL_GPIO_Init) for HAL_GPIO_Init
    hardwaretimer.o(i._ZN13HardwareTimer7setModeEj12TimerModes_tj) refers to pinmap.o(.constdata) for g_APinDescription
    hardwaretimer.o(i._ZN13HardwareTimer8getCountE13TimerFormat_t) refers to hardwaretimer.o(i._ZN13HardwareTimer15getTimerClkFreqEv) for HardwareTimer::getTimerClkFreq()
    hardwaretimer.o(i._ZN13HardwareTimer8getCountE13TimerFormat_t) refers to dfltui.o(.text) for __aeabi_ui2d
    hardwaretimer.o(i._ZN13HardwareTimer8getCountE13TimerFormat_t) refers to dmul.o(.text) for __aeabi_dmul
    hardwaretimer.o(i._ZN13HardwareTimer8getCountE13TimerFormat_t) refers to ddiv.o(.text) for __aeabi_ddiv
    hardwaretimer.o(i._ZN13HardwareTimer8getCountE13TimerFormat_t) refers to dfixui.o(.text) for __aeabi_d2uiz
    hardwaretimer.o(i._ZN13HardwareTimer8setCountEj13TimerFormat_t) refers to hardwaretimer.o(i._ZN13HardwareTimer15getTimerClkFreqEv) for HardwareTimer::getTimerClkFreq()
    hardwaretimer.o(i._ZN13HardwareTimerC1EP11TIM_TypeDef) refers to hardwaretimer.o(i._Z15get_timer_indexP11TIM_TypeDef) for get_timer_index(TIM_TypeDef*)
    hardwaretimer.o(i._ZN13HardwareTimerC1EP11TIM_TypeDef) refers to main.o(i.Error_Handler) for Error_Handler
    hardwaretimer.o(i._ZN13HardwareTimerC1EP11TIM_TypeDef) refers to timer.o(i.enableTimerClock) for enableTimerClock
    hardwaretimer.o(i._ZN13HardwareTimerC1EP11TIM_TypeDef) refers to stm32f4xx_hal_tim.o(i.HAL_TIM_Base_Init) for HAL_TIM_Base_Init
    hardwaretimer.o(i._ZN13HardwareTimerC1EP11TIM_TypeDef) refers to hardwaretimer.o(.bss) for .bss
    hardwaretimer.o(i._ZN13HardwareTimerD1Ev) refers to hardwaretimer.o(i._Z15get_timer_indexP11TIM_TypeDef) for get_timer_index(TIM_TypeDef*)
    hardwaretimer.o(i._ZN13HardwareTimerD1Ev) refers to timer.o(i.disableTimerClock) for disableTimerClock
    hardwaretimer.o(i._ZN13HardwareTimerD1Ev) refers to hardwaretimer.o(.bss) for .bss
    hardwaretimer.o(.ARM.exidx) refers to hardwaretimer.o(i._Z15get_timer_indexP11TIM_TypeDef) for i._Z15get_timer_indexP11TIM_TypeDef
    hardwaretimer.o(.ARM.exidx) refers to hardwaretimer.o(i._ZN13HardwareTimer22captureCompareCallbackEP17TIM_HandleTypeDef) for i._ZN13HardwareTimer22captureCompareCallbackEP17TIM_HandleTypeDef
    hardwaretimer.o(.ARM.exidx) refers to hardwaretimer.o(i.HAL_TIM_IC_CaptureCallback) for i.HAL_TIM_IC_CaptureCallback
    hardwaretimer.o(.ARM.exidx) refers to hardwaretimer.o(i.HAL_TIM_OC_DelayElapsedCallback) for i.HAL_TIM_OC_DelayElapsedCallback
    hardwaretimer.o(.ARM.exidx) refers to hardwaretimer.o(i._ZN13HardwareTimer14updateCallbackEP17TIM_HandleTypeDef) for i._ZN13HardwareTimer14updateCallbackEP17TIM_HandleTypeDef
    hardwaretimer.o(.ARM.exidx) refers to hardwaretimer.o(i.HAL_TIM_PeriodElapsedCallback) for i.HAL_TIM_PeriodElapsedCallback
    hardwaretimer.o(.ARM.exidx) refers to hardwaretimer.o(i.TIM1_UP_TIM10_IRQHandler) for i.TIM1_UP_TIM10_IRQHandler
    hardwaretimer.o(.ARM.exidx) refers to hardwaretimer.o(i.TIM1_CC_IRQHandler) for i.TIM1_CC_IRQHandler
    hardwaretimer.o(.ARM.exidx) refers to hardwaretimer.o(i.TIM2_IRQHandler) for i.TIM2_IRQHandler
    hardwaretimer.o(.ARM.exidx) refers to hardwaretimer.o(i.TIM3_IRQHandler) for i.TIM3_IRQHandler
    hardwaretimer.o(.ARM.exidx) refers to hardwaretimer.o(i.TIM4_IRQHandler) for i.TIM4_IRQHandler
    hardwaretimer.o(.ARM.exidx) refers to hardwaretimer.o(i.TIM5_IRQHandler) for i.TIM5_IRQHandler
    hardwaretimer.o(.ARM.exidx) refers to hardwaretimer.o(i.TIM6_DAC_IRQHandler) for i.TIM6_DAC_IRQHandler
    hardwaretimer.o(.ARM.exidx) refers to hardwaretimer.o(i.TIM7_IRQHandler) for i.TIM7_IRQHandler
    hardwaretimer.o(.ARM.exidx) refers to hardwaretimer.o(i.TIM8_UP_TIM13_IRQHandler) for i.TIM8_UP_TIM13_IRQHandler
    hardwaretimer.o(.ARM.exidx) refers to hardwaretimer.o(i.TIM8_CC_IRQHandler) for i.TIM8_CC_IRQHandler
    hardwaretimer.o(.ARM.exidx) refers to hardwaretimer.o(i.TIM1_BRK_TIM9_IRQHandler) for i.TIM1_BRK_TIM9_IRQHandler
    hardwaretimer.o(.ARM.exidx) refers to hardwaretimer.o(i.TIM1_TRG_COM_TIM11_IRQHandler) for i.TIM1_TRG_COM_TIM11_IRQHandler
    hardwaretimer.o(.ARM.exidx) refers to hardwaretimer.o(i.TIM8_BRK_TIM12_IRQHandler) for i.TIM8_BRK_TIM12_IRQHandler
    hardwaretimer.o(.ARM.exidx) refers to hardwaretimer.o(i.TIM8_TRG_COM_TIM14_IRQHandler) for i.TIM8_TRG_COM_TIM14_IRQHandler
    hardwaretimer.o(.ARM.exidx) refers to hardwaretimer.o(i._ZN13HardwareTimerC1EP11TIM_TypeDef) for i._ZN13HardwareTimerC1EP11TIM_TypeDef
    hardwaretimer.o(.ARM.exidx) refers to hardwaretimer.o(i._ZN13HardwareTimerD1Ev) for i._ZN13HardwareTimerD1Ev
    hardwaretimer.o(.ARM.exidx) refers to hardwaretimer.o(i._ZN13HardwareTimer5pauseEv) for i._ZN13HardwareTimer5pauseEv
    hardwaretimer.o(.ARM.exidx) refers to hardwaretimer.o(i._ZN13HardwareTimer12getLLChannelEj) for i._ZN13HardwareTimer12getLLChannelEj
    hardwaretimer.o(.ARM.exidx) refers to hardwaretimer.o(i._ZN13HardwareTimer5getITEj) for i._ZN13HardwareTimer5getITEj
    hardwaretimer.o(.ARM.exidx) refers to hardwaretimer.o(i._ZN13HardwareTimer20getAssociatedChannelEj) for i._ZN13HardwareTimer20getAssociatedChannelEj
    hardwaretimer.o(.ARM.exidx) refers to hardwaretimer.o(i._ZN13HardwareTimer12pauseChannelEj) for i._ZN13HardwareTimer12pauseChannelEj
    hardwaretimer.o(.ARM.exidx) refers to hardwaretimer.o(i._ZN13HardwareTimer10getChannelEj) for i._ZN13HardwareTimer10getChannelEj
    hardwaretimer.o(.ARM.exidx) refers to hardwaretimer.o(i._ZN13HardwareTimer13resumeChannelEj) for i._ZN13HardwareTimer13resumeChannelEj
    hardwaretimer.o(.ARM.exidx) refers to hardwaretimer.o(i._ZN13HardwareTimer6resumeEv) for i._ZN13HardwareTimer6resumeEv
    hardwaretimer.o(.ARM.exidx) refers to hardwaretimer.o(i._ZN13HardwareTimer17setPrescaleFactorEj) for i._ZN13HardwareTimer17setPrescaleFactorEj
    hardwaretimer.o(.ARM.exidx) refers to hardwaretimer.o(i._ZN13HardwareTimer17getPrescaleFactorEv) for i._ZN13HardwareTimer17getPrescaleFactorEv
    hardwaretimer.o(.ARM.exidx) refers to hardwaretimer.o(i._ZN13HardwareTimer15getTimerClkFreqEv) for i._ZN13HardwareTimer15getTimerClkFreqEv
    hardwaretimer.o(.ARM.exidx) refers to hardwaretimer.o(i._ZN13HardwareTimer11setOverflowEj13TimerFormat_t) for i._ZN13HardwareTimer11setOverflowEj13TimerFormat_t
    hardwaretimer.o(.ARM.exidx) refers to hardwaretimer.o(i._ZN13HardwareTimer11getOverflowE13TimerFormat_t) for i._ZN13HardwareTimer11getOverflowE13TimerFormat_t
    hardwaretimer.o(.ARM.exidx) refers to hardwaretimer.o(i._ZN13HardwareTimer15attachInterruptEjPFvPS_E) for i._ZN13HardwareTimer15attachInterruptEjPFvPS_E
    hardwaretimer.o(.ARM.exidx) refers to hardwaretimer.o(i._ZN13HardwareTimer15attachInterruptEPFvPS_E) for i._ZN13HardwareTimer15attachInterruptEPFvPS_E
    hardwaretimer.o(.ARM.exidx) refers to hardwaretimer.o(i._ZN13HardwareTimer17setCaptureCompareEjj20TimerCompareFormat_t) for i._ZN13HardwareTimer17setCaptureCompareEjj20TimerCompareFormat_t
    hardwaretimer.o(.ARM.exidx) refers to hardwaretimer.o(i._ZN13HardwareTimer7setModeEj12TimerModes_tj) for i._ZN13HardwareTimer7setModeEj12TimerModes_tj
    hardwaretimer.o(.ARM.exidx) refers to hardwaretimer.o(i._ZN13HardwareTimer6setPWMEjjjjPFvPS_ES2_) for i._ZN13HardwareTimer6setPWMEjjjjPFvPS_ES2_
    hardwaretimer.o(.ARM.exidx) refers to hardwaretimer.o(i._ZN13HardwareTimer8setCountEj13TimerFormat_t) for i._ZN13HardwareTimer8setCountEj13TimerFormat_t
    hardwaretimer.o(.ARM.exidx) refers to hardwaretimer.o(i._ZN13HardwareTimer8getCountE13TimerFormat_t) for i._ZN13HardwareTimer8getCountE13TimerFormat_t
    hardwaretimer.o(.ARM.exidx) refers to hardwaretimer.o(i._ZN13HardwareTimer7getModeEj) for i._ZN13HardwareTimer7getModeEj
    hardwaretimer.o(.ARM.exidx) refers to hardwaretimer.o(i._ZN13HardwareTimer16setPreloadEnableEb) for i._ZN13HardwareTimer16setPreloadEnableEb
    hardwaretimer.o(.ARM.exidx) refers to hardwaretimer.o(i._ZN13HardwareTimer17getCaptureCompareEj20TimerCompareFormat_t) for i._ZN13HardwareTimer17getCaptureCompareEj20TimerCompareFormat_t
    hardwaretimer.o(.ARM.exidx) refers to hardwaretimer.o(i._ZN13HardwareTimer20setInterruptPriorityEjj) for i._ZN13HardwareTimer20setInterruptPriorityEjj
    hardwaretimer.o(.ARM.exidx) refers to hardwaretimer.o(i._ZN13HardwareTimer15detachInterruptEv) for i._ZN13HardwareTimer15detachInterruptEv
    hardwaretimer.o(.ARM.exidx) refers to hardwaretimer.o(i._ZN13HardwareTimer12hasInterruptEv) for i._ZN13HardwareTimer12hasInterruptEv
    hardwaretimer.o(.ARM.exidx) refers to hardwaretimer.o(i._ZN13HardwareTimer15detachInterruptEj) for i._ZN13HardwareTimer15detachInterruptEj
    hardwaretimer.o(.ARM.exidx) refers to hardwaretimer.o(i._ZN13HardwareTimer12hasInterruptEj) for i._ZN13HardwareTimer12hasInterruptEj
    hardwaretimer.o(.ARM.exidx) refers to hardwaretimer.o(i._ZN13HardwareTimer17timerHandleDeinitEv) for i._ZN13HardwareTimer17timerHandleDeinitEv
    hardwaretimer.o(.ARM.exidx) refers to hardwaretimer.o(i._ZN13HardwareTimer7refreshEv) for i._ZN13HardwareTimer7refreshEv
    hardwaretimer.o(.ARM.exidx) refers to hardwaretimer.o(i._ZN13HardwareTimer9getHandleEv) for i._ZN13HardwareTimer9getHandleEv
    stm32f4xx_hal_dma.o(i.HAL_DMA_Abort) refers to stm32f4xx_hal.o(i.HAL_GetTick) for HAL_GetTick
    stm32f4xx_hal_dma.o(i.HAL_DMA_DeInit) refers to stm32f4xx_hal_dma.o(i._Z23DMA_CalcBaseAndBitshiftP19__DMA_HandleTypeDef) for DMA_CalcBaseAndBitshift(__DMA_HandleTypeDef*)
    stm32f4xx_hal_dma.o(i.HAL_DMA_IRQHandler) refers to system_stm32f4xx.o(.data) for SystemCoreClock
    stm32f4xx_hal_dma.o(i.HAL_DMA_Init) refers to stm32f4xx_hal.o(i.HAL_GetTick) for HAL_GetTick
    stm32f4xx_hal_dma.o(i.HAL_DMA_Init) refers to stm32f4xx_hal_dma.o(i._Z18DMA_CheckFifoParamP19__DMA_HandleTypeDef) for DMA_CheckFifoParam(__DMA_HandleTypeDef*)
    stm32f4xx_hal_dma.o(i.HAL_DMA_Init) refers to stm32f4xx_hal_dma.o(i._Z23DMA_CalcBaseAndBitshiftP19__DMA_HandleTypeDef) for DMA_CalcBaseAndBitshift(__DMA_HandleTypeDef*)
    stm32f4xx_hal_dma.o(i.HAL_DMA_PollForTransfer) refers to stm32f4xx_hal.o(i.HAL_GetTick) for HAL_GetTick
    stm32f4xx_hal_dma.o(i.HAL_DMA_PollForTransfer) refers to stm32f4xx_hal_dma.o(i.HAL_DMA_Abort) for HAL_DMA_Abort
    stm32f4xx_hal_dma.o(i.HAL_DMA_Start) refers to stm32f4xx_hal_dma.o(i._Z13DMA_SetConfigP19__DMA_HandleTypeDefjjj) for DMA_SetConfig(__DMA_HandleTypeDef*, unsigned, unsigned, unsigned)
    stm32f4xx_hal_dma.o(i.HAL_DMA_Start_IT) refers to stm32f4xx_hal_dma.o(i._Z13DMA_SetConfigP19__DMA_HandleTypeDefjjj) for DMA_SetConfig(__DMA_HandleTypeDef*, unsigned, unsigned, unsigned)
    stm32f4xx_hal_dma.o(i._Z23DMA_CalcBaseAndBitshiftP19__DMA_HandleTypeDef) refers to stm32f4xx_hal_dma.o(.constdata) for .constdata
    stm32f4xx_hal_dma.o(.ARM.exidx) refers to stm32f4xx_hal_dma.o(i._Z23DMA_CalcBaseAndBitshiftP19__DMA_HandleTypeDef) for i._Z23DMA_CalcBaseAndBitshiftP19__DMA_HandleTypeDef
    stm32f4xx_hal_dma.o(.ARM.exidx) refers to stm32f4xx_hal_dma.o(i.HAL_DMA_Init) for i.HAL_DMA_Init
    stm32f4xx_hal_dma.o(.ARM.exidx) refers to stm32f4xx_hal_dma.o(i.HAL_DMA_DeInit) for i.HAL_DMA_DeInit
    stm32f4xx_hal_dma.o(.ARM.exidx) refers to stm32f4xx_hal_dma.o(i._Z13DMA_SetConfigP19__DMA_HandleTypeDefjjj) for i._Z13DMA_SetConfigP19__DMA_HandleTypeDefjjj
    stm32f4xx_hal_dma.o(.ARM.exidx) refers to stm32f4xx_hal_dma.o(i.HAL_DMA_Start) for i.HAL_DMA_Start
    stm32f4xx_hal_dma.o(.ARM.exidx) refers to stm32f4xx_hal_dma.o(i.HAL_DMA_Start_IT) for i.HAL_DMA_Start_IT
    stm32f4xx_hal_dma.o(.ARM.exidx) refers to stm32f4xx_hal_dma.o(i.HAL_DMA_Abort) for i.HAL_DMA_Abort
    stm32f4xx_hal_dma.o(.ARM.exidx) refers to stm32f4xx_hal_dma.o(i.HAL_DMA_Abort_IT) for i.HAL_DMA_Abort_IT
    stm32f4xx_hal_dma.o(.ARM.exidx) refers to stm32f4xx_hal_dma.o(i.HAL_DMA_PollForTransfer) for i.HAL_DMA_PollForTransfer
    stm32f4xx_hal_dma.o(.ARM.exidx) refers to stm32f4xx_hal_dma.o(i.HAL_DMA_IRQHandler) for i.HAL_DMA_IRQHandler
    stm32f4xx_hal_dma.o(.ARM.exidx) refers to stm32f4xx_hal_dma.o(i._Z24HAL_DMA_RegisterCallbackP19__DMA_HandleTypeDef25HAL_DMA_CallbackIDTypeDefPFvS0_E) for i._Z24HAL_DMA_RegisterCallbackP19__DMA_HandleTypeDef25HAL_DMA_CallbackIDTypeDefPFvS0_E
    stm32f4xx_hal_dma.o(.ARM.exidx) refers to stm32f4xx_hal_dma.o(i.HAL_DMA_UnRegisterCallback) for i.HAL_DMA_UnRegisterCallback
    stm32f4xx_hal_dma.o(.ARM.exidx) refers to stm32f4xx_hal_dma.o(i.HAL_DMA_GetState) for i.HAL_DMA_GetState
    stm32f4xx_hal_dma.o(.ARM.exidx) refers to stm32f4xx_hal_dma.o(i.HAL_DMA_GetError) for i.HAL_DMA_GetError
    stm32f4xx_hal_dma.o(.ARM.exidx) refers to stm32f4xx_hal_dma.o(i._Z18DMA_CheckFifoParamP19__DMA_HandleTypeDef) for i._Z18DMA_CheckFifoParamP19__DMA_HandleTypeDef
    stm32f4xx_hal_adc_ex.o(i.HAL_ADCEx_InjectedPollForConversion) refers to stm32f4xx_hal.o(i.HAL_GetTick) for HAL_GetTick
    stm32f4xx_hal_adc_ex.o(i.HAL_ADCEx_InjectedStart) refers to system_stm32f4xx.o(.data) for SystemCoreClock
    stm32f4xx_hal_adc_ex.o(i.HAL_ADCEx_InjectedStart_IT) refers to system_stm32f4xx.o(.data) for SystemCoreClock
    stm32f4xx_hal_adc_ex.o(i.HAL_ADCEx_MultiModeStart_DMA) refers to stm32f4xx_hal_dma.o(i.HAL_DMA_Start_IT) for HAL_DMA_Start_IT
    stm32f4xx_hal_adc_ex.o(i.HAL_ADCEx_MultiModeStart_DMA) refers to stm32f4xx_hal_adc_ex.o(i._Z24ADC_MultiModeDMAConvCpltP19__DMA_HandleTypeDef) for ADC_MultiModeDMAConvCplt(__DMA_HandleTypeDef*)
    stm32f4xx_hal_adc_ex.o(i.HAL_ADCEx_MultiModeStart_DMA) refers to stm32f4xx_hal_adc_ex.o(i._Z28ADC_MultiModeDMAHalfConvCpltP19__DMA_HandleTypeDef) for ADC_MultiModeDMAHalfConvCplt(__DMA_HandleTypeDef*)
    stm32f4xx_hal_adc_ex.o(i.HAL_ADCEx_MultiModeStart_DMA) refers to stm32f4xx_hal_adc_ex.o(i._Z21ADC_MultiModeDMAErrorP19__DMA_HandleTypeDef) for ADC_MultiModeDMAError(__DMA_HandleTypeDef*)
    stm32f4xx_hal_adc_ex.o(i.HAL_ADCEx_MultiModeStart_DMA) refers to system_stm32f4xx.o(.data) for SystemCoreClock
    stm32f4xx_hal_adc_ex.o(i.HAL_ADCEx_MultiModeStop_DMA) refers to stm32f4xx_hal_dma.o(i.HAL_DMA_Abort) for HAL_DMA_Abort
    stm32f4xx_hal_adc_ex.o(i._Z21ADC_MultiModeDMAErrorP19__DMA_HandleTypeDef) refers to stm32f4xx_hal_adc.o(i.HAL_ADC_ErrorCallback) for HAL_ADC_ErrorCallback
    stm32f4xx_hal_adc_ex.o(i._Z24ADC_MultiModeDMAConvCpltP19__DMA_HandleTypeDef) refers to stm32f4xx_hal_adc.o(i.HAL_ADC_ConvCpltCallback) for HAL_ADC_ConvCpltCallback
    stm32f4xx_hal_adc_ex.o(i._Z28ADC_MultiModeDMAHalfConvCpltP19__DMA_HandleTypeDef) refers to stm32f4xx_hal_adc.o(i.HAL_ADC_ConvHalfCpltCallback) for HAL_ADC_ConvHalfCpltCallback
    stm32f4xx_hal_adc_ex.o(.ARM.exidx) refers to stm32f4xx_hal_adc_ex.o(i.HAL_ADCEx_InjectedStart) for i.HAL_ADCEx_InjectedStart
    stm32f4xx_hal_adc_ex.o(.ARM.exidx) refers to stm32f4xx_hal_adc_ex.o(i.HAL_ADCEx_InjectedStart_IT) for i.HAL_ADCEx_InjectedStart_IT
    stm32f4xx_hal_adc_ex.o(.ARM.exidx) refers to stm32f4xx_hal_adc_ex.o(i.HAL_ADCEx_InjectedStop) for i.HAL_ADCEx_InjectedStop
    stm32f4xx_hal_adc_ex.o(.ARM.exidx) refers to stm32f4xx_hal_adc_ex.o(i.HAL_ADCEx_InjectedPollForConversion) for i.HAL_ADCEx_InjectedPollForConversion
    stm32f4xx_hal_adc_ex.o(.ARM.exidx) refers to stm32f4xx_hal_adc_ex.o(i.HAL_ADCEx_InjectedStop_IT) for i.HAL_ADCEx_InjectedStop_IT
    stm32f4xx_hal_adc_ex.o(.ARM.exidx) refers to stm32f4xx_hal_adc_ex.o(i.HAL_ADCEx_InjectedGetValue) for i.HAL_ADCEx_InjectedGetValue
    stm32f4xx_hal_adc_ex.o(.ARM.exidx) refers to stm32f4xx_hal_adc_ex.o(i._Z21ADC_MultiModeDMAErrorP19__DMA_HandleTypeDef) for i._Z21ADC_MultiModeDMAErrorP19__DMA_HandleTypeDef
    stm32f4xx_hal_adc_ex.o(.ARM.exidx) refers to stm32f4xx_hal_adc_ex.o(i._Z28ADC_MultiModeDMAHalfConvCpltP19__DMA_HandleTypeDef) for i._Z28ADC_MultiModeDMAHalfConvCpltP19__DMA_HandleTypeDef
    stm32f4xx_hal_adc_ex.o(.ARM.exidx) refers to stm32f4xx_hal_adc_ex.o(i._Z24ADC_MultiModeDMAConvCpltP19__DMA_HandleTypeDef) for i._Z24ADC_MultiModeDMAConvCpltP19__DMA_HandleTypeDef
    stm32f4xx_hal_adc_ex.o(.ARM.exidx) refers to stm32f4xx_hal_adc_ex.o(i.HAL_ADCEx_MultiModeStart_DMA) for i.HAL_ADCEx_MultiModeStart_DMA
    stm32f4xx_hal_adc_ex.o(.ARM.exidx) refers to stm32f4xx_hal_adc_ex.o(i.HAL_ADCEx_MultiModeStop_DMA) for i.HAL_ADCEx_MultiModeStop_DMA
    stm32f4xx_hal_adc_ex.o(.ARM.exidx) refers to stm32f4xx_hal_adc_ex.o(i.HAL_ADCEx_MultiModeGetValue) for i.HAL_ADCEx_MultiModeGetValue
    stm32f4xx_hal_adc_ex.o(.ARM.exidx) refers to stm32f4xx_hal_adc_ex.o(i.HAL_ADCEx_InjectedConvCpltCallback) for i.HAL_ADCEx_InjectedConvCpltCallback
    stm32f4xx_hal_adc_ex.o(.ARM.exidx) refers to stm32f4xx_hal_adc_ex.o(i.HAL_ADCEx_InjectedConfigChannel) for i.HAL_ADCEx_InjectedConfigChannel
    stm32f4xx_hal_adc_ex.o(.ARM.exidx) refers to stm32f4xx_hal_adc_ex.o(i.HAL_ADCEx_MultiModeConfigChannel) for i.HAL_ADCEx_MultiModeConfigChannel
    stm32f4xx_hal_dac_ex.o(i.DAC_DMAConvCpltCh2) refers to stm32f4xx_hal_dac_ex.o(i.HAL_DACEx_ConvCpltCallbackCh2) for HAL_DACEx_ConvCpltCallbackCh2
    stm32f4xx_hal_dac_ex.o(i.DAC_DMAErrorCh2) refers to stm32f4xx_hal_dac_ex.o(i.HAL_DACEx_ErrorCallbackCh2) for HAL_DACEx_ErrorCallbackCh2
    stm32f4xx_hal_dac_ex.o(i.DAC_DMAHalfConvCpltCh2) refers to stm32f4xx_hal_dac_ex.o(i.HAL_DACEx_ConvHalfCpltCallbackCh2) for HAL_DACEx_ConvHalfCpltCallbackCh2
    stm32f4xx_hal_dac_ex.o(.ARM.exidx) refers to stm32f4xx_hal_dac_ex.o(i.HAL_DACEx_DualGetValue) for i.HAL_DACEx_DualGetValue
    stm32f4xx_hal_dac_ex.o(.ARM.exidx) refers to stm32f4xx_hal_dac_ex.o(i.HAL_DACEx_TriangleWaveGenerate) for i.HAL_DACEx_TriangleWaveGenerate
    stm32f4xx_hal_dac_ex.o(.ARM.exidx) refers to stm32f4xx_hal_dac_ex.o(i.HAL_DACEx_NoiseWaveGenerate) for i.HAL_DACEx_NoiseWaveGenerate
    stm32f4xx_hal_dac_ex.o(.ARM.exidx) refers to stm32f4xx_hal_dac_ex.o(i.HAL_DACEx_DualSetValue) for i.HAL_DACEx_DualSetValue
    stm32f4xx_hal_dac_ex.o(.ARM.exidx) refers to stm32f4xx_hal_dac_ex.o(i.HAL_DACEx_ConvCpltCallbackCh2) for i.HAL_DACEx_ConvCpltCallbackCh2
    stm32f4xx_hal_dac_ex.o(.ARM.exidx) refers to stm32f4xx_hal_dac_ex.o(i.HAL_DACEx_ConvHalfCpltCallbackCh2) for i.HAL_DACEx_ConvHalfCpltCallbackCh2
    stm32f4xx_hal_dac_ex.o(.ARM.exidx) refers to stm32f4xx_hal_dac_ex.o(i.HAL_DACEx_ErrorCallbackCh2) for i.HAL_DACEx_ErrorCallbackCh2
    stm32f4xx_hal_dac_ex.o(.ARM.exidx) refers to stm32f4xx_hal_dac_ex.o(i.HAL_DACEx_DMAUnderrunCallbackCh2) for i.HAL_DACEx_DMAUnderrunCallbackCh2
    stm32f4xx_hal_dac_ex.o(.ARM.exidx) refers to stm32f4xx_hal_dac_ex.o(i.DAC_DMAConvCpltCh2) for i.DAC_DMAConvCpltCh2
    stm32f4xx_hal_dac_ex.o(.ARM.exidx) refers to stm32f4xx_hal_dac_ex.o(i.DAC_DMAHalfConvCpltCh2) for i.DAC_DMAHalfConvCpltCh2
    stm32f4xx_hal_dac_ex.o(.ARM.exidx) refers to stm32f4xx_hal_dac_ex.o(i.DAC_DMAErrorCh2) for i.DAC_DMAErrorCh2
    timer.o(i.HAL_TIM_Base_MspDeInit) refers to timer.o(i.disableTimerClock) for disableTimerClock
    timer.o(i.HAL_TIM_Base_MspDeInit) refers to timer.o(i.getTimerUpIrq) for getTimerUpIrq
    timer.o(i.HAL_TIM_Base_MspDeInit) refers to stm32f4xx_hal_cortex.o(i.HAL_NVIC_DisableIRQ) for HAL_NVIC_DisableIRQ
    timer.o(i.HAL_TIM_Base_MspDeInit) refers to timer.o(i.getTimerCCIrq) for getTimerCCIrq
    timer.o(i.HAL_TIM_Base_MspInit) refers to timer.o(i.enableTimerClock) for enableTimerClock
    timer.o(i.HAL_TIM_Base_MspInit) refers to timer.o(i.getTimerUpIrq) for getTimerUpIrq
    timer.o(i.HAL_TIM_Base_MspInit) refers to stm32f4xx_hal_cortex.o(i.HAL_NVIC_SetPriority) for HAL_NVIC_SetPriority
    timer.o(i.HAL_TIM_Base_MspInit) refers to stm32f4xx_hal_cortex.o(i.HAL_NVIC_EnableIRQ) for HAL_NVIC_EnableIRQ
    timer.o(i.HAL_TIM_Base_MspInit) refers to timer.o(i.getTimerCCIrq) for getTimerCCIrq
    timer.o(i.HAL_TIM_IC_MspDeInit) refers to timer.o(i.disableTimerClock) for disableTimerClock
    timer.o(i.HAL_TIM_IC_MspInit) refers to timer.o(i.enableTimerClock) for enableTimerClock
    timer.o(i.HAL_TIM_OC_MspDeInit) refers to timer.o(i.disableTimerClock) for disableTimerClock
    timer.o(i.HAL_TIM_OC_MspDeInit) refers to timer.o(i.getTimerUpIrq) for getTimerUpIrq
    timer.o(i.HAL_TIM_OC_MspDeInit) refers to stm32f4xx_hal_cortex.o(i.HAL_NVIC_DisableIRQ) for HAL_NVIC_DisableIRQ
    timer.o(i.HAL_TIM_OC_MspDeInit) refers to timer.o(i.getTimerCCIrq) for getTimerCCIrq
    timer.o(i.HAL_TIM_OC_MspInit) refers to timer.o(i.enableTimerClock) for enableTimerClock
    timer.o(i.HAL_TIM_OC_MspInit) refers to timer.o(i.getTimerUpIrq) for getTimerUpIrq
    timer.o(i.HAL_TIM_OC_MspInit) refers to stm32f4xx_hal_cortex.o(i.HAL_NVIC_SetPriority) for HAL_NVIC_SetPriority
    timer.o(i.HAL_TIM_OC_MspInit) refers to stm32f4xx_hal_cortex.o(i.HAL_NVIC_EnableIRQ) for HAL_NVIC_EnableIRQ
    timer.o(i.HAL_TIM_OC_MspInit) refers to timer.o(i.getTimerCCIrq) for getTimerCCIrq
    timer.o(i.getTimerCCIrq) refers to main.o(i.Error_Handler) for Error_Handler
    timer.o(i.getTimerClkSrc) refers to main.o(i.Error_Handler) for Error_Handler
    timer.o(i.getTimerUpIrq) refers to main.o(i.Error_Handler) for Error_Handler
    timer.o(.ARM.exidx) refers to timer.o(i.get_timer_obj) for i.get_timer_obj
    timer.o(.ARM.exidx) refers to timer.o(i.getTimerCCIrq) for i.getTimerCCIrq
    timer.o(.ARM.exidx) refers to timer.o(i.getTimerUpIrq) for i.getTimerUpIrq
    timer.o(.ARM.exidx) refers to timer.o(i.enableTimerClock) for i.enableTimerClock
    timer.o(.ARM.exidx) refers to timer.o(i.HAL_TIM_Base_MspInit) for i.HAL_TIM_Base_MspInit
    timer.o(.ARM.exidx) refers to timer.o(i.disableTimerClock) for i.disableTimerClock
    timer.o(.ARM.exidx) refers to timer.o(i.HAL_TIM_Base_MspDeInit) for i.HAL_TIM_Base_MspDeInit
    timer.o(.ARM.exidx) refers to timer.o(i.HAL_TIM_OC_MspInit) for i.HAL_TIM_OC_MspInit
    timer.o(.ARM.exidx) refers to timer.o(i.HAL_TIM_OC_MspDeInit) for i.HAL_TIM_OC_MspDeInit
    timer.o(.ARM.exidx) refers to timer.o(i.HAL_TIM_IC_MspInit) for i.HAL_TIM_IC_MspInit
    timer.o(.ARM.exidx) refers to timer.o(i.HAL_TIM_IC_MspDeInit) for i.HAL_TIM_IC_MspDeInit
    timer.o(.ARM.exidx) refers to timer.o(i.getTimerClkSrc) for i.getTimerClkSrc
